            ml.lst          Copyright (C) 1986-1991 Phar Lap	Sourcer	v8.01   7-Sep-2022 10:02 am   Page 1


				PAGE  59,132

				;€€€€€€€€€€€€€€€€€€€€€€€€€€€€€€€€€€€€€€€€€€€€€€€€€€€€€€€€€€€€€€€€€€€€€€€€€€
				;€€					                                 €€
				;€€				ML	                                 €€
				;€€					                                 €€
				;€€      Created:   16-Feb-22		                                 €€
				;€€      Passes:    5          Analysis	Options on: QRS                  €€
				;€€      Copyright (c) 1990, Microsoft Corp                              €€
				;€€					                                 €€
				;€€€€€€€€€€€€€€€€€€€€€€€€€€€€€€€€€€€€€€€€€€€€€€€€€€€€€€€€€€€€€€€€€€€€€€€€€€

				.err     Target Assembler set to NONE, re-assembly not recommended


				; The following equates show data references outside the range of the program.

     = 002C			data_1e		equ	2Ch			; (0000:002C=54h)
     = 0314			data_2e		equ	314h			;*(0040:0314=3300h)
     = 0000			data_22e	equ	0			;*(3931:0000=1)
     = 1780			data_211e	equ	1780h			;*(3D48:1780=0)
     = FCF6			data_212e	equ	0FCF6h			;*(3D48:FCF6=0)
     = FE8F			data_213e	equ	0FE8Fh			;*(3D48:FE8F=0)
     = FE92			data_214e	equ	0FE92h			;*(3D48:FE92=0)
     = FE97			data_215e	equ	0FE97h			;*(3D48:FE97=0)
     = 0000			data_231e	equ	0			;*(4812:0000=0)
     = 0001			data_232e	equ	1			;*(5202:0001=0)
     = 0000			data_233e	equ	0			;*(5203:0000=0)
     = 0003			data_234e	equ	3			;*(5203:0003=0)
     = 0003			data_235e	equ	3			; (C08D:0003=0AB66h)
     = 0000			data_236e	equ	0			; (C08E:0000=24Fh)
     = 0003			data_238e	equ	3			; (FFFF:0003=0F000h)

				;------------------------------------------------------------  seg_a   ----

				seg_a		segment	byte public
						assume cs:seg_a  , ds:seg_d , ss:stack_seg_e


						org	64Ch

							                        ;* No entry point to code
020A:064C  1E					push	ds
020A:064D  50					push	ax
020A:064E  B8 0040				mov	ax,40h
020A:0651  8E D8				mov	ds,ax
020A:0653  F7 06 0314 2400			test	word ptr ds:data_2e,2400h	; (0040:0314=3300h)
020A:0659  75 4F				jnz	loc_8			; Jump if not zero
020A:065B  55					push	bp
020A:065C  8B EC				mov	bp,sp
020A:065E  8B 46 0A				mov	ax,[bp+0Ah]
020A:0661  5D					pop	bp
020A:0662  A9 0100				test	ax,100h
020A:0665  75 43				jnz	loc_8			; Jump if not zero
020A:0667  A9 0200				test	ax,200h
020A:066A  74 22				jz	loc_4			; Jump if zero
           ml.lst          Copyright (C) 1986-1991 Phar Lap	Sourcer	v8.01   7-Sep-2022 10:02 am   Page 2

020A:066C  F0> 81 0E 0314 0200	                           lock	or	word ptr ds:data_2e,200h	; (0040:0314=3300h)
020A:0673  F7 06 0314 0003			test	word ptr ds:data_2e,3	; (0040:0314=3300h)
020A:0679  75 2F				jnz	loc_8			; Jump if not zero
020A:067B			loc_1:						;  xref 020A:0695
020A:067B ˙86 E0				xchg	ah,al
020A:067D  FC					cld				; Clear direction
020A:067E  A8 04				test	al,4
020A:0680  75 25				jnz	loc_7			; Jump if not zero
020A:0682			loc_2:						;  xref 020A:06A8
020A:0682 ˙A8 08				test	al,8
020A:0684  75 11				jnz	loc_5			; Jump if not zero
020A:0686  70 19				jo	loc_6			; Jump if overflow=1
020A:0688			loc_3:						;  xref 020A:0697, 069F, 06A5
020A:0688 ˙9E					sahf				; Store ah into flags
020A:0689  58					pop	ax
020A:068A  1F					pop	ds
020A:068B  CA 0002				retf	2			; Return far
020A:068E			loc_4:						;  xref 020A:066A
020A:068E  F0> 81 26 0314 FDFF	                           lock	and	data_44,0FDFFh		; (3D48:0314=0)
020A:0695  EB E4				jmp	short loc_1		; (067B)
020A:0697			loc_5:						;  xref 020A:0684
020A:0697  70 EF				jo	loc_3			; Jump if overflow=1
020A:0699  50					push	ax
020A:069A  B0 7F				mov	al,7Fh
020A:069C  04 02				add	al,2
020A:069E  58					pop	ax
020A:069F  EB E7				jmp	short loc_3		; (0688)
020A:06A1			loc_6:						;  xref 020A:0686
020A:06A1  50					push	ax
020A:06A2  32 C0				xor	al,al			; Zero register
020A:06A4  58					pop	ax
020A:06A5  EB E1				jmp	short loc_3		; (0688)
020A:06A7			loc_7:						;  xref 020A:0680
020A:06A7  FD					std				; Set direction flag
020A:06A8  EB D8				jmp	short loc_2		; (0682)
020A:06AA			loc_8:						;  xref 020A:0659, 0665, 0679
020A:06AA  58					pop	ax
020A:06AB  1F					pop	ds
020A:06AC  CF					iret				; Interrupt return
020A:06AD  EB 9D C4 C4 72 EB			db	0EBh, 9Dh,0C4h,0C4h, 72h,0EBh
020A:06B3  98 C4 C4 72 EB 93			db	 98h,0C4h,0C4h, 72h,0EBh, 93h
020A:06B9  E8 1D 01				db	0E8h, 1Dh, 01h

				seg_a		ends



				;------------------------------------------------------------  seg_b   ----

				seg_b		segment	byte public
						assume cs:seg_b  , ds:seg_d , ss:stack_seg_e

387F:0000  00 00 00 00				db	0, 0, 0, 0
387F:0004  0000 0000		data_4		dw	0, 0			;  xref 387F:1F35
387F:0008  0054[00]				db	84 dup (0)
387F:005C  00			data_5		db	0			;  xref 387F:4994
387F:005D  0012[00]				db	18 dup (0)
           ml.lst          Copyright (C) 1986-1991 Phar Lap	Sourcer	v8.01   7-Sep-2022 10:02 am   Page 3

387F:006F  00			data_6		db	0			;  xref 387F:49F0
387F:0070  0490[00]				db	1168 dup (0)

				;ﬂﬂﬂﬂﬂﬂﬂﬂﬂﬂﬂﬂﬂﬂﬂﬂﬂﬂﬂﬂﬂﬂﬂﬂﬂﬂﬂﬂﬂﬂﬂﬂﬂﬂﬂﬂﬂﬂﬂﬂﬂﬂﬂﬂﬂﬂﬂﬂﬂﬂﬂﬂﬂﬂﬂﬂﬂﬂﬂﬂﬂﬂﬂﬂﬂﬂﬂﬂﬂﬂﬂﬂﬂﬂ
				;                              SUBROUTINE
				;
				;         Called from:   387F:21C8
				;‹‹‹‹‹‹‹‹‹‹‹‹‹‹‹‹‹‹‹‹‹‹‹‹‹‹‹‹‹‹‹‹‹‹‹‹‹‹‹‹‹‹‹‹‹‹‹‹‹‹‹‹‹‹‹‹‹‹‹‹‹‹‹‹‹‹‹‹‹‹‹‹‹‹

387F:0500			sub_2		proc	near

				PARAMETER_1	=	4			; bp+4
				PARAMETER_2	=	6			; bp+6
				PARAMETER_3	=	8			; bp+8
				PARAMETER_4	=	0Ah			; bp+0Ah
				LOCAL_15	=	-1Eh			; bp+0FFE2h
				LOCAL_14	=	-1Ch			; bp+0FFE4h
				LOCAL_13	=	-1Ah			; bp+0FFE6h
				LOCAL_12	=	-18h			; bp+0FFE8h
				LOCAL_11	=	-16h			; bp+0FFEAh
				LOCAL_10	=	-14h			; bp+0FFECh
				LOCAL_9		=	-12h			; bp+0FFEEh
				LOCAL_8		=	-10h			; bp+0FFF0h
				LOCAL_7		=	-0Eh			; bp+0FFF2h
				LOCAL_6		=	-0Ch			; bp+0FFF4h
				LOCAL_5		=	-0Ah			; bp+0FFF6h
				LOCAL_4		=	-8			; bp+0FFF8h
				LOCAL_3		=	-6			; bp+0FFFAh
				LOCAL_2		=	-4			; bp+0FFFCh
				LOCAL_1		=	-2			; bp+0FFFEh

387F:0500  55					push	bp
387F:0501  8B EC				mov	bp,sp
387F:0503  81 EC 012A				sub	sp,12Ah
387F:0507  57					push	di
387F:0508  56					push	si
387F:0509  B8 0048				mov	ax,48h
387F:050C ˙50					push	ax			; PARAMETER_1
387F:050D  E8 212C				call	sub_70			; (263C)
387F:0510  83 C4 02				add	sp,2
387F:0513  89 86 FF5C				mov	[bp-0A4h],ax
387F:0517  0B C0				or	ax,ax			; Zero ?
387F:0519  74 0B				jz	loc_9			; Jump if zero
387F:051B ˙50					push	ax			; PARAMETER_2
387F:051C  B8 03E8				mov	ax,3E8h
387F:051F  50					push	ax			; PARAMETER_1
387F:0520  E8 20CB				call	sub_68			; (25EE)
387F:0523  83 C4 04				add	sp,4
387F:0526			loc_9:						;  xref 387F:0519
387F:0526  8D 46 FA				lea	ax,[bp+LOCAL_3]		; Load effective addr
387F:0529 ˙50					push	ax			; PARAMETER_5
387F:052A  8D 8E FF72				lea	cx,cs:[0FF72h][bp]	; Load effective addr
387F:052E  51					push	cx			; PARAMETER_4
387F:052F  8D 8E FED6				lea	cx,cs:[0FED6h][bp]	; Load effective addr
387F:0533  51					push	cx			; PARAMETER_3
387F:0534  8D 8E FF5E				lea	cx,cs:[0FF5Eh][bp]	; Load effective addr
387F:0538  51					push	cx			; PARAMETER_2
           ml.lst          Copyright (C) 1986-1991 Phar Lap	Sourcer	v8.01   7-Sep-2022 10:02 am   Page 4

387F:0539  B9 03E8				mov	cx,3E8h
387F:053C  51					push	cx			; PARAMETER_1
387F:053D  E8 247C				call	sub_81			; (29BC)
387F:0540  83 C4 0A				add	sp,0Ah
387F:0543  80 7E FA 00				cmp	byte ptr [bp+LOCAL_3],0
387F:0547  75 0E				jne	loc_10			; Jump if not equal
387F:0549  B8 0050				mov	ax,50h
387F:054C ˙50					push	ax			; PARAMETER_2
387F:054D  B8 03E8				mov	ax,3E8h
387F:0550  50					push	ax			; PARAMETER_1
387F:0551  E8 205A				call	sub_67			; (25AE)
387F:0554  83 C4 04				add	sp,4
387F:0557			loc_10:						;  xref 387F:0547
387F:0557  C7 06 0DA6 0000			mov	data_110,0		; (3D48:0DA6=0)
387F:055D  80 BE FF5E 00			cmp	byte ptr [bp-0A2h],0
387F:0562  75 0D				jne	loc_11			; Jump if not equal
387F:0564  80 BE FED6 00			cmp	byte ptr [bp-12Ah],0
387F:0569  75 06				jne	loc_11			; Jump if not equal
387F:056B  C7 06 0DA6 0001			mov	data_110,1		; (3D48:0DA6=0)
387F:0571			loc_11:						;  xref 387F:0562, 0569
387F:0571  2B C0				sub	ax,ax
387F:0573 ˙50					push	ax			; PARAMETER_5
387F:0574  8D 8E FF72				lea	cx,cs:[0FF72h][bp]	; Load effective addr
387F:0578  51					push	cx			; PARAMETER_4
387F:0579  50					push	ax			; PARAMETER_3
387F:057A  50					push	ax			; PARAMETER_2
387F:057B  8B 5E 06				mov	bx,[bp+PARAMETER_2]
387F:057E  FF 37				push	word ptr [bx]		; PARAMETER_1
387F:0580  E8 2439				call	sub_81			; (29BC)
387F:0583  83 C4 0A				add	sp,0Ah
387F:0586  B8 0738				mov	ax,738h
387F:0589 ˙50					push	ax			; PARAMETER_2
387F:058A  8D 86 FF72				lea	ax,cs:[0FF72h][bp]	; Load effective addr
387F:058E  50					push	ax			; PARAMETER_1
387F:058F  E8 2370				call	sub_77			; (2902)
387F:0592  83 C4 04				add	sp,4
387F:0595  0B C0				or	ax,ax			; Zero ?
387F:0597  75 13				jnz	loc_12			; Jump if not zero
387F:0599  B8 0055				mov	ax,55h
387F:059C  50					push	ax
387F:059D  E8 1FCA				call	sub_64			; (256A)
387F:05A0  83 C4 02				add	sp,2
387F:05A3  2B C0				sub	ax,ax
387F:05A5 ˙50					push	ax			; PARAMETER_1
387F:05A6  E8 1D27				call	sub_55			; (22D0)
387F:05A9  83 C4 02				add	sp,2
387F:05AC			loc_12:						;  xref 387F:0597
387F:05AC  B8 0091				mov	ax,91h
387F:05AF ˙50					push	ax			; PARAMETER_1
387F:05B0  E8 2089				call	sub_70			; (263C)
387F:05B3  83 C4 02				add	sp,2
387F:05B6  3D 0001				cmp	ax,1
387F:05B9  1B C0				sbb	ax,ax
387F:05BB  40					inc	ax
387F:05BC  A3 0DA4				mov	data_109,ax		; (3D48:0DA4=0)
387F:05BF  C7 86 FF64 034E			mov	word ptr [bp-9Ch],34Eh
387F:05C5  8C 9E FF66				mov	[bp-9Ah],ds
           ml.lst          Copyright (C) 1986-1991 Phar Lap	Sourcer	v8.01   7-Sep-2022 10:02 am   Page 5

387F:05C9  C7 86 FF68 035A			mov	word ptr [bp-98h],35Ah
387F:05CF  8C 9E FF6A				mov	[bp-96h],ds
387F:05D3  C7 86 FF6C 0366			mov	word ptr [bp-94h],366h
387F:05D9  8C 9E FF6E				mov	[bp-92h],ds
387F:05DD  8D 86 FF64				lea	ax,cs:[0FF64h][bp]	; Load effective addr
387F:05E1  89 86 FF70				mov	[bp-90h],ax
387F:05E5  56					push	si
387F:05E6  57					push	di
387F:05E7  B8 ED10				mov	ax,0ED10h
387F:05EA  B3 05				mov	bl,5
387F:05EC  1E					push	ds
387F:05ED  07					pop	es
387F:05EE  8B B6 FF70				mov	si,[bp-90h]
387F:05F2  CD 2F				int	2Fh			; ??INT Non-standard interrupt
387F:05F4  89 46 F4				mov	[bp+LOCAL_6],ax
387F:05F7  89 76 F8				mov	[bp+LOCAL_4],si
387F:05FA  89 7E F6				mov	[bp+LOCAL_5],di
387F:05FD  5F					pop	di
387F:05FE  5E					pop	si
387F:05FF  FF 76 F6				push	word ptr [bp+LOCAL_5]
387F:0602  FF 76 F8				push	word ptr [bp+LOCAL_4]
387F:0605 ˙FF 76 F4				push	word ptr [bp+LOCAL_6]
387F:0608  B8 009D				mov	ax,9Dh
387F:060B  50					push	ax
387F:060C  E8 167F				call	sub_32			; (1C8E)
387F:060F  83 C4 08				add	sp,8
387F:0612  81 7E F4 EDFF			cmp	word ptr [bp+LOCAL_6],0EDFFh
387F:0617  74 03				je	loc_13			; Jump if equal
387F:0619  E9 009E				jmp	loc_16			; (06BA)
387F:061C			loc_13:						;  xref 387F:0617
387F:061C  81 7E F8 5048			cmp	word ptr [bp+LOCAL_4],5048h
387F:0621  74 03				je	loc_14			; Jump if equal
387F:0623  E9 0094				jmp	loc_16			; (06BA)
387F:0626			loc_14:						;  xref 387F:0621
387F:0626  81 7E F6 4152			cmp	word ptr [bp+LOCAL_5],4152h
387F:062B  74 03				je	loc_15			; Jump if equal
387F:062D  E9 008A				jmp	loc_16			; (06BA)
387F:0630			loc_15:						;  xref 387F:062B
387F:0630  8D 86 FF58				lea	ax,cs:[0FF58h][bp]	; Load effective addr
387F:0634 ˙50					push	ax			; PARAMETER_3
387F:0635  8D 86 FF5A				lea	ax,cs:[0FF5Ah][bp]	; Load effective addr
387F:0639  50					push	ax			; PARAMETER_2
387F:063A  8B 5E 06				mov	bx,[bp+PARAMETER_2]
387F:063D  FF 37				push	word ptr [bx]		; PARAMETER_1
387F:063F  E8 166E				call	sub_33			; (1CB0)
387F:0642  83 C4 06				add	sp,6
387F:0645  B1 04				mov	cl,4
387F:0647  A1 0042				mov	ax,data_32		; (3D48:0042=100h)
387F:064A  D3 E8				shr	ax,cl			; Shift w/zeros fill
387F:064C  2B 06 0DFE				sub	ax,data_128		; (3D48:0DFE=3D48h)
387F:0650  03 06 0044				add	ax,data_33		; (3D48:0044=387Fh)
387F:0654  40					inc	ax
387F:0655  A3 0DA2				mov	data_108,ax		; (3D48:0DA2=0)
387F:0658  8B 5E 06				mov	bx,[bp+PARAMETER_2]
387F:065B ˙FF 37				push	word ptr [bx]
387F:065D  B8 00CB				mov	ax,0CBh
387F:0660  50					push	ax
           ml.lst          Copyright (C) 1986-1991 Phar Lap	Sourcer	v8.01   7-Sep-2022 10:02 am   Page 6

387F:0661  E8 162A				call	sub_32			; (1C8E)
387F:0664  83 C4 04				add	sp,4
387F:0667 ˙FF 36 0DFE				push	data_128		; (3D48:0DFE=3D48h)
387F:066B  B8 00F6				mov	ax,0F6h
387F:066E  50					push	ax
387F:066F  E8 161C				call	sub_32			; (1C8E)
387F:0672  83 C4 04				add	sp,4
387F:0675 ˙FF 36 0DA2				push	data_108		; (3D48:0DA2=0)
387F:0679  B8 0114				mov	ax,114h
387F:067C  50					push	ax
387F:067D  E8 160E				call	sub_32			; (1C8E)
387F:0680  83 C4 04				add	sp,4
387F:0683  FF 36 0044				push	data_33			; (3D48:0044=387Fh)
387F:0687 ˙FF 36 0042				push	data_32			; (3D48:0042=100h)
387F:068B  B8 0133				mov	ax,133h
387F:068E  50					push	ax
387F:068F  E8 15FC				call	sub_32			; (1C8E)
387F:0692  83 C4 06				add	sp,6
387F:0695  E8 1C47				call	sub_56			; (22DF)
387F:0698  B8 ED11				mov	ax,0ED11h
387F:069B  8B 96 FF5A				mov	dx,[bp-0A6h]
387F:069F  B3 05				mov	bl,5
387F:06A1  8B 0E 0DA2				mov	cx,data_108		; (3D48:0DA2=0)
387F:06A5  1E					push	ds
387F:06A6  07					pop	es
387F:06A7  8B B6 FF70				mov	si,[bp-90h]
387F:06AB  8E 16 0044				mov	ss,data_33		; (3D48:0044=387Fh)
387F:06AF  8B 26 0042				mov	sp,data_32		; (3D48:0042=100h)
387F:06B3  CD 2F				int	2Fh			; ??INT Non-standard interrupt
387F:06B5  B8 4CFF				mov	ax,4CFFh
387F:06B8  CD 21				int	21h			; DOS Services  ah=function 4Ch
										;  terminate with al=return code
387F:06BA			loc_16:						;  xref 387F:0619, 0623, 062D
387F:06BA  E8 1055				call	sub_15			; (1712)
387F:06BD  0B C0				or	ax,ax			; Zero ?
387F:06BF  75 07				jnz	loc_17			; Jump if not zero
387F:06C1  E8 1084				call	sub_16			; (1748)
387F:06C4  0B C0				or	ax,ax			; Zero ?
387F:06C6  74 07				jz	loc_18			; Jump if zero
387F:06C8			loc_17:						;  xref 387F:06BF
387F:06C8  E8 06C7				call	sub_8			; (0D92)
387F:06CB  0B C0				or	ax,ax			; Zero ?
387F:06CD  74 13				jz	loc_20			; Jump if zero
387F:06CF			loc_18:						;  xref 387F:06C6
387F:06CF ˙FF 76 06				push	word ptr [bp+PARAMETER_2]	; PARAMETER_2
387F:06D2  FF 76 04				push	word ptr [bp+PARAMETER_1]	; PARAMETER_1
387F:06D5  E8 00F6				call	sub_5			; (07CE)
387F:06D8			loc_19:						;  xref 387F:06EB
387F:06D8 ˙83 C4 04				add	sp,4
387F:06DB  5E					pop	si
387F:06DC  5F					pop	di
387F:06DD  8B E5				mov	sp,bp
387F:06DF  5D					pop	bp
387F:06E0  C3					retn
							                        ;* No entry point to code
387F:06E1  90					nop
387F:06E2			loc_20:						;  xref 387F:06CD
           ml.lst          Copyright (C) 1986-1991 Phar Lap	Sourcer	v8.01   7-Sep-2022 10:02 am   Page 7

387F:06E2 ˙FF 76 06				push	word ptr [bp+PARAMETER_2]	; PARAMETER_2
387F:06E5  FF 76 04				push	word ptr [bp+PARAMETER_1]	; PARAMETER_1
387F:06E8  E8 02EF				call	sub_6			; (09DA)
387F:06EB  EB EB				jmp	short loc_19		; (06D8)
				sub_2		endp

387F:06ED  90					db	90h

				;ﬂﬂﬂﬂﬂﬂﬂﬂﬂﬂﬂﬂﬂﬂﬂﬂﬂﬂﬂﬂﬂﬂﬂﬂﬂﬂﬂﬂﬂﬂﬂﬂﬂﬂﬂﬂﬂﬂﬂﬂﬂﬂﬂﬂﬂﬂﬂﬂﬂﬂﬂﬂﬂﬂﬂﬂﬂﬂﬂﬂﬂﬂﬂﬂﬂﬂﬂﬂﬂﬂﬂﬂﬂﬂ
				;                              SUBROUTINE
				;
				;         Called from:   387F:07A2, 07C6, 085C, 098B, 09D1
				;‹‹‹‹‹‹‹‹‹‹‹‹‹‹‹‹‹‹‹‹‹‹‹‹‹‹‹‹‹‹‹‹‹‹‹‹‹‹‹‹‹‹‹‹‹‹‹‹‹‹‹‹‹‹‹‹‹‹‹‹‹‹‹‹‹‹‹‹‹‹‹‹‹‹

387F:06EE			sub_3		proc	near

				PARAMETER_1	=	4			; bp+4
				PARAMETER_2	=	6			; bp+6
				LOCAL_2		=	-4			; bp+0FFFCh
				LOCAL_1		=	-2			; bp+0FFFEh

387F:06EE  55					push	bp
387F:06EF  8B EC				mov	bp,sp
387F:06F1  83 EC 04				sub	sp,4
387F:06F4  8D 46 06				lea	ax,[bp+PARAMETER_2]	; Load effective addr
387F:06F7  89 46 FE				mov	[bp+LOCAL_1],ax
387F:06FA  EB 2E				jmp	short loc_23		; (072A)
387F:06FC			loc_21:						;  xref 387F:072E
387F:06FC  8B 5E 04				mov	bx,[bp+PARAMETER_1]
387F:06FF  80 3F 00				cmp	byte ptr [bx],0
387F:0702  74 1A				je	loc_22			; Jump if equal
387F:0704  8D 46 FC				lea	ax,[bp+LOCAL_2]		; Load effective addr
387F:0707  50					push	ax
387F:0708 ˙53					push	bx			; PARAMETER_1
387F:0709  E8 1F14				call	sub_69			; (2620)
387F:070C  83 C4 02				add	sp,2
387F:070F  50					push	ax
387F:0710  1E					push	ds
387F:0711  FF 76 04				push	word ptr [bp+PARAMETER_1]
387F:0714  B8 0001				mov	ax,1
387F:0717  50					push	ax
387F:0718  E8 24BA				call	sub_86			; (2BD5)
387F:071B  83 C4 0A				add	sp,0Ah
387F:071E			loc_22:						;  xref 387F:0702
387F:071E  8B 5E FE				mov	bx,[bp+LOCAL_1]
387F:0721  83 46 FE 02				add	word ptr [bp+LOCAL_1],2
387F:0725  8B 07				mov	ax,[bx]
387F:0727  89 46 04				mov	[bp+PARAMETER_1],ax
387F:072A			loc_23:						;  xref 387F:06FA
387F:072A  83 7E 04 00				cmp	word ptr [bp+PARAMETER_1],0
387F:072E  75 CC				jne	loc_21			; Jump if not equal
387F:0730  C7 46 FE 0000			mov	word ptr [bp+LOCAL_1],0
387F:0735  8B E5				mov	sp,bp
387F:0737  5D					pop	bp
387F:0738  C3					retn
				sub_3		endp

           ml.lst          Copyright (C) 1986-1991 Phar Lap	Sourcer	v8.01   7-Sep-2022 10:02 am   Page 8

387F:0739  90					db	90h

				;ﬂﬂﬂﬂﬂﬂﬂﬂﬂﬂﬂﬂﬂﬂﬂﬂﬂﬂﬂﬂﬂﬂﬂﬂﬂﬂﬂﬂﬂﬂﬂﬂﬂﬂﬂﬂﬂﬂﬂﬂﬂﬂﬂﬂﬂﬂﬂﬂﬂﬂﬂﬂﬂﬂﬂﬂﬂﬂﬂﬂﬂﬂﬂﬂﬂﬂﬂﬂﬂﬂﬂﬂﬂﬂ
				;                              SUBROUTINE
				;
				;         Called from:   387F:0888
				;‹‹‹‹‹‹‹‹‹‹‹‹‹‹‹‹‹‹‹‹‹‹‹‹‹‹‹‹‹‹‹‹‹‹‹‹‹‹‹‹‹‹‹‹‹‹‹‹‹‹‹‹‹‹‹‹‹‹‹‹‹‹‹‹‹‹‹‹‹‹‹‹‹‹

387F:073A			sub_4		proc	near

				PARAMETER_1	=	4			; bp+4
				PARAMETER_2	=	6			; bp+6
				PARAMETER_3	=	8			; bp+8
				LOCAL_1		=	-2			; bp+0FFFEh

387F:073A  55					push	bp
387F:073B  8B EC				mov	bp,sp
387F:073D  83 EC 02				sub	sp,2
387F:0740  8D 46 08				lea	ax,[bp+PARAMETER_3]	; Load effective addr
387F:0743  89 46 FE				mov	[bp+LOCAL_1],ax
387F:0746  EB 0C				jmp	short loc_25		; (0754)
387F:0748			loc_24:						;  xref 387F:0760
387F:0748  8B 5E FE				mov	bx,[bp+LOCAL_1]
387F:074B  83 46 FE 02				add	word ptr [bp+LOCAL_1],2
387F:074F  8B 07				mov	ax,[bx]
387F:0751  89 46 06				mov	[bp+PARAMETER_2],ax
387F:0754			loc_25:						;  xref 387F:0746
387F:0754  83 7E 06 00				cmp	word ptr [bp+PARAMETER_2],0
387F:0758  74 18				je	loc_27			; Jump if equal
387F:075A			loc_26:						;  xref 387F:076F
387F:075A ˙8B 5E 06				mov	bx,[bp+PARAMETER_2]
387F:075D  80 3F 00				cmp	byte ptr [bx],0
387F:0760  74 E6				je	loc_24			; Jump if equal
387F:0762  8A 07				mov	al,[bx]
387F:0764  8B 5E 04				mov	bx,[bp+PARAMETER_1]
387F:0767  88 07				mov	[bx],al
387F:0769  FF 46 06				inc	word ptr [bp+PARAMETER_2]
387F:076C  FF 46 04				inc	word ptr [bp+PARAMETER_1]
387F:076F  EB E9				jmp	short loc_26		; (075A)
387F:0771  90					db	90h
387F:0772			loc_27:						;  xref 387F:0758
387F:0772  8B 5E 04				mov	bx,[bp+PARAMETER_1]
387F:0775  C6 07 00				mov	byte ptr [bx],0
387F:0778  C7 46 FE 0000			mov	word ptr [bp+LOCAL_1],0
387F:077D  8B E5				mov	sp,bp
387F:077F  5D					pop	bp
387F:0780  C3					retn
				sub_4		endp

							                        ;* No entry point to code
387F:0781  90					nop
387F:0782  A1 053A				mov	ax,data_49		; (3D48:053A=0)
387F:0785  FF 06 053A				inc	data_49			; (3D48:053A=0)
387F:0789  0B C0				or	ax,ax			; Zero ?
387F:078B  75 3F				jnz	loc_ret_28		; Jump if not zero
387F:078D  50					push	ax
387F:078E  B9 04E8				mov	cx,4E8h
           ml.lst          Copyright (C) 1986-1991 Phar Lap	Sourcer	v8.01   7-Sep-2022 10:02 am   Page 9

387F:0791  51					push	cx
387F:0792  BA 04EB				mov	dx,4EBh
387F:0795  52					push	dx
387F:0796  BA 0519				mov	dx,519h
387F:0799  52					push	dx
387F:079A  BA 0366				mov	dx,366h
387F:079D ˙52					push	dx			; PARAMETER_2
387F:079E  BA 051E				mov	dx,51Eh
387F:07A1  52					push	dx			; PARAMETER_1
387F:07A2  E8 FF49				call	sub_3			; (06EE)
387F:07A5  83 C4 0C				add	sp,0Ch
387F:07A8  80 3E 034E 00			cmp	byte ptr data_45,0	; (3D48:034E=54h)
387F:07AD  74 1D				je	loc_ret_28		; Jump if equal
387F:07AF  2B C0				sub	ax,ax
387F:07B1  50					push	ax
387F:07B2  B8 04E8				mov	ax,4E8h
387F:07B5  50					push	ax
387F:07B6  B8 035A				mov	ax,35Ah
387F:07B9  50					push	ax
387F:07BA  B8 0528				mov	ax,528h
387F:07BD  50					push	ax
387F:07BE  B8 034E				mov	ax,34Eh
387F:07C1 ˙50					push	ax			; PARAMETER_2
387F:07C2  B8 052A				mov	ax,52Ah
387F:07C5  50					push	ax			; PARAMETER_1
387F:07C6  E8 FF25				call	sub_3			; (06EE)
387F:07C9  83 C4 0C				add	sp,0Ch

387F:07CC			loc_ret_28:					;  xref 387F:078B, 07AD
387F:07CC  C3					retn
387F:07CD  90					db	90h

				;ﬂﬂﬂﬂﬂﬂﬂﬂﬂﬂﬂﬂﬂﬂﬂﬂﬂﬂﬂﬂﬂﬂﬂﬂﬂﬂﬂﬂﬂﬂﬂﬂﬂﬂﬂﬂﬂﬂﬂﬂﬂﬂﬂﬂﬂﬂﬂﬂﬂﬂﬂﬂﬂﬂﬂﬂﬂﬂﬂﬂﬂﬂﬂﬂﬂﬂﬂﬂﬂﬂﬂﬂﬂﬂ
				;                              SUBROUTINE
				;
				;         Called from:   387F:06D5
				;‹‹‹‹‹‹‹‹‹‹‹‹‹‹‹‹‹‹‹‹‹‹‹‹‹‹‹‹‹‹‹‹‹‹‹‹‹‹‹‹‹‹‹‹‹‹‹‹‹‹‹‹‹‹‹‹‹‹‹‹‹‹‹‹‹‹‹‹‹‹‹‹‹‹

387F:07CE			sub_5		proc	near

				PARAMETER_1	=	4			; bp+4
				PARAMETER_2	=	6			; bp+6
				LOCAL_15	=	-1Eh			; bp+0FFE2h
				LOCAL_14	=	-1Ch			; bp+0FFE4h
				LOCAL_13	=	-1Ah			; bp+0FFE6h
				LOCAL_12	=	-18h			; bp+0FFE8h
				LOCAL_11	=	-16h			; bp+0FFEAh
				LOCAL_10	=	-14h			; bp+0FFECh
				LOCAL_9		=	-12h			; bp+0FFEEh
				LOCAL_8		=	-10h			; bp+0FFF0h
				LOCAL_7		=	-0Eh			; bp+0FFF2h
				LOCAL_6		=	-0Ch			; bp+0FFF4h
				LOCAL_5		=	-0Ah			; bp+0FFF6h
				LOCAL_4		=	-8			; bp+0FFF8h
				LOCAL_3		=	-6			; bp+0FFFAh
				LOCAL_2		=	-4			; bp+0FFFCh
				LOCAL_1		=	-2			; bp+0FFFEh
           ml.lst          Copyright (C) 1986-1991 Phar Lap	Sourcer	v8.01   7-Sep-2022 10:02 am   Page 10


387F:07CE  55					push	bp
387F:07CF  8B EC				mov	bp,sp
387F:07D1  81 EC 0752				sub	sp,752h
387F:07D5  57					push	di
387F:07D6  56					push	si
387F:07D7  8D 86 FE00				lea	ax,cs:[0FE00h][bp]	; Load effective addr
387F:07DB ˙50					push	ax			; PARAMETER_5
387F:07DC  8D 86 FBF6				lea	ax,cs:[0FBF6h][bp]	; Load effective addr
387F:07E0  50					push	ax			; PARAMETER_4
387F:07E1  8D 86 FF00				lea	ax,cs:[0FF00h][bp]	; Load effective addr
387F:07E5  50					push	ax			; PARAMETER_3
387F:07E6  8D 86 FABC				lea	ax,cs:[0FABCh][bp]	; Load effective addr
387F:07EA  50					push	ax			; PARAMETER_2
387F:07EB  8B 5E 06				mov	bx,[bp+PARAMETER_2]
387F:07EE  FF 37				push	word ptr [bx]		; PARAMETER_1
387F:07F0  E8 21C9				call	sub_81			; (29BC)
387F:07F3  83 C4 0A				add	sp,0Ah
387F:07F6  8D 86 F8B0				lea	ax,cs:[0F8B0h][bp]	; Load effective addr
387F:07FA ˙50					push	ax			; PARAMETER_3
387F:07FB  8D 8E F9B6				lea	cx,cs:[0F9B6h][bp]	; Load effective addr
387F:07FF  51					push	cx			; PARAMETER_2
387F:0800  8B 5E 06				mov	bx,[bp+PARAMETER_2]
387F:0803  FF 37				push	word ptr [bx]		; PARAMETER_1
387F:0805  E8 14A8				call	sub_33			; (1CB0)
387F:0808  83 C4 06				add	sp,6
387F:080B  B8 0200				mov	ax,200h
387F:080E ˙50					push	ax			; PARAMETER_3
387F:080F  B8 053C				mov	ax,53Ch
387F:0812  50					push	ax			; PARAMETER_2
387F:0813  8D 86 FBC0				lea	ax,cs:[0FBC0h][bp]	; Load effective addr
387F:0817  50					push	ax			; PARAMETER_1
387F:0818  E8 202B				call	sub_74			; (2846)
387F:081B  83 C4 06				add	sp,6
387F:081E  8D 86 FBC0				lea	ax,cs:[0FBC0h][bp]	; Load effective addr
387F:0822 ˙50					push	ax			; PARAMETER_1
387F:0823  E8 1DFA				call	sub_69			; (2620)
387F:0826  83 C4 02				add	sp,2
387F:0829 ˙FF B6 F9B6				push	word ptr [bp-64Ah]	; PARAMETER_1
387F:082D  8B F0				mov	si,ax
387F:082F  E8 1DEE				call	sub_69			; (2620)
387F:0832  83 C4 02				add	sp,2
387F:0835 ˙FF B6 F8B0				push	word ptr [bp-750h]	; PARAMETER_1
387F:0839  8B F8				mov	di,ax
387F:083B  E8 1DE2				call	sub_69			; (2620)
387F:083E  83 C4 02				add	sp,2
387F:0841  03 F8				add	di,ax
387F:0843  03 F7				add	si,di
387F:0845  83 C6 0F				add	si,0Fh
387F:0848  56					push	si
387F:0849  E8 1D5A				call	sub_65			; (25A6)
387F:084C  83 C4 02				add	sp,2
387F:084F  89 86 FBF4				mov	[bp-40Ch],ax
387F:0853  0B C0				or	ax,ax			; Zero ?
387F:0855  75 15				jnz	loc_31			; Jump if not zero
387F:0857 ˙50					push	ax			; PARAMETER_2
387F:0858  B8 0552				mov	ax,552h
           ml.lst          Copyright (C) 1986-1991 Phar Lap	Sourcer	v8.01   7-Sep-2022 10:02 am   Page 11

387F:085B			loc_29:						;  xref 387F:08C5
387F:085B ˙50					push	ax			; PARAMETER_1
387F:085C  E8 FE8F				call	sub_3			; (06EE)
387F:085F  83 C4 04				add	sp,4
387F:0862			loc_30:						;  xref 387F:0991, 09D7
387F:0862 ˙B8 0001				mov	ax,1
387F:0865  5E					pop	si
387F:0866  5F					pop	di
387F:0867  8B E5				mov	sp,bp
387F:0869  5D					pop	bp
387F:086A  C3					retn
387F:086B  90					db	90h
387F:086C			loc_31:						;  xref 387F:0855
387F:086C  2B C0				sub	ax,ax
387F:086E  50					push	ax
387F:086F  FF B6 F8B0				push	word ptr [bp-750h]
387F:0873  8D 8E FBC0				lea	cx,cs:[0FBC0h][bp]	; Load effective addr
387F:0877  51					push	cx
387F:0878  B9 0562				mov	cx,562h
387F:087B  51					push	cx
387F:087C ˙FF B6 F9B6				push	word ptr [bp-64Ah]	; PARAMETER_3
387F:0880  B9 0564				mov	cx,564h
387F:0883  51					push	cx			; PARAMETER_2
387F:0884  FF B6 FBF4				push	word ptr [bp-40Ch]	; PARAMETER_1
387F:0888  E8 FEAF				call	sub_4			; (073A)
387F:088B  83 C4 0E				add	sp,0Eh
387F:088E ˙FF B6 FBF4				push	word ptr [bp-40Ch]	; PARAMETER_1
387F:0892  E8 1E01				call	sub_71			; (2696)
387F:0895  83 C4 02				add	sp,2
387F:0898 ˙BB 0080				mov	bx,offset data_38	; (3D48:0080=65h)
387F:089B  8B 0E 0DFE				mov	cx,data_128		; (3D48:0DFE=3D48h)
387F:089F  8E C1				mov	es,cx
387F:08A1  89 9E FCFA				mov	[bp-306h],bx
387F:08A5  8C 86 FCFC				mov	[bp-304h],es
387F:08A9  26: 8A 07				mov	al,es:[bx]
387F:08AC  98					cbw				; Convrt byte to word
387F:08AD  40					inc	ax
387F:08AE  89 86 FBF2				mov	[bp-40Eh],ax
387F:08B2  50					push	ax
387F:08B3  E8 1CF0				call	sub_65			; (25A6)
387F:08B6  83 C4 02				add	sp,2
387F:08B9  89 86 FABA				mov	[bp-546h],ax
387F:08BD  0B C0				or	ax,ax			; Zero ?
387F:08BF  75 07				jnz	loc_32			; Jump if not zero
387F:08C1  50					push	ax
387F:08C2  B8 0572				mov	ax,572h
387F:08C5  EB 94				jmp	short loc_29		; (085B)
387F:08C7  90					db	90h
387F:08C8			loc_32:						;  xref 387F:08BF
387F:08C8  C7 86 FBF2 0000			mov	word ptr [bp-40Eh],0
387F:08CE  EB 12				jmp	short loc_34		; (08E2)
387F:08D0			loc_33:						;  xref 387F:08EE
387F:08D0  8B B6 FBF2				mov	si,[bp-40Eh]
387F:08D4  26: 8A 40 01				mov	al,es:[bx+si+1]
387F:08D8  8B 9E FABA				mov	bx,[bp-546h]
387F:08DC  88 00				mov	[bx+si],al
387F:08DE  FF 86 FBF2				inc	word ptr [bp-40Eh]
           ml.lst          Copyright (C) 1986-1991 Phar Lap	Sourcer	v8.01   7-Sep-2022 10:02 am   Page 12

387F:08E2			loc_34:						;  xref 387F:08CE
387F:08E2  C4 9E FCFA				les	bx,dword ptr [bp-306h]	; Load seg:offset ptr
387F:08E6  26: 8A 07				mov	al,es:[bx]
387F:08E9  98					cbw				; Convrt byte to word
387F:08EA  3B 86 FBF2				cmp	ax,[bp-40Eh]
387F:08EE  7F E0				jg	loc_33			; Jump if >
387F:08F0  8B 9E FABA				mov	bx,[bp-546h]
387F:08F4  8B B6 FBF2				mov	si,[bp-40Eh]
387F:08F8  C6 00 00				mov	byte ptr [bx+si],0
387F:08FB  8D 86 F9B8				lea	ax,cs:[0F9B8h][bp]	; Load effective addr
387F:08FF ˙50					push	ax			; PARAMETER_5
387F:0900  8D 8E FCFE				lea	cx,cs:[0FCFEh][bp]	; Load effective addr
387F:0904  51					push	cx			; PARAMETER_4
387F:0905  8D 96 FAC0				lea	dx,cs:[0FAC0h][bp]	; Load effective addr
387F:0909  52					push	dx			; PARAMETER_3
387F:090A ˙8D B6 FCF6				lea	si,[bp-30Ah]		; Load effective addr
387F:090E  56					push	si			; PARAMETER_2
387F:090F  BF 03E8				mov	di,3E8h
387F:0912  57					push	di			; PARAMETER_1
387F:0913  E8 20A6				call	sub_81			; (29BC)
387F:0916  83 C4 0A				add	sp,0Ah
387F:0919  80 BE FCF6 00			cmp	byte ptr [bp-30Ah],0
387F:091E  75 39				jne	loc_35			; Jump if not equal
387F:0920  80 BE FAC0 00			cmp	byte ptr [bp-540h],0
387F:0925  75 32				jne	loc_35			; Jump if not equal
387F:0927  8D 86 F9B8				lea	ax,cs:[0F9B8h][bp]	; Load effective addr
387F:092B ˙50					push	ax			; PARAMETER_5
387F:092C  8D 86 FCFE				lea	ax,cs:[0FCFEh][bp]	; Load effective addr
387F:0930  50					push	ax			; PARAMETER_4
387F:0931  8D 86 FF00				lea	ax,cs:[0FF00h][bp]	; Load effective addr
387F:0935  50					push	ax			; PARAMETER_3
387F:0936  8D 86 FABC				lea	ax,cs:[0FABCh][bp]	; Load effective addr
387F:093A  50					push	ax			; PARAMETER_2
387F:093B  8D 86 F8B2				lea	ax,cs:[0F8B2h][bp]	; Load effective addr
387F:093F  50					push	ax			; PARAMETER_1
387F:0940  E8 21C3				call	sub_82			; (2B06)
387F:0943  83 C4 0A				add	sp,0Ah
387F:0946  2B C0				sub	ax,ax
387F:0948  50					push	ax
387F:0949  FF B6 FABA				push	word ptr [bp-546h]
387F:094D  8D 86 F8B2				lea	ax,cs:[0F8B2h][bp]	; Load effective addr
387F:0951 ˙50					push	ax			; PARAMETER_2
387F:0952  50					push	ax			; PARAMETER_1
387F:0953  E8 2238				call	sub_83			; (2B8E)
387F:0956  83 C4 08				add	sp,8
387F:0959			loc_35:						;  xref 387F:091E, 0925
387F:0959  2B C0				sub	ax,ax
387F:095B  50					push	ax
387F:095C  FF B6 FABA				push	word ptr [bp-546h]
387F:0960  B9 03E8				mov	cx,3E8h
387F:0963 ˙51					push	cx			; PARAMETER_2
387F:0964  51					push	cx			; PARAMETER_1
387F:0965  E8 223C				call	sub_84			; (2BA4)
387F:0968  83 C4 08				add	sp,8
387F:096B  83 3E 0DF8 02			cmp	data_126,2		; (3D48:0DF8=0)
387F:0970  75 22				jne	loc_36			; Jump if not equal
387F:0972  B8 03E8				mov	ax,3E8h
           ml.lst          Copyright (C) 1986-1991 Phar Lap	Sourcer	v8.01   7-Sep-2022 10:02 am   Page 13

387F:0975 ˙50					push	ax			; PARAMETER_1
387F:0976  E8 1FCB				call	sub_78			; (2944)
387F:0979  83 C4 02				add	sp,2
387F:097C  2B C0				sub	ax,ax
387F:097E  50					push	ax
387F:097F  B8 0582				mov	ax,582h
387F:0982  50					push	ax
387F:0983  B8 03E8				mov	ax,3E8h
387F:0986 ˙50					push	ax			; PARAMETER_2
387F:0987  B8 0598				mov	ax,598h
387F:098A  50					push	ax			; PARAMETER_1
387F:098B  E8 FD60				call	sub_3			; (06EE)
387F:098E  83 C4 08				add	sp,8
387F:0991  E9 FECE				jmp	loc_30			; (0862)
387F:0994			loc_36:						;  xref 387F:0970
387F:0994  B8 03E8				mov	ax,3E8h
387F:0997 ˙50					push	ax			; PARAMETER_1
387F:0998  E8 1FA9				call	sub_78			; (2944)
387F:099B  83 C4 02				add	sp,2
387F:099E  A1 0DF8				mov	ax,data_126		; (3D48:0DF8=0)
387F:09A1  39 06 0FB2				cmp	data_148,ax		; (3D48:0FB2=25h)
387F:09A5  7F 05				jg	loc_37			; Jump if >
387F:09A7  B8 05AF				mov	ax,5AFh
387F:09AA  EB 0A				jmp	short loc_38		; (09B6)
387F:09AC			loc_37:						;  xref 387F:09A5
387F:09AC  8B 1E 0DF8				mov	bx,data_126		; (3D48:0DF8=0)
387F:09B0  D1 E3				shl	bx,1			; Shift w/zeros fill
387F:09B2  8B 87 0F66				mov	ax,data_147[bx]		; (3D48:0F66=0E32h)
387F:09B6			loc_38:						;  xref 387F:09AA
387F:09B6  89 86 F8AE				mov	[bp-752h],ax
387F:09BA  2B C0				sub	ax,ax
387F:09BC  50					push	ax
387F:09BD  B8 04E8				mov	ax,4E8h
387F:09C0  50					push	ax
387F:09C1  FF B6 F8AE				push	word ptr [bp-752h]
387F:09C5  B8 05BD				mov	ax,5BDh
387F:09C8  50					push	ax
387F:09C9  B8 03E8				mov	ax,3E8h
387F:09CC ˙50					push	ax			; PARAMETER_2
387F:09CD  B8 05C2				mov	ax,5C2h
387F:09D0  50					push	ax			; PARAMETER_1
387F:09D1  E8 FD1A				call	sub_3			; (06EE)
387F:09D4  83 C4 0C				add	sp,0Ch
387F:09D7  E9 FE88				jmp	loc_30			; (0862)
				sub_5		endp


				;ﬂﬂﬂﬂﬂﬂﬂﬂﬂﬂﬂﬂﬂﬂﬂﬂﬂﬂﬂﬂﬂﬂﬂﬂﬂﬂﬂﬂﬂﬂﬂﬂﬂﬂﬂﬂﬂﬂﬂﬂﬂﬂﬂﬂﬂﬂﬂﬂﬂﬂﬂﬂﬂﬂﬂﬂﬂﬂﬂﬂﬂﬂﬂﬂﬂﬂﬂﬂﬂﬂﬂﬂﬂﬂ
				;                              SUBROUTINE
				;
				;         Called from:   387F:06E8
				;‹‹‹‹‹‹‹‹‹‹‹‹‹‹‹‹‹‹‹‹‹‹‹‹‹‹‹‹‹‹‹‹‹‹‹‹‹‹‹‹‹‹‹‹‹‹‹‹‹‹‹‹‹‹‹‹‹‹‹‹‹‹‹‹‹‹‹‹‹‹‹‹‹‹

387F:09DA			sub_6		proc	near

				PARAMETER_1	=	4			; bp+4
				PARAMETER_2	=	6			; bp+6
           ml.lst          Copyright (C) 1986-1991 Phar Lap	Sourcer	v8.01   7-Sep-2022 10:02 am   Page 14

				LOCAL_15	=	-1Eh			; bp+0FFE2h
				LOCAL_14	=	-1Ch			; bp+0FFE4h
				LOCAL_13	=	-1Ah			; bp+0FFE6h
				LOCAL_12	=	-18h			; bp+0FFE8h
				LOCAL_11	=	-16h			; bp+0FFEAh
				LOCAL_10	=	-14h			; bp+0FFECh
				LOCAL_9		=	-12h			; bp+0FFEEh
				LOCAL_8		=	-10h			; bp+0FFF0h
				LOCAL_7		=	-0Eh			; bp+0FFF2h
				LOCAL_6		=	-0Ch			; bp+0FFF4h
				LOCAL_5		=	-0Ah			; bp+0FFF6h
				LOCAL_4		=	-8			; bp+0FFF8h
				LOCAL_3		=	-6			; bp+0FFFAh
				LOCAL_2		=	-4			; bp+0FFFCh
				LOCAL_1		=	-2			; bp+0FFFEh

387F:09DA  55					push	bp
387F:09DB  8B EC				mov	bp,sp
387F:09DD  81 EC 040E				sub	sp,40Eh
387F:09E1  56					push	si
387F:09E2  83 3E 0DA6 00			cmp	data_110,0		; (3D48:0DA6=0)
387F:09E7  75 03				jne	loc_39			; Jump if not equal
387F:09E9  E9 0162				jmp	loc_51			; (0B4E)
387F:09EC			loc_39:						;  xref 387F:09E7
387F:09EC  8D 86 FEFC				lea	ax,cs:[0FEFCh][bp]	; Load effective addr
387F:09F0 ˙50					push	ax			; PARAMETER_5
387F:09F1  50					push	ax			; PARAMETER_4
387F:09F2  8D 86 FBF4				lea	ax,cs:[0FBF4h][bp]	; Load effective addr
387F:09F6  50					push	ax			; PARAMETER_3
387F:09F7  8D 8E FDFA				lea	cx,cs:[0FDFAh][bp]	; Load effective addr
387F:09FB  51					push	cx			; PARAMETER_2
387F:09FC  8B 5E 06				mov	bx,[bp+PARAMETER_2]
387F:09FF  FF 37				push	word ptr [bx]		; PARAMETER_1
387F:0A01  E8 1FB8				call	sub_81			; (29BC)
387F:0A04  83 C4 0A				add	sp,0Ah
387F:0A07  8D 86 FBF4				lea	ax,cs:[0FBF4h][bp]	; Load effective addr
387F:0A0B ˙50					push	ax			; PARAMETER_2
387F:0A0C  8D 86 FDFA				lea	ax,cs:[0FDFAh][bp]	; Load effective addr
387F:0A10  50					push	ax			; PARAMETER_1
387F:0A11  E8 1B9A				call	sub_67			; (25AE)
387F:0A14  83 C4 04				add	sp,4
387F:0A17  B8 05D2				mov	ax,5D2h
387F:0A1A ˙50					push	ax			; PARAMETER_1
387F:0A1B  E8 1C1E				call	sub_70			; (263C)
387F:0A1E  83 C4 02				add	sp,2
387F:0A21  89 86 FEFA				mov	[bp-106h],ax
387F:0A25  8B 5E 06				mov	bx,[bp+PARAMETER_2]
387F:0A28 ˙FF 37				push	word ptr [bx]
387F:0A2A  B8 05D7				mov	ax,5D7h
387F:0A2D  50					push	ax
387F:0A2E  E8 125D				call	sub_32			; (1C8E)
387F:0A31  83 C4 04				add	sp,4
387F:0A34 ˙FF B6 FEFA				push	word ptr [bp-106h]
387F:0A38  B8 05E5				mov	ax,5E5h
387F:0A3B  50					push	ax
387F:0A3C  E8 124F				call	sub_32			; (1C8E)
387F:0A3F  83 C4 04				add	sp,4
           ml.lst          Copyright (C) 1986-1991 Phar Lap	Sourcer	v8.01   7-Sep-2022 10:02 am   Page 15

387F:0A42  8D 86 FDFA				lea	ax,cs:[0FDFAh][bp]	; Load effective addr
387F:0A46 ˙50					push	ax
387F:0A47  B8 0605				mov	ax,605h
387F:0A4A  50					push	ax
387F:0A4B  E8 1240				call	sub_32			; (1C8E)
387F:0A4E  83 C4 04				add	sp,4
387F:0A51  C7 86 FF7C 0001			mov	word ptr [bp-84h],1
387F:0A57  E9 00A4				jmp	loc_46			; (0AFE)
387F:0A5A			loc_40:						;  xref 387F:0B05
387F:0A5A ˙8D 86 FDFA				lea	ax,cs:[0FDFAh][bp]	; Load effective addr
387F:0A5E  89 86 FDF6				mov	[bp-20Ah],ax
387F:0A62 ˙50					push	ax			; PARAMETER_1
387F:0A63  E8 1BBA				call	sub_69			; (2620)
387F:0A66  83 C4 02				add	sp,2
387F:0A69  89 86 FDF4				mov	[bp-20Ch],ax
387F:0A6D			loc_41:						;  xref 387F:0AE0, 0B4A
387F:0A6D ˙FF B6 FDF4				push	word ptr [bp-20Ch]	; PARAMETER_3
387F:0A71  FF B6 FDF6				push	word ptr [bp-20Ah]	; PARAMETER_2
387F:0A75  8D 86 FF7E				lea	ax,cs:[0FF7Eh][bp]	; Load effective addr
387F:0A79  50					push	ax			; PARAMETER_1
387F:0A7A  E8 1EE5				call	sub_79			; (2962)
387F:0A7D  83 C4 06				add	sp,6
387F:0A80  83 BE FDF4 00			cmp	word ptr [bp-20Ch],0
387F:0A85  74 14				je	loc_42			; Jump if equal
387F:0A87  8B B6 FDF4				mov	si,[bp-20Ch]
387F:0A8B  80 BA FF7D 5C			cmp	byte ptr [bp+si-83h],5Ch	; '\'
387F:0A90  74 09				je	loc_42			; Jump if equal
387F:0A92  C6 82 FF7E 5C			mov	byte ptr [bp+si-82h],5Ch	; '\'
387F:0A97  FF 86 FDF4				inc	word ptr [bp-20Ch]
387F:0A9B			loc_42:						;  xref 387F:0A85, 0A90
387F:0A9B  B8 03E8				mov	ax,3E8h
387F:0A9E ˙50					push	ax			; PARAMETER_2
387F:0A9F  8B B6 FDF4				mov	si,[bp-20Ch]
387F:0AA3  8D 82 FF7E				lea	ax,cs:[0FF7Eh][bp+si]	; Load effective addr
387F:0AA7  50					push	ax			; PARAMETER_1
387F:0AA8  E8 1B43				call	sub_68			; (25EE)
387F:0AAB  83 C4 04				add	sp,4
387F:0AAE  8D 86 FF7E				lea	ax,cs:[0FF7Eh][bp]	; Load effective addr
387F:0AB2  50					push	ax
387F:0AB3 ˙FF B6 FF7C				push	word ptr [bp-84h]
387F:0AB7  B9 062A				mov	cx,62Ah
387F:0ABA  51					push	cx
387F:0ABB  E8 11D0				call	sub_32			; (1C8E)
387F:0ABE  83 C4 06				add	sp,6
387F:0AC1  8D 86 FF7E				lea	ax,cs:[0FF7Eh][bp]	; Load effective addr
387F:0AC5 ˙50					push	ax			; PARAMETER_1
387F:0AC6  E8 112D				call	sub_28			; (1BF6)
387F:0AC9  83 C4 02				add	sp,2
387F:0ACC  0B C0				or	ax,ax			; Zero ?
387F:0ACE  75 22				jnz	loc_45			; Jump if not zero
387F:0AD0  E9 009C				jmp	loc_52			; (0B6F)
387F:0AD3  90					db	90h
387F:0AD4			loc_43:						;  xref 387F:0B09
387F:0AD4  C7 86 FDF6 0628			mov	word ptr [bp-20Ah],628h
387F:0ADA  C7 86 FDF4 0001			mov	word ptr [bp-20Ch],1
387F:0AE0  EB 8B				jmp	short loc_41		; (0A6D)
387F:0AE2			loc_44:						;  xref 387F:0B32
           ml.lst          Copyright (C) 1986-1991 Phar Lap	Sourcer	v8.01   7-Sep-2022 10:02 am   Page 16

387F:0AE2  2B 86 FDF6				sub	ax,[bp-20Ah]
387F:0AE6  89 86 FDF4				mov	[bp-20Ch],ax
387F:0AEA  03 86 FDF6				add	ax,[bp-20Ah]
387F:0AEE  40					inc	ax
387F:0AEF  EB 55				jmp	short loc_50		; (0B46)
387F:0AF1  90					db	90h
387F:0AF2			loc_45:						;  xref 387F:0ACE
387F:0AF2  FF 86 FF7C				inc	word ptr [bp-84h]
387F:0AF6  8B 86 FEFA				mov	ax,[bp-106h]
387F:0AFA  89 86 FDF6				mov	[bp-20Ah],ax
387F:0AFE			loc_46:						;  xref 387F:0A57
387F:0AFE  8B 86 FF7C				mov	ax,[bp-84h]
387F:0B02  48					dec	ax
387F:0B03  75 03				jnz	loc_47			; Jump if not zero
387F:0B05  E9 FF52				jmp	loc_40			; (0A5A)
387F:0B08			loc_47:						;  xref 387F:0B03
387F:0B08  48					dec	ax
387F:0B09  74 C9				jz	loc_43			; Jump if zero
387F:0B0B  83 BE FDF6 00			cmp	word ptr [bp-20Ah],0
387F:0B10  75 03				jne	loc_48			; Jump if not equal
387F:0B12  E9 0135				jmp	loc_57			; (0C4A)
387F:0B15			loc_48:						;  xref 387F:0B10
387F:0B15  8B 9E FDF6				mov	bx,[bp-20Ah]
387F:0B19  80 3F 00				cmp	byte ptr [bx],0
387F:0B1C  75 03				jne	loc_49			; Jump if not equal
387F:0B1E  E9 0129				jmp	loc_57			; (0C4A)
387F:0B21			loc_49:						;  xref 387F:0B1C
387F:0B21  B8 003B				mov	ax,3Bh
387F:0B24 ˙50					push	ax			; PARAMETER_2
387F:0B25  53					push	bx			; PARAMETER_1
387F:0B26  E8 1DAF				call	sub_76			; (28D8)
387F:0B29  83 C4 04				add	sp,4
387F:0B2C  89 86 FEFA				mov	[bp-106h],ax
387F:0B30  0B C0				or	ax,ax			; Zero ?
387F:0B32  75 AE				jnz	loc_44			; Jump if not zero
387F:0B34 ˙FF B6 FDF6				push	word ptr [bp-20Ah]	; PARAMETER_1
387F:0B38  E8 1AE5				call	sub_69			; (2620)
387F:0B3B  83 C4 02				add	sp,2
387F:0B3E  89 86 FDF4				mov	[bp-20Ch],ax
387F:0B42  03 86 FDF6				add	ax,[bp-20Ah]
387F:0B46			loc_50:						;  xref 387F:0AEF
387F:0B46  89 86 FEFA				mov	[bp-106h],ax
387F:0B4A  E9 FF20				jmp	loc_41			; (0A6D)
387F:0B4D  90					db	90h
387F:0B4E			loc_51:						;  xref 387F:09E9
387F:0B4E  B8 03E8				mov	ax,3E8h
387F:0B51 ˙50					push	ax			; PARAMETER_2
387F:0B52  8D 86 FF7E				lea	ax,cs:[0FF7Eh][bp]	; Load effective addr
387F:0B56  50					push	ax			; PARAMETER_1
387F:0B57  E8 1A94				call	sub_68			; (25EE)
387F:0B5A  83 C4 04				add	sp,4
387F:0B5D  8D 86 FF7E				lea	ax,cs:[0FF7Eh][bp]	; Load effective addr
387F:0B61 ˙50					push	ax			; PARAMETER_1
387F:0B62  E8 1091				call	sub_28			; (1BF6)
387F:0B65  83 C4 02				add	sp,2
387F:0B68  0B C0				or	ax,ax			; Zero ?
387F:0B6A  74 03				jz	loc_52			; Jump if zero
           ml.lst          Copyright (C) 1986-1991 Phar Lap	Sourcer	v8.01   7-Sep-2022 10:02 am   Page 17

387F:0B6C  E9 00DB				jmp	loc_57			; (0C4A)
387F:0B6F			loc_52:						;  xref 387F:0AD0, 0B6A
387F:0B6F  E8 03DE				call	sub_9			; (0F50)
387F:0B72  89 46 FE				mov	[bp+LOCAL_1],ax
387F:0B75  E8 10FE				call	sub_31			; (1C76)
387F:0B78  83 7E FE 00				cmp	word ptr [bp+LOCAL_1],0
387F:0B7C  74 22				je	loc_54			; Jump if equal
387F:0B7E  C7 46 FE 0001			mov	word ptr [bp+LOCAL_1],1
387F:0B83  8D 86 FF7E				lea	ax,cs:[0FF7Eh][bp]	; Load effective addr
387F:0B87 ˙50					push	ax			; PARAMETER_1
387F:0B88  E8 1DB9				call	sub_78			; (2944)
387F:0B8B  83 C4 02				add	sp,2
387F:0B8E  8D 86 FF7E				lea	ax,cs:[0FF7Eh][bp]	; Load effective addr
387F:0B92 ˙50					push	ax			; PARAMETER_2
387F:0B93  B8 0638				mov	ax,638h
387F:0B96			loc_53:						;  xref 387F:0BFC
387F:0B96 ˙50					push	ax			; PARAMETER_1
387F:0B97  E8 19D0				call	sub_64			; (256A)
387F:0B9A  83 C4 04				add	sp,4
387F:0B9D  E9 009A				jmp	loc_56			; (0C3A)
387F:0BA0			loc_54:						;  xref 387F:0B7C
387F:0BA0  8D 86 FBF2				lea	ax,cs:[0FBF2h][bp]	; Load effective addr
387F:0BA4 ˙50					push	ax			; PARAMETER_3
387F:0BA5  8D 8E FDF8				lea	cx,cs:[0FDF8h][bp]	; Load effective addr
387F:0BA9  51					push	cx			; PARAMETER_2
387F:0BAA  8B 5E 06				mov	bx,[bp+PARAMETER_2]
387F:0BAD  FF 37				push	word ptr [bx]		; PARAMETER_1
387F:0BAF  E8 10FE				call	sub_33			; (1CB0)
387F:0BB2  83 C4 06				add	sp,6
387F:0BB5  FF B6 FBF2				push	word ptr [bp-40Eh]
387F:0BB9  B8 0200				mov	ax,200h
387F:0BBC  50					push	ax
387F:0BBD  8D 86 FF7E				lea	ax,cs:[0FF7Eh][bp]	; Load effective addr
387F:0BC1  50					push	ax
387F:0BC2  FF 36 0DA2				push	data_108		; (3D48:0DA2=0)
387F:0BC6  FF 36 0DFE				push	data_128		; (3D48:0DFE=3D48h)
387F:0BCA  FF 36 0DA0				push	data_107		; (3D48:0DA0=0)
387F:0BCE  FF 36 0D9E				push	data_106		; (3D48:0D9E=0)
387F:0BD2 ˙FF B6 FDF8				push	word ptr [bp-208h]	; PARAMETER_3
387F:0BD6  B9 0656				mov	cx,656h
387F:0BD9  51					push	cx			; PARAMETER_2
387F:0BDA  8D 8E FBF4				lea	cx,cs:[0FBF4h][bp]	; Load effective addr
387F:0BDE  51					push	cx			; PARAMETER_1
387F:0BDF  E8 1C64				call	sub_74			; (2846)
387F:0BE2  83 C4 14				add	sp,14h
387F:0BE5  8D 86 FBF4				lea	ax,cs:[0FBF4h][bp]	; Load effective addr
387F:0BE9 ˙50					push	ax			; PARAMETER_1
387F:0BEA  E8 007D				call	sub_7			; (0C6A)
387F:0BED  83 C4 02				add	sp,2
387F:0BF0  0B C0				or	ax,ax			; Zero ?
387F:0BF2  74 0A				jz	loc_55			; Jump if zero
387F:0BF4  8D 86 FF7E				lea	ax,cs:[0FF7Eh][bp]	; Load effective addr
387F:0BF8  50					push	ax
387F:0BF9  B8 06BB				mov	ax,6BBh
387F:0BFC  EB 98				jmp	short loc_53		; (0B96)
387F:0BFE			loc_55:						;  xref 387F:0BF2
387F:0BFE  FF 36 0BB2				push	data_73			; (3D48:0BB2=0)
           ml.lst          Copyright (C) 1986-1991 Phar Lap	Sourcer	v8.01   7-Sep-2022 10:02 am   Page 18

387F:0C02  FF 36 0BAE				push	data_71			; (3D48:0BAE=0)
387F:0C06  FF 36 0BAA				push	data_69			; (3D48:0BAA=0)
387F:0C0A  FF 36 0BA8				push	data_68			; (3D48:0BA8=0)
387F:0C0E  FF 36 0BB0				push	data_72			; (3D48:0BB0=0)
387F:0C12  FF 36 0BBA				push	data_76			; (3D48:0BBA=0)
387F:0C16  FF 36 0BB8				push	data_75			; (3D48:0BB8=0)
387F:0C1A ˙FF 36 0BAC				push	data_70			; (3D48:0BAC=0)
387F:0C1E  B8 06D4				mov	ax,6D4h
387F:0C21  50					push	ax
387F:0C22  E8 1069				call	sub_32			; (1C8E)
387F:0C25  83 C4 12				add	sp,12h
387F:0C28  E8 16B4				call	sub_56			; (22DF)
387F:0C2B  E8 10DE				call	sub_34			; (1D0C)
387F:0C2E  E8 11F9				call	sub_41			; (1E2A)
387F:0C31  B0 01				mov	al,1
387F:0C33  50					push	ax
387F:0C34  E8 1464				call	sub_52			; (209B) Sub does not return here
387F:0C37  83 C4 02				db	 83h,0C4h, 02h
387F:0C3A			loc_56:						;  xref 387F:0B9D, 0C67
387F:0C3A ˙E8 16A2				call	sub_56			; (22DF)
387F:0C3D  E8 10CC				call	sub_34			; (1D0C)
387F:0C40  8A 46 FE				mov	al,[bp+LOCAL_1]
387F:0C43  50					push	ax
387F:0C44  E8 1454				call	sub_52			; (209B) Sub does not return here
387F:0C47  83 C4 02				db	 83h,0C4h, 02h
387F:0C4A			loc_57:						;  xref 387F:0B12, 0B1E, 0B6C
387F:0C4A  B8 03E8				mov	ax,3E8h
387F:0C4D ˙50					push	ax			; PARAMETER_1
387F:0C4E  E8 1CF3				call	sub_78			; (2944)
387F:0C51  83 C4 02				add	sp,2
387F:0C54  B8 03E8				mov	ax,3E8h
387F:0C57 ˙50					push	ax			; PARAMETER_2
387F:0C58  B8 070B				mov	ax,70Bh
387F:0C5B  50					push	ax			; PARAMETER_1
387F:0C5C  E8 190B				call	sub_64			; (256A)
387F:0C5F  83 C4 04				add	sp,4
387F:0C62  C7 46 FE 0001			mov	word ptr [bp+LOCAL_1],1
387F:0C67  EB D1				jmp	short loc_56		; (0C3A)
				sub_6		endp

387F:0C69  90					db	90h

				;ﬂﬂﬂﬂﬂﬂﬂﬂﬂﬂﬂﬂﬂﬂﬂﬂﬂﬂﬂﬂﬂﬂﬂﬂﬂﬂﬂﬂﬂﬂﬂﬂﬂﬂﬂﬂﬂﬂﬂﬂﬂﬂﬂﬂﬂﬂﬂﬂﬂﬂﬂﬂﬂﬂﬂﬂﬂﬂﬂﬂﬂﬂﬂﬂﬂﬂﬂﬂﬂﬂﬂﬂﬂﬂ
				;                              SUBROUTINE
				;
				;         Called from:   387F:0BEA
				;‹‹‹‹‹‹‹‹‹‹‹‹‹‹‹‹‹‹‹‹‹‹‹‹‹‹‹‹‹‹‹‹‹‹‹‹‹‹‹‹‹‹‹‹‹‹‹‹‹‹‹‹‹‹‹‹‹‹‹‹‹‹‹‹‹‹‹‹‹‹‹‹‹‹

387F:0C6A			sub_7		proc	near

				PARAMETER_1	=	4			; bp+4
				LOCAL_15	=	-1Eh			; bp+0FFE2h
				LOCAL_14	=	-1Ch			; bp+0FFE4h
				LOCAL_13	=	-1Ah			; bp+0FFE6h
				LOCAL_12	=	-18h			; bp+0FFE8h
				LOCAL_11	=	-16h			; bp+0FFEAh
				LOCAL_10	=	-14h			; bp+0FFECh
           ml.lst          Copyright (C) 1986-1991 Phar Lap	Sourcer	v8.01   7-Sep-2022 10:02 am   Page 19

				LOCAL_9		=	-12h			; bp+0FFEEh
				LOCAL_8		=	-10h			; bp+0FFF0h
				LOCAL_7		=	-0Eh			; bp+0FFF2h
				LOCAL_6		=	-0Ch			; bp+0FFF4h
				LOCAL_5		=	-0Ah			; bp+0FFF6h
				LOCAL_4		=	-8			; bp+0FFF8h
				LOCAL_3		=	-6			; bp+0FFFAh
				LOCAL_2		=	-4			; bp+0FFFCh
				LOCAL_1		=	-2			; bp+0FFFEh

387F:0C6A  55					push	bp
387F:0C6B  8B EC				mov	bp,sp
387F:0C6D  81 EC 040A				sub	sp,40Ah
387F:0C71  A1 0D78				mov	ax,data_97		; (3D48:0D78=0)
387F:0C74  8B 16 0D7A				mov	dx,data_98		; (3D48:0D7A=0)
387F:0C78  89 46 FA				mov	[bp+LOCAL_3],ax
387F:0C7B  89 56 FC				mov	[bp+LOCAL_2],dx
387F:0C7E  A1 0D9C				mov	ax,data_105		; (3D48:0D9C=0)
387F:0C81  89 46 FE				mov	[bp+LOCAL_1],ax
387F:0C84  E8 1085				call	sub_34			; (1D0C)
387F:0C87  8D 86 FBF8				lea	ax,cs:[0FBF8h][bp]	; Load effective addr
387F:0C8B  50					push	ax
387F:0C8C  B9 0200				mov	cx,200h
387F:0C8F  2B D2				sub	dx,dx
387F:0C91  52					push	dx
387F:0C92  51					push	cx
387F:0C93  8D 4E FA				lea	cx,[bp+LOCAL_3]		; Load effective addr
387F:0C96  51					push	cx
387F:0C97  E8 10FD				call	sub_38			; (1D97)
387F:0C9A  83 C4 08				add	sp,8
387F:0C9D  E8 108E				call	sub_35			; (1D2E)
387F:0CA0 ˙FF 76 04				push	word ptr [bp+PARAMETER_1]
387F:0CA3  B8 073E				mov	ax,73Eh
387F:0CA6  50					push	ax
387F:0CA7  E8 0FE4				call	sub_32			; (1C8E)
387F:0CAA  83 C4 04				add	sp,4
387F:0CAD  FF 36 0D7A				push	data_98			; (3D48:0D7A=0)
387F:0CB1 ˙FF 36 0D78				push	data_97			; (3D48:0D78=0)
387F:0CB5  B8 0759				mov	ax,759h
387F:0CB8  50					push	ax
387F:0CB9  E8 0FD2				call	sub_32			; (1C8E)
387F:0CBC  83 C4 06				add	sp,6
387F:0CBF  8D 86 FBF8				lea	ax,cs:[0FBF8h][bp]	; Load effective addr
387F:0CC3 ˙50					push	ax
387F:0CC4  B8 0779				mov	ax,779h
387F:0CC7  50					push	ax
387F:0CC8  E8 0FC3				call	sub_32			; (1C8E)
387F:0CCB  83 C4 04				add	sp,4
387F:0CCE ˙FF B6 FC2A				push	word ptr [bp-3D6h]
387F:0CD2  B8 0791				mov	ax,791h
387F:0CD5  50					push	ax
387F:0CD6  E8 0FB5				call	sub_32			; (1C8E)
387F:0CD9  83 C4 04				add	sp,4
387F:0CDC ˙FF B6 FC30				push	word ptr [bp-3D0h]
387F:0CE0  B8 079E				mov	ax,79Eh
387F:0CE3  50					push	ax
387F:0CE4  E8 0FA7				call	sub_32			; (1C8E)
           ml.lst          Copyright (C) 1986-1991 Phar Lap	Sourcer	v8.01   7-Sep-2022 10:02 am   Page 20

387F:0CE7  83 C4 04				add	sp,4
387F:0CEA  FF B6 FC48				push	word ptr [bp-3B8h]
387F:0CEE ˙FF B6 FC46				push	word ptr [bp-3BAh]
387F:0CF2  B8 07BA				mov	ax,7BAh
387F:0CF5  50					push	ax
387F:0CF6  E8 0F95				call	sub_32			; (1C8E)
387F:0CF9  83 C4 06				add	sp,6
387F:0CFC  8B 86 FC48				mov	ax,[bp-3B8h]
387F:0D00  0B 86 FC46				or	ax,[bp-3BAh]
387F:0D04  75 08				jnz	loc_59			; Jump if not zero
387F:0D06			loc_58:						;  xref 387F:0D54
387F:0D06  B8 0001				mov	ax,1
387F:0D09  8B E5				mov	sp,bp
387F:0D0B  5D					pop	bp
387F:0D0C  C3					retn
							                        ;* No entry point to code
387F:0D0D  90					nop
387F:0D0E			loc_59:						;  xref 387F:0D04
387F:0D0E ˙FF 76 04				push	word ptr [bp+PARAMETER_1]	; PARAMETER_1
387F:0D11  E8 190C				call	sub_69			; (2620)
387F:0D14  83 C4 02				add	sp,2
387F:0D17  40					inc	ax
387F:0D18  89 86 FBF6				mov	[bp-40Ah],ax
387F:0D1C  8B 86 FC46				mov	ax,[bp-3BAh]
387F:0D20  8B 96 FC48				mov	dx,[bp-3B8h]
387F:0D24  89 46 FA				mov	[bp+LOCAL_3],ax
387F:0D27  89 56 FC				mov	[bp+LOCAL_2],dx
387F:0D2A  A1 0D9C				mov	ax,data_105		; (3D48:0D9C=0)
387F:0D2D  89 46 FE				mov	[bp+LOCAL_1],ax
387F:0D30  E8 0FD9				call	sub_34			; (1D0C)
387F:0D33  8D 86 FDF8				lea	ax,cs:[0FDF8h][bp]	; Load effective addr
387F:0D37  50					push	ax
387F:0D38  B9 0002				mov	cx,2
387F:0D3B  2B D2				sub	dx,dx
387F:0D3D  52					push	dx
387F:0D3E  51					push	cx
387F:0D3F  8D 4E FA				lea	cx,[bp+LOCAL_3]		; Load effective addr
387F:0D42  51					push	cx
387F:0D43  E8 1051				call	sub_38			; (1D97)
387F:0D46  83 C4 08				add	sp,8
387F:0D49  E8 0FE2				call	sub_35			; (1D2E)
387F:0D4C  8B 86 FDF8				mov	ax,[bp-208h]
387F:0D50  39 86 FBF6				cmp	[bp-40Ah],ax
387F:0D54  77 B0				ja	loc_58			; Jump if above
387F:0D56  8B 86 FC46				mov	ax,[bp-3BAh]
387F:0D5A  8B 96 FC48				mov	dx,[bp-3B8h]
387F:0D5E  05 0002				add	ax,2
387F:0D61  83 D2 00				adc	dx,0
387F:0D64  89 46 FA				mov	[bp+LOCAL_3],ax
387F:0D67  89 56 FC				mov	[bp+LOCAL_2],dx
387F:0D6A  A1 0D9C				mov	ax,data_105		; (3D48:0D9C=0)
387F:0D6D  89 46 FE				mov	[bp+LOCAL_1],ax
387F:0D70  E8 0F99				call	sub_34			; (1D0C)
387F:0D73  FF 76 04				push	word ptr [bp+PARAMETER_1]
387F:0D76  8B 86 FBF6				mov	ax,[bp-40Ah]
387F:0D7A  2B D2				sub	dx,dx
387F:0D7C  52					push	dx
           ml.lst          Copyright (C) 1986-1991 Phar Lap	Sourcer	v8.01   7-Sep-2022 10:02 am   Page 21

387F:0D7D  50					push	ax
387F:0D7E  8D 46 FA				lea	ax,[bp+LOCAL_3]		; Load effective addr
387F:0D81  50					push	ax
387F:0D82  E8 1048				call	sub_39			; (1DCD)
387F:0D85  83 C4 08				add	sp,8
387F:0D88  E8 0FA3				call	sub_35			; (1D2E)
387F:0D8B  2B C0				sub	ax,ax
387F:0D8D  8B E5				mov	sp,bp
387F:0D8F  5D					pop	bp
387F:0D90  C3					retn
				sub_7		endp

387F:0D91  90					db	90h

				;ﬂﬂﬂﬂﬂﬂﬂﬂﬂﬂﬂﬂﬂﬂﬂﬂﬂﬂﬂﬂﬂﬂﬂﬂﬂﬂﬂﬂﬂﬂﬂﬂﬂﬂﬂﬂﬂﬂﬂﬂﬂﬂﬂﬂﬂﬂﬂﬂﬂﬂﬂﬂﬂﬂﬂﬂﬂﬂﬂﬂﬂﬂﬂﬂﬂﬂﬂﬂﬂﬂﬂﬂﬂﬂ
				;                              SUBROUTINE
				;
				;         Called from:   387F:06C8
				;‹‹‹‹‹‹‹‹‹‹‹‹‹‹‹‹‹‹‹‹‹‹‹‹‹‹‹‹‹‹‹‹‹‹‹‹‹‹‹‹‹‹‹‹‹‹‹‹‹‹‹‹‹‹‹‹‹‹‹‹‹‹‹‹‹‹‹‹‹‹‹‹‹‹

387F:0D92			sub_8		proc	near

				LOCAL_13	=	-1Ah			; bp+0FFE6h
				LOCAL_12	=	-18h			; bp+0FFE8h
				LOCAL_11	=	-16h			; bp+0FFEAh
				LOCAL_10	=	-14h			; bp+0FFECh
				LOCAL_9		=	-12h			; bp+0FFEEh
				LOCAL_8		=	-10h			; bp+0FFF0h
				LOCAL_7		=	-0Eh			; bp+0FFF2h
				LOCAL_6		=	-0Ch			; bp+0FFF4h
				LOCAL_5		=	-0Ah			; bp+0FFF6h
				LOCAL_4		=	-8			; bp+0FFF8h
				LOCAL_3		=	-6			; bp+0FFFAh
				LOCAL_2		=	-4			; bp+0FFFCh
				LOCAL_1		=	-2			; bp+0FFFEh

387F:0D92  55					push	bp
387F:0D93  8B EC				mov	bp,sp
387F:0D95  83 EC 1A				sub	sp,1Ah
387F:0D98  B8 0B52				mov	ax,0B52h
387F:0D9B  50					push	ax
387F:0D9C  E8 114C				call	sub_42			; (1EEB)
387F:0D9F  83 C4 02				add	sp,2
387F:0DA2  89 46 EA				mov	[bp+LOCAL_11],ax
387F:0DA5  0B C0				or	ax,ax			; Zero ?
387F:0DA7  74 09				jz	loc_61			; Jump if zero
387F:0DA9			loc_60:						;  xref 387F:0E4F, 0EA8, 0EFC
387F:0DA9 ˙C7 46 EA FFE5			mov	word ptr [bp+LOCAL_11],0FFE5h
387F:0DAE  E9 0198				jmp	loc_68			; (0F49)
387F:0DB1  90					db	90h
387F:0DB2			loc_61:						;  xref 387F:0DA7
387F:0DB2  C7 06 0D04 0001			mov	data_79,1		; (3D48:0D04=0)
387F:0DB8  8D 46 F4				lea	ax,[bp+LOCAL_6]		; Load effective addr
387F:0DBB ˙50					push	ax			; PARAMETER_1
387F:0DBC  E8 0F8B				call	sub_36			; (1D4A)
387F:0DBF  83 C4 02				add	sp,2
387F:0DC2  8B 46 F6				mov	ax,[bp+LOCAL_5]
           ml.lst          Copyright (C) 1986-1991 Phar Lap	Sourcer	v8.01   7-Sep-2022 10:02 am   Page 22

387F:0DC5  A3 0B64				mov	data_59,ax		; (3D48:0B64=0)
387F:0DC8  8B 46 FA				mov	ax,[bp+LOCAL_3]
387F:0DCB  A3 0B66				mov	data_60,ax		; (3D48:0B66=0)
387F:0DCE  B8 0174				mov	ax,174h
387F:0DD1 ˙50					push	ax			; PARAMETER_3
387F:0DD2  2B C0				sub	ax,ax
387F:0DD4  50					push	ax			; PARAMETER_2
387F:0DD5  B8 0B84				mov	ax,0B84h
387F:0DD8  50					push	ax			; PARAMETER_1
387F:0DD9  E8 1BB2				call	sub_80			; (298E)
387F:0DDC  83 C4 06				add	sp,6
387F:0DDF  C7 06 0B60 0000			mov	data_57,0		; (3D48:0B60=0)
387F:0DE5  C7 46 FC 0100			mov	word ptr [bp+LOCAL_2],100h
387F:0DEA  C7 46 FE 387F			mov	word ptr [bp+LOCAL_1],seg_b
387F:0DEF  8B 46 FE				mov	ax,[bp+LOCAL_1]
387F:0DF2  2B 06 0DFE				sub	ax,data_128		; (3D48:0DFE=3D48h)
387F:0DF6  A3 0DA2				mov	data_108,ax		; (3D48:0DA2=0)
387F:0DF9  83 3E 0B5A 00			cmp	data_54,0		; (3D48:0B5A=0)
387F:0DFE  74 52				je	loc_63			; Jump if equal
387F:0E00  8B 46 FE				mov	ax,[bp+LOCAL_1]
387F:0E03  40					inc	ax
387F:0E04  A3 0B60				mov	data_57,ax		; (3D48:0B60=0)
387F:0E07  8B 0E 0046				mov	cx,data_34		; (3D48:0046=400h)
387F:0E0B  49					dec	cx
387F:0E0C  3B 0E 0B5A				cmp	cx,data_54		; (3D48:0B5A=0)
387F:0E10  72 0E				jb	loc_62			; Jump if below
387F:0E12  2B 06 0DFE				sub	ax,data_128		; (3D48:0DFE=3D48h)
387F:0E16  03 06 0B5A				add	ax,data_54		; (3D48:0B5A=0)
387F:0E1A  A3 0DA2				mov	data_108,ax		; (3D48:0DA2=0)
387F:0E1D  EB 33				jmp	short loc_63		; (0E52)
387F:0E1F  90					db	90h
387F:0E20			loc_62:						;  xref 387F:0E10
387F:0E20  B8 5800				mov	ax,5800h
387F:0E23  CD 21				int	21h			; DOS Services  ah=function 58h
										;  get allocation strategy ax
387F:0E25  89 46 E6				mov	[bp+LOCAL_13],ax
387F:0E28  B8 5801				mov	ax,5801h
387F:0E2B  BB 0002				mov	bx,2
387F:0E2E  CD 21				int	21h			; DOS Services  ah=function 58h
										;  set allocation strategy bx
										;   bx=0 1st, =1 best, =2 last
										;    or 80h for high-1st
387F:0E30  B8 0B60				mov	ax,0B60h
387F:0E33  50					push	ax
387F:0E34  FF 36 0B5A				push	data_54			; (3D48:0B5A=0)
387F:0E38  E8 1D7B				call	sub_85			; (2BB6)
387F:0E3B  83 C4 04				add	sp,4
387F:0E3E  89 46 EA				mov	[bp+LOCAL_11],ax
387F:0E41  B8 5801				mov	ax,5801h
387F:0E44  8B 5E E6				mov	bx,[bp+LOCAL_13]
387F:0E47  CD 21				int	21h			; DOS Services  ah=function 58h
										;  set allocation strategy bx
										;   bx=0 1st, =1 best, =2 last
										;    or 80h for high-1st
387F:0E49  83 7E EA 00				cmp	word ptr [bp+LOCAL_11],0
387F:0E4D  74 03				je	loc_63			; Jump if equal
387F:0E4F  E9 FF57				jmp	loc_60			; (0DA9)
           ml.lst          Copyright (C) 1986-1991 Phar Lap	Sourcer	v8.01   7-Sep-2022 10:02 am   Page 23

387F:0E52			loc_63:						;  xref 387F:0DFE, 0E1D, 0E4D
387F:0E52 ˙FF 36 0B60				push	data_57			; (3D48:0B60=0)
387F:0E56  B8 07DA				mov	ax,7DAh
387F:0E59  50					push	ax
387F:0E5A  E8 0E31				call	sub_32			; (1C8E)
387F:0E5D  83 C4 04				add	sp,4
387F:0E60 ˙FF 36 0B5A				push	data_54			; (3D48:0B5A=0)
387F:0E64  B8 0803				mov	ax,803h
387F:0E67  50					push	ax
387F:0E68  E8 0E23				call	sub_32			; (1C8E)
387F:0E6B  83 C4 04				add	sp,4
387F:0E6E ˙FF 36 0DFE				push	data_128		; (3D48:0DFE=3D48h)
387F:0E72  B8 082A				mov	ax,82Ah
387F:0E75  50					push	ax
387F:0E76  E8 0E15				call	sub_32			; (1C8E)
387F:0E79  83 C4 04				add	sp,4
387F:0E7C ˙FF 36 0DA2				push	data_108		; (3D48:0DA2=0)
387F:0E80  B8 0848				mov	ax,848h
387F:0E83  50					push	ax
387F:0E84  E8 0E07				call	sub_32			; (1C8E)
387F:0E87  83 C4 04				add	sp,4
387F:0E8A  B8 0B70				mov	ax,0B70h
387F:0E8D ˙50					push	ax			; PARAMETER_5
387F:0E8E  FF 36 0B60				push	data_57			; PARAMETER_4 (3D48:0B60=0)
387F:0E92  B8 0001				mov	ax,1
387F:0E95  50					push	ax			; PARAMETER_3
387F:0E96  FF 36 0B5E				push	data_56			; PARAMETER_2 (3D48:0B5E=0)
387F:0E9A  FF 36 0B5C				push	data_55			; PARAMETER_1 (3D48:0B5C=0)
387F:0E9E  E8 108A				call	sub_43			; (1F2B)
387F:0EA1  83 C4 0A				add	sp,0Ah
387F:0EA4  0B C0				or	ax,ax			; Zero ?
387F:0EA6  74 03				jz	loc_64			; Jump if zero
387F:0EA8  E9 FEFE				jmp	loc_60			; (0DA9)
387F:0EAB			loc_64:						;  xref 387F:0EA6
387F:0EAB  E8 0EB1				call	sub_37			; (1D5F)
387F:0EAE  8D 46 EC				lea	ax,[bp+LOCAL_10]	; Load effective addr
387F:0EB1 ˙50					push	ax			; PARAMETER_1
387F:0EB2  E8 0E95				call	sub_36			; (1D4A)
387F:0EB5  83 C4 02				add	sp,2
387F:0EB8  8B 46 EE				mov	ax,[bp+LOCAL_9]
387F:0EBB  A3 0B68				mov	data_61,ax		; (3D48:0B68=0)
387F:0EBE  8B 46 F2				mov	ax,[bp+LOCAL_7]
387F:0EC1  A3 0B6A				mov	data_62,ax		; (3D48:0B6A=0)
387F:0EC4  B8 0B7E				mov	ax,0B7Eh
387F:0EC7 ˙50					push	ax			; PARAMETER_2
387F:0EC8  B8 0B76				mov	ax,0B76h
387F:0ECB  50					push	ax			; PARAMETER_1
387F:0ECC  E8 119C				call	sub_50			; (206B)
387F:0ECF  83 C4 04				add	sp,4
387F:0ED2  0B C0				or	ax,ax			; Zero ?
387F:0ED4  74 12				jz	loc_65			; Jump if zero
387F:0ED6  E8 0E55				call	sub_35			; (1D2E)
387F:0ED9  E8 1403				call	sub_56			; (22DF)
387F:0EDC  E8 0E2D				call	sub_34			; (1D0C)
387F:0EDF  B0 01				mov	al,1
387F:0EE1  50					push	ax
387F:0EE2  E8 11B6				call	sub_52			; (209B) Sub does not return here
           ml.lst          Copyright (C) 1986-1991 Phar Lap	Sourcer	v8.01   7-Sep-2022 10:02 am   Page 24

387F:0EE5  83 C4 02				db	 83h,0C4h, 02h
387F:0EE8			loc_65:						;  xref 387F:0ED4
387F:0EE8 ˙FF 36 0B68				push	data_61			; PARAMETER_1 (3D48:0B68=0)
387F:0EEC  E8 0C07				call	sub_25			; (1AF6)
387F:0EEF  83 C4 02				add	sp,2
387F:0EF2  A3 0B6C				mov	data_63,ax		; (3D48:0B6C=0)
387F:0EF5  0B C0				or	ax,ax			; Zero ?
387F:0EF7  75 07				jnz	loc_67			; Jump if not zero
387F:0EF9			loc_66:						;  xref 387F:0F0F
387F:0EF9  E8 0E32				call	sub_35			; (1D2E)
387F:0EFC  E9 FEAA				jmp	loc_60			; (0DA9)
							                        ;* No entry point to code
387F:0EFF  90					nop
387F:0F00			loc_67:						;  xref 387F:0EF7
387F:0F00 ˙FF 36 0B6A				push	data_62			; PARAMETER_1 (3D48:0B6A=0)
387F:0F04  E8 0BEF				call	sub_25			; (1AF6)
387F:0F07  83 C4 02				add	sp,2
387F:0F0A  A3 0B6E				mov	data_64,ax		; (3D48:0B6E=0)
387F:0F0D  0B C0				or	ax,ax			; Zero ?
387F:0F0F  74 E8				jz	loc_66			; Jump if zero
387F:0F11  E8 0E1A				call	sub_35			; (1D2E)
387F:0F14  A1 0B6A				mov	ax,data_62		; (3D48:0B6A=0)
387F:0F17  C4 1E 0DA8				les	bx,dword ptr data_111	; (3D48:0DA8=1D08h) Load seg:offset pt
387F:0F1B  26: 89 07				mov	es:[bx],ax
387F:0F1E  A1 0B68				mov	ax,data_61		; (3D48:0B68=0)
387F:0F21  C4 1E 0DAC				les	bx,dword ptr data_112	; (3D48:0DAC=1D0Ah) Load seg:offset pt
387F:0F25  26: 89 07				mov	es:[bx],ax
387F:0F28  FF 36 0B58				push	data_53			; (3D48:0B58=0)
387F:0F2C  FF 36 0B56				push	data_52			; (3D48:0B56=0)
387F:0F30  83 3E 0B62 01			cmp	data_58,1		; (3D48:0B62=0)
387F:0F35  1B C0				sbb	ax,ax
387F:0F37  24 F0				and	al,0F0h
387F:0F39  05 0020				add	ax,20h
387F:0F3C ˙50					push	ax
387F:0F3D  B8 0873				mov	ax,873h
387F:0F40  50					push	ax
387F:0F41  E8 0D4A				call	sub_32			; (1C8E)
387F:0F44  C7 46 EA 0000			mov	word ptr [bp+LOCAL_11],0
387F:0F49			loc_68:						;  xref 387F:0DAE
387F:0F49  8B 46 EA				mov	ax,[bp+LOCAL_11]
387F:0F4C  8B E5				mov	sp,bp
387F:0F4E  5D					pop	bp
387F:0F4F  C3					retn
				sub_8		endp


				;ﬂﬂﬂﬂﬂﬂﬂﬂﬂﬂﬂﬂﬂﬂﬂﬂﬂﬂﬂﬂﬂﬂﬂﬂﬂﬂﬂﬂﬂﬂﬂﬂﬂﬂﬂﬂﬂﬂﬂﬂﬂﬂﬂﬂﬂﬂﬂﬂﬂﬂﬂﬂﬂﬂﬂﬂﬂﬂﬂﬂﬂﬂﬂﬂﬂﬂﬂﬂﬂﬂﬂﬂﬂﬂ
				;                              SUBROUTINE
				;
				;         Called from:   387F:0B6F
				;‹‹‹‹‹‹‹‹‹‹‹‹‹‹‹‹‹‹‹‹‹‹‹‹‹‹‹‹‹‹‹‹‹‹‹‹‹‹‹‹‹‹‹‹‹‹‹‹‹‹‹‹‹‹‹‹‹‹‹‹‹‹‹‹‹‹‹‹‹‹‹‹‹‹

387F:0F50			sub_9		proc	near
387F:0F50  56					push	si
387F:0F51  B8 0D0A				mov	ax,0D0Ah
387F:0F54 ˙50					push	ax			; PARAMETER_1
387F:0F55  E8 000E				call	sub_10			; (0F66)
           ml.lst          Copyright (C) 1986-1991 Phar Lap	Sourcer	v8.01   7-Sep-2022 10:02 am   Page 25

387F:0F58  83 C4 02				add	sp,2
387F:0F5B  8B F0				mov	si,ax
387F:0F5D  0B F6				or	si,si			; Zero ?
387F:0F5F  75 03				jnz	loc_69			; Jump if not zero
387F:0F61  E8 027C				call	sub_11			; (11E0)
387F:0F64			loc_69:						;  xref 387F:0F5F
387F:0F64  5E					pop	si
387F:0F65  C3					retn
				sub_9		endp


				;ﬂﬂﬂﬂﬂﬂﬂﬂﬂﬂﬂﬂﬂﬂﬂﬂﬂﬂﬂﬂﬂﬂﬂﬂﬂﬂﬂﬂﬂﬂﬂﬂﬂﬂﬂﬂﬂﬂﬂﬂﬂﬂﬂﬂﬂﬂﬂﬂﬂﬂﬂﬂﬂﬂﬂﬂﬂﬂﬂﬂﬂﬂﬂﬂﬂﬂﬂﬂﬂﬂﬂﬂﬂﬂ
				;                              SUBROUTINE
				;
				;         Called from:   387F:0F55
				;‹‹‹‹‹‹‹‹‹‹‹‹‹‹‹‹‹‹‹‹‹‹‹‹‹‹‹‹‹‹‹‹‹‹‹‹‹‹‹‹‹‹‹‹‹‹‹‹‹‹‹‹‹‹‹‹‹‹‹‹‹‹‹‹‹‹‹‹‹‹‹‹‹‹

387F:0F66			sub_10		proc	near

				PARAMETER_1	=	4			; bp+4
				LOCAL_15	=	-1Eh			; bp+0FFE2h
				LOCAL_14	=	-1Ch			; bp+0FFE4h
				LOCAL_13	=	-1Ah			; bp+0FFE6h
				LOCAL_12	=	-18h			; bp+0FFE8h
				LOCAL_11	=	-16h			; bp+0FFEAh
				LOCAL_10	=	-14h			; bp+0FFECh
				LOCAL_9		=	-12h			; bp+0FFEEh
				LOCAL_8		=	-10h			; bp+0FFF0h
				LOCAL_7		=	-0Eh			; bp+0FFF2h
				LOCAL_6		=	-0Ch			; bp+0FFF4h
				LOCAL_5		=	-0Ah			; bp+0FFF6h
				LOCAL_4		=	-8			; bp+0FFF8h
				LOCAL_3		=	-6			; bp+0FFFAh
				LOCAL_2		=	-4			; bp+0FFFCh
				LOCAL_1		=	-2			; bp+0FFFEh

387F:0F66  55					push	bp
387F:0F67  8B EC				mov	bp,sp
387F:0F69  81 EC 0232				sub	sp,232h
387F:0F6D  C7 46 FC FFFA			mov	word ptr [bp+LOCAL_2],0FFFAh
387F:0F72  8B 5E 04				mov	bx,[bp+PARAMETER_1]
387F:0F75  2B C0				sub	ax,ax
387F:0F77  89 47 02				mov	[bx+2],ax
387F:0F7A  89 07				mov	[bx],ax
387F:0F7C ˙50					push	ax			; PARAMETER_2
387F:0F7D  50					push	ax			; PARAMETER_1
387F:0F7E  E8 0CC1				call	sub_30			; (1C42)
387F:0F81  83 C4 04				add	sp,4
387F:0F84  0B C0				or	ax,ax			; Zero ?
387F:0F86  74 03				jz	loc_70			; Jump if zero
387F:0F88  E9 024E				jmp	loc_92			; (11D9)
387F:0F8B			loc_70:						;  xref 387F:0F86
387F:0F8B  B8 0002				mov	ax,2
387F:0F8E ˙50					push	ax			; PARAMETER_2
387F:0F8F  8D 4E FE				lea	cx,[bp+LOCAL_1]		; Load effective addr
387F:0F92  51					push	cx			; PARAMETER_1
387F:0F93  E8 0C80				call	sub_29			; (1C16)
           ml.lst          Copyright (C) 1986-1991 Phar Lap	Sourcer	v8.01   7-Sep-2022 10:02 am   Page 26

387F:0F96  83 C4 04				add	sp,4
387F:0F99  3D 0002				cmp	ax,2
387F:0F9C  74 03				je	loc_71			; Jump if equal
387F:0F9E  E9 0238				jmp	loc_92			; (11D9)
387F:0FA1			loc_71:						;  xref 387F:0F9C
387F:0FA1 ˙FF 76 FE				push	word ptr [bp+LOCAL_1]
387F:0FA4  B8 0897				mov	ax,897h
387F:0FA7  50					push	ax
387F:0FA8  E8 0CE3				call	sub_32			; (1C8E)
387F:0FAB  83 C4 04				add	sp,4
387F:0FAE  8B 46 FE				mov	ax,[bp+LOCAL_1]
387F:0FB1  2D 3350				sub	ax,3350h
387F:0FB4  75 03				jnz	loc_72			; Jump if not zero
387F:0FB6  E9 00DB				jmp	loc_81			; (1094)
387F:0FB9			loc_72:						;  xref 387F:0FB4
387F:0FB9  2D 26FD				sub	ax,26FDh
387F:0FBC  74 03				jz	loc_73			; Jump if zero
387F:0FBE  E9 0218				jmp	loc_92			; (11D9)
387F:0FC1			loc_73:						;  xref 387F:0FBC
387F:0FC1  2B C0				sub	ax,ax
387F:0FC3 ˙50					push	ax			; PARAMETER_2
387F:0FC4  50					push	ax			; PARAMETER_1
387F:0FC5  E8 0C7A				call	sub_30			; (1C42)
387F:0FC8  83 C4 04				add	sp,4
387F:0FCB  0B C0				or	ax,ax			; Zero ?
387F:0FCD  74 03				jz	loc_74			; Jump if zero
387F:0FCF  E9 0207				jmp	loc_92			; (11D9)
387F:0FD2			loc_74:						;  xref 387F:0FCD
387F:0FD2  B8 001E				mov	ax,1Eh
387F:0FD5 ˙50					push	ax			; PARAMETER_2
387F:0FD6  8D 86 FDCE				lea	ax,cs:[0FDCEh][bp]	; Load effective addr
387F:0FDA  50					push	ax			; PARAMETER_1
387F:0FDB  E8 0C38				call	sub_29			; (1C16)
387F:0FDE  83 C4 04				add	sp,4
387F:0FE1  3D 001E				cmp	ax,1Eh
387F:0FE4  74 03				je	loc_75			; Jump if equal
387F:0FE6  E9 01F0				jmp	loc_92			; (11D9)
387F:0FE9			loc_75:						;  xref 387F:0FE4
387F:0FE9  8D 86 FDCE				lea	ax,cs:[0FDCEh][bp]	; Load effective addr
387F:0FED ˙50					push	ax			; PARAMETER_1
387F:0FEE  E8 06A3				call	sub_13			; (1694)
387F:0FF1  83 C4 02				add	sp,2
387F:0FF4  8B 5E 04				mov	bx,[bp+PARAMETER_1]
387F:0FF7  89 07				mov	[bx],ax
387F:0FF9  89 57 02				mov	[bx+2],dx
387F:0FFC  52					push	dx
387F:0FFD ˙FF 37				push	word ptr [bx]
387F:0FFF  B8 08A9				mov	ax,8A9h
387F:1002  50					push	ax
387F:1003  E8 0C88				call	sub_32			; (1C8E)
387F:1006  83 C4 06				add	sp,6
387F:1009  8B 5E 04				mov	bx,[bp+PARAMETER_1]
387F:100C ˙FF 77 02				push	word ptr [bx+2]		; PARAMETER_2
387F:100F  FF 37				push	word ptr [bx]		; PARAMETER_1
387F:1011  E8 0C2E				call	sub_30			; (1C42)
387F:1014  83 C4 04				add	sp,4
387F:1017  0B C0				or	ax,ax			; Zero ?
           ml.lst          Copyright (C) 1986-1991 Phar Lap	Sourcer	v8.01   7-Sep-2022 10:02 am   Page 27

387F:1019  74 03				jz	loc_76			; Jump if zero
387F:101B  E9 01BB				jmp	loc_92			; (11D9)
387F:101E			loc_76:						;  xref 387F:1019
387F:101E  B8 000E				mov	ax,0Eh
387F:1021 ˙50					push	ax			; PARAMETER_2
387F:1022  8D 46 EE				lea	ax,[bp+LOCAL_9]		; Load effective addr
387F:1025  50					push	ax			; PARAMETER_1
387F:1026  E8 0BED				call	sub_29			; (1C16)
387F:1029  83 C4 04				add	sp,4
387F:102C  3D 000E				cmp	ax,0Eh
387F:102F  74 03				je	loc_77			; Jump if equal
387F:1031  E9 01A5				jmp	loc_92			; (11D9)
387F:1034			loc_77:						;  xref 387F:102F
387F:1034  81 7E EE 5953			cmp	word ptr [bp+LOCAL_9],5953h
387F:1039  75 21				jne	loc_78			; Jump if not equal
387F:103B  81 7E F0 314D			cmp	word ptr [bp+LOCAL_8],314Dh
387F:1040  75 1A				jne	loc_78			; Jump if not equal
387F:1042  8B 46 F4				mov	ax,[bp+LOCAL_6]
387F:1045  8B 56 F6				mov	dx,[bp+LOCAL_5]
387F:1048  03 46 F2				add	ax,[bp+LOCAL_7]
387F:104B  83 D2 00				adc	dx,0
387F:104E  03 46 F8				add	ax,[bp+LOCAL_4]
387F:1051  13 56 FA				adc	dx,[bp+LOCAL_3]
387F:1054  8B 5E 04				mov	bx,[bp+PARAMETER_1]
387F:1057  01 07				add	[bx],ax
387F:1059  11 57 02				adc	[bx+2],dx
387F:105C			loc_78:						;  xref 387F:1039, 1040
387F:105C  8B 5E 04				mov	bx,[bp+PARAMETER_1]
387F:105F ˙FF 77 02				push	word ptr [bx+2]		; PARAMETER_2
387F:1062  FF 37				push	word ptr [bx]		; PARAMETER_1
387F:1064  E8 0BDB				call	sub_30			; (1C42)
387F:1067  83 C4 04				add	sp,4
387F:106A  0B C0				or	ax,ax			; Zero ?
387F:106C  74 03				jz	loc_79			; Jump if zero
387F:106E  E9 0168				jmp	loc_92			; (11D9)
387F:1071			loc_79:						;  xref 387F:106C
387F:1071  B8 0002				mov	ax,2
387F:1074 ˙50					push	ax			; PARAMETER_2
387F:1075  8D 4E FE				lea	cx,[bp+LOCAL_1]		; Load effective addr
387F:1078  51					push	cx			; PARAMETER_1
387F:1079  E8 0B9A				call	sub_29			; (1C16)
387F:107C  83 C4 04				add	sp,4
387F:107F  3D 0002				cmp	ax,2
387F:1082  74 03				je	loc_80			; Jump if equal
387F:1084  E9 0152				jmp	loc_92			; (11D9)
387F:1087			loc_80:						;  xref 387F:1082
387F:1087 ˙FF 76 FE				push	word ptr [bp+LOCAL_1]
387F:108A  B8 08BC				mov	ax,8BCh
387F:108D  50					push	ax
387F:108E  E8 0BFD				call	sub_32			; (1C8E)
387F:1091  83 C4 04				add	sp,4
387F:1094			loc_81:						;  xref 387F:0FB6
387F:1094  8B 5E 04				mov	bx,[bp+PARAMETER_1]
387F:1097 ˙FF 77 02				push	word ptr [bx+2]		; PARAMETER_2
387F:109A  FF 37				push	word ptr [bx]		; PARAMETER_1
387F:109C  E8 0BA3				call	sub_30			; (1C42)
387F:109F  83 C4 04				add	sp,4
           ml.lst          Copyright (C) 1986-1991 Phar Lap	Sourcer	v8.01   7-Sep-2022 10:02 am   Page 28

387F:10A2  0B C0				or	ax,ax			; Zero ?
387F:10A4  74 03				jz	loc_82			; Jump if zero
387F:10A6  E9 0130				jmp	loc_92			; (11D9)
387F:10A9			loc_82:						;  xref 387F:10A4
387F:10A9  B8 0080				mov	ax,80h
387F:10AC ˙50					push	ax			; PARAMETER_2
387F:10AD  B8 0D1A				mov	ax,0D1Ah
387F:10B0  50					push	ax			; PARAMETER_1
387F:10B1  E8 0B62				call	sub_29			; (1C16)
387F:10B4  83 C4 04				add	sp,4
387F:10B7  3D 0080				cmp	ax,80h
387F:10BA  74 03				je	loc_83			; Jump if equal
387F:10BC  E9 011A				jmp	loc_92			; (11D9)
387F:10BF			loc_83:						;  xref 387F:10BA
387F:10BF  B8 08D6				mov	ax,8D6h
387F:10C2  50					push	ax
387F:10C3  E8 0BC8				call	sub_32			; (1C8E)
387F:10C6  83 C4 02				add	sp,2
387F:10C9  81 3E 0D1A 3350			cmp	data_84,3350h		; (3D48:0D1A=0)
387F:10CF  74 0D				je	loc_85			; Jump if equal
387F:10D1  B8 08F9				mov	ax,8F9h
387F:10D4			loc_84:						;  xref 387F:11A7, 11B4, 11C3, 11D0
387F:10D4 ˙50					push	ax
387F:10D5  E8 0BB6				call	sub_32			; (1C8E)
387F:10D8  83 C4 02				add	sp,2
387F:10DB  E9 00FB				jmp	loc_92			; (11D9)
387F:10DE			loc_85:						;  xref 387F:10CF
387F:10DE  8B 5E 04				mov	bx,[bp+PARAMETER_1]
387F:10E1  8B 07				mov	ax,[bx]
387F:10E3  8B 57 02				mov	dx,[bx+2]
387F:10E6  03 06 0D40				add	ax,data_89		; (3D48:0D40=0)
387F:10EA  13 16 0D42				adc	dx,data_90		; (3D48:0D42=0)
387F:10EE ˙52					push	dx			; PARAMETER_2
387F:10EF  50					push	ax			; PARAMETER_1
387F:10F0  E8 0B4F				call	sub_30			; (1C42)
387F:10F3  83 C4 04				add	sp,4
387F:10F6  0B C0				or	ax,ax			; Zero ?
387F:10F8  74 03				jz	loc_86			; Jump if zero
387F:10FA  E9 00DC				jmp	loc_92			; (11D9)
387F:10FD			loc_86:						;  xref 387F:10F8
387F:10FD  B8 0200				mov	ax,200h
387F:1100 ˙50					push	ax			; PARAMETER_2
387F:1101  8D 86 FDEE				lea	ax,cs:[0FDEEh][bp]	; Load effective addr
387F:1105  50					push	ax			; PARAMETER_1
387F:1106  E8 0B0D				call	sub_29			; (1C16)
387F:1109  83 C4 04				add	sp,4
387F:110C  3D 0200				cmp	ax,200h
387F:110F  74 03				je	loc_87			; Jump if equal
387F:1111  E9 00C5				jmp	loc_92			; (11D9)
387F:1114			loc_87:						;  xref 387F:110F
387F:1114  8D 86 FDEE				lea	ax,cs:[0FDEEh][bp]	; Load effective addr
387F:1118 ˙50					push	ax
387F:1119  B8 090E				mov	ax,90Eh
387F:111C  50					push	ax
387F:111D  E8 0B6E				call	sub_32			; (1C8E)
387F:1120  83 C4 04				add	sp,4
387F:1123 ˙FF B6 FE26				push	word ptr [bp-1DAh]
           ml.lst          Copyright (C) 1986-1991 Phar Lap	Sourcer	v8.01   7-Sep-2022 10:02 am   Page 29

387F:1127  B8 091E				mov	ax,91Eh
387F:112A  50					push	ax
387F:112B  E8 0B60				call	sub_32			; (1C8E)
387F:112E  83 C4 04				add	sp,4
387F:1131  B8 4150				mov	ax,4150h
387F:1134 ˙50					push	ax
387F:1135  B8 093E				mov	ax,93Eh
387F:1138  50					push	ax
387F:1139  E8 0B52				call	sub_32			; (1C8E)
387F:113C  83 C4 04				add	sp,4
387F:113F  81 BE FE26 4150			cmp	word ptr [bp-1DAh],4150h
387F:1145  75 63				jne	loc_88			; Jump if not equal
387F:1147  8B 5E 04				mov	bx,[bp+PARAMETER_1]
387F:114A  FF 77 02				push	word ptr [bx+2]
387F:114D ˙FF 37				push	word ptr [bx]
387F:114F  B8 0955				mov	ax,955h
387F:1152  50					push	ax
387F:1153  E8 0B38				call	sub_32			; (1C8E)
387F:1156  83 C4 06				add	sp,6
387F:1159  A1 0D20				mov	ax,data_87		; (3D48:0D20=0)
387F:115C  8B 16 0D22				mov	dx,data_88		; (3D48:0D22=0)
387F:1160  8B 5E 04				mov	bx,[bp+PARAMETER_1]
387F:1163  01 07				add	[bx],ax
387F:1165  11 57 02				adc	[bx+2],dx
387F:1168  FF 77 02				push	word ptr [bx+2]
387F:116B ˙FF 37				push	word ptr [bx]
387F:116D  B8 0972				mov	ax,972h
387F:1170  50					push	ax
387F:1171  E8 0B1A				call	sub_32			; (1C8E)
387F:1174  83 C4 06				add	sp,6
387F:1177  8B 5E 04				mov	bx,[bp+PARAMETER_1]
387F:117A ˙FF 77 02				push	word ptr [bx+2]		; PARAMETER_2
387F:117D  FF 37				push	word ptr [bx]		; PARAMETER_1
387F:117F  E8 0AC0				call	sub_30			; (1C42)
387F:1182  83 C4 04				add	sp,4
387F:1185  0B C0				or	ax,ax			; Zero ?
387F:1187  75 50				jnz	loc_92			; Jump if not zero
387F:1189  B8 0080				mov	ax,80h
387F:118C ˙50					push	ax			; PARAMETER_2
387F:118D  B8 0D1A				mov	ax,0D1Ah
387F:1190  50					push	ax			; PARAMETER_1
387F:1191  E8 0A82				call	sub_29			; (1C16)
387F:1194  83 C4 04				add	sp,4
387F:1197  3D 0080				cmp	ax,80h
387F:119A  75 3D				jne	loc_92			; Jump if not equal
387F:119C  81 3E 0D1A 3350			cmp	data_84,3350h		; (3D48:0D1A=0)
387F:11A2  74 06				je	loc_88			; Jump if equal
387F:11A4  B8 098C				mov	ax,98Ch
387F:11A7  E9 FF2A				jmp	loc_84			; (10D4)
387F:11AA			loc_88:						;  xref 387F:1145, 11A2
387F:11AA  83 3E 0D1C 01			cmp	data_85,1		; (3D48:0D1C=0)
387F:11AF  74 07				je	loc_89			; Jump if equal
387F:11B1  B8 09A1				mov	ax,9A1h
387F:11B4  E9 FF1D				jmp	loc_84			; (10D4)
387F:11B7  90					db	90h
387F:11B8			loc_89:						;  xref 387F:11AF
387F:11B8  81 3E 0D1E 0080			cmp	data_86,80h		; (3D48:0D1E=0)
           ml.lst          Copyright (C) 1986-1991 Phar Lap	Sourcer	v8.01   7-Sep-2022 10:02 am   Page 30

387F:11BE  73 06				jae	loc_90			; Jump if above or =
387F:11C0  B8 09C6				mov	ax,9C6h
387F:11C3  E9 FF0E				jmp	loc_84			; (10D4)
387F:11C6			loc_90:						;  xref 387F:11BE
387F:11C6  F6 06 0D8C 01			test	byte ptr data_103,1	; (3D48:0D8C=0)
387F:11CB  74 07				jz	loc_91			; Jump if zero
387F:11CD  B8 09D8				mov	ax,9D8h
387F:11D0  E9 FF01				jmp	loc_84			; (10D4)
387F:11D3  90					db	90h
387F:11D4			loc_91:						;  xref 387F:11CB
387F:11D4  C7 46 FC 0000			mov	word ptr [bp+LOCAL_2],0
387F:11D9			loc_92:						;  xref 387F:0F88, 0F9E, 0FBE, 0FCF
										;            0FE6, 101B, 1031, 106E
										;            1084, 10A6, 10BC, 10DB
										;            10FA, 1111, 1187, 119A
387F:11D9  8B 46 FC				mov	ax,[bp+LOCAL_2]
387F:11DC  8B E5				mov	sp,bp
387F:11DE  5D					pop	bp
387F:11DF  C3					retn
				sub_10		endp


				;ﬂﬂﬂﬂﬂﬂﬂﬂﬂﬂﬂﬂﬂﬂﬂﬂﬂﬂﬂﬂﬂﬂﬂﬂﬂﬂﬂﬂﬂﬂﬂﬂﬂﬂﬂﬂﬂﬂﬂﬂﬂﬂﬂﬂﬂﬂﬂﬂﬂﬂﬂﬂﬂﬂﬂﬂﬂﬂﬂﬂﬂﬂﬂﬂﬂﬂﬂﬂﬂﬂﬂﬂﬂﬂ
				;                              SUBROUTINE
				;
				;         Called from:   387F:0F61
				;‹‹‹‹‹‹‹‹‹‹‹‹‹‹‹‹‹‹‹‹‹‹‹‹‹‹‹‹‹‹‹‹‹‹‹‹‹‹‹‹‹‹‹‹‹‹‹‹‹‹‹‹‹‹‹‹‹‹‹‹‹‹‹‹‹‹‹‹‹‹‹‹‹‹

387F:11E0			sub_11		proc	near

				LOCAL_15	=	-1Eh			; bp+0FFE2h
				LOCAL_14	=	-1Ch			; bp+0FFE4h
				LOCAL_13	=	-1Ah			; bp+0FFE6h
				LOCAL_12	=	-18h			; bp+0FFE8h
				LOCAL_11	=	-16h			; bp+0FFEAh
				LOCAL_10	=	-14h			; bp+0FFECh
				LOCAL_9		=	-12h			; bp+0FFEEh
				LOCAL_8		=	-10h			; bp+0FFF0h
				LOCAL_7		=	-0Eh			; bp+0FFF2h
				LOCAL_6		=	-0Ch			; bp+0FFF4h
				LOCAL_5		=	-0Ah			; bp+0FFF6h
				LOCAL_4		=	-8			; bp+0FFF8h
				LOCAL_3		=	-6			; bp+0FFFAh
				LOCAL_2		=	-4			; bp+0FFFCh
				LOCAL_1		=	-2			; bp+0FFFEh

387F:11E0  55					push	bp
387F:11E1  8B EC				mov	bp,sp
387F:11E3  83 EC 70				sub	sp,70h
387F:11E6  A0 0B68				mov	al,byte ptr data_61	; (3D48:0B68=0)
387F:11E9  25 0003				and	ax,3
387F:11EC  89 46 94				mov	[bp-6Ch],ax
387F:11EF  E8 0B1A				call	sub_34			; (1D0C)
387F:11F2  A1 0D78				mov	ax,data_97		; (3D48:0D78=0)
387F:11F5  8B 16 0D7A				mov	dx,data_98		; (3D48:0D7A=0)
387F:11F9  89 46 F0				mov	[bp+LOCAL_8],ax
387F:11FC  89 56 F2				mov	[bp+LOCAL_7],dx
           ml.lst          Copyright (C) 1986-1991 Phar Lap	Sourcer	v8.01   7-Sep-2022 10:02 am   Page 31

387F:11FF  A1 0D44				mov	ax,data_91		; (3D48:0D44=0)
387F:1202  8B 16 0D46				mov	dx,data_92		; (3D48:0D46=0)
387F:1206  89 46 96				mov	[bp-6Ah],ax
387F:1209  89 56 98				mov	[bp-68h],dx
387F:120C  A1 0D70				mov	ax,data_93		; (3D48:0D70=0)
387F:120F  8B 16 0D72				mov	dx,data_94		; (3D48:0D72=0)
387F:1213  89 46 90				mov	[bp-70h],ax
387F:1216  89 56 92				mov	[bp-6Eh],dx
387F:1219  8D 46 9E				lea	ax,[bp-62h]		; Load effective addr
387F:121C ˙50					push	ax			; PARAMETER_1
387F:121D  E8 0E2F				call	sub_49			; (204F)
387F:1220  83 C4 02				add	sp,2
387F:1223  0B C0				or	ax,ax			; Zero ?
387F:1225  75 51				jnz	loc_95			; Jump if not zero
387F:1227  8B 46 90				mov	ax,[bp-70h]
387F:122A  8B 56 92				mov	dx,[bp-6Eh]
387F:122D  03 46 96				add	ax,[bp-6Ah]
387F:1230  13 56 98				adc	dx,[bp-68h]
387F:1233  03 46 F0				add	ax,[bp+LOCAL_8]
387F:1236  13 56 F2				adc	dx,[bp+LOCAL_7]
387F:1239  3B 56 A0				cmp	dx,[bp-60h]
387F:123C  77 3A				ja	loc_95			; Jump if above
387F:123E  72 05				jc	loc_93			; Jump if carry Set
387F:1240  3B 46 9E				cmp	ax,[bp-62h]
387F:1243  73 33				jae	loc_95			; Jump if above or =
387F:1245			loc_93:						;  xref 387F:123E
387F:1245  8B 46 9E				mov	ax,[bp-62h]
387F:1248  8B 56 A0				mov	dx,[bp-60h]
387F:124B  2B 46 96				sub	ax,[bp-6Ah]
387F:124E  1B 56 98				sbb	dx,[bp-68h]
387F:1251  2B 46 F0				sub	ax,[bp+LOCAL_8]
387F:1254  1B 56 F2				sbb	dx,[bp+LOCAL_7]
387F:1257  89 46 90				mov	[bp-70h],ax
387F:125A  89 56 92				mov	[bp-6Eh],dx
387F:125D  3B 16 0D76				cmp	dx,data_96		; (3D48:0D76=0)
387F:1261  72 15				jb	loc_95			; Jump if below
387F:1263  77 06				ja	loc_94			; Jump if above
387F:1265  3B 06 0D74				cmp	ax,data_95		; (3D48:0D74=0)
387F:1269  76 0D				jbe	loc_95			; Jump if below or =
387F:126B			loc_94:						;  xref 387F:1263
387F:126B  A1 0D74				mov	ax,data_95		; (3D48:0D74=0)
387F:126E  8B 16 0D76				mov	dx,data_96		; (3D48:0D76=0)
387F:1272  89 46 90				mov	[bp-70h],ax
387F:1275  89 56 92				mov	[bp-6Eh],dx
387F:1278			loc_95:						;  xref 387F:1225, 123C, 1243, 1261
										;            1269
387F:1278  8B 46 96				mov	ax,[bp-6Ah]
387F:127B  8B 56 98				mov	dx,[bp-68h]
387F:127E  03 46 F0				add	ax,[bp+LOCAL_8]
387F:1281  13 56 F2				adc	dx,[bp+LOCAL_7]
387F:1284  83 FA 10				cmp	dx,10h
387F:1287  77 51				ja	loc_98			; Jump if above
387F:1289  73 4F				jnc	loc_98			; Jump if carry=0
387F:128B  8B 46 90				mov	ax,[bp-70h]
387F:128E  8B 56 92				mov	dx,[bp-6Eh]
387F:1291  03 46 96				add	ax,[bp-6Ah]
387F:1294  13 56 98				adc	dx,[bp-68h]
           ml.lst          Copyright (C) 1986-1991 Phar Lap	Sourcer	v8.01   7-Sep-2022 10:02 am   Page 32

387F:1297  03 46 F0				add	ax,[bp+LOCAL_8]
387F:129A  13 56 F2				adc	dx,[bp+LOCAL_7]
387F:129D  83 FA 10				cmp	dx,10h
387F:12A0  72 38				jb	loc_98			; Jump if below
387F:12A2  77 04				ja	loc_96			; Jump if above
387F:12A4  0B C0				or	ax,ax			; Zero ?
387F:12A6  74 32				jz	loc_98			; Jump if zero
387F:12A8			loc_96:						;  xref 387F:12A2
387F:12A8  2B C0				sub	ax,ax
387F:12AA  BA 0010				mov	dx,10h
387F:12AD  2B 46 96				sub	ax,[bp-6Ah]
387F:12B0  1B 56 98				sbb	dx,[bp-68h]
387F:12B3  2B 46 F0				sub	ax,[bp+LOCAL_8]
387F:12B6  1B 56 F2				sbb	dx,[bp+LOCAL_7]
387F:12B9  89 46 90				mov	[bp-70h],ax
387F:12BC  89 56 92				mov	[bp-6Eh],dx
387F:12BF  3B 16 0D72				cmp	dx,data_94		; (3D48:0D72=0)
387F:12C3  77 15				ja	loc_98			; Jump if above
387F:12C5  72 06				jc	loc_97			; Jump if carry Set
387F:12C7  3B 06 0D70				cmp	ax,data_93		; (3D48:0D70=0)
387F:12CB  73 0D				jae	loc_98			; Jump if above or =
387F:12CD			loc_97:						;  xref 387F:12C5
387F:12CD  A1 0D70				mov	ax,data_93		; (3D48:0D70=0)
387F:12D0  8B 16 0D72				mov	dx,data_94		; (3D48:0D72=0)
387F:12D4  89 46 90				mov	[bp-70h],ax
387F:12D7  89 56 92				mov	[bp-6Eh],dx
387F:12DA			loc_98:						;  xref 387F:1287, 1289, 12A0, 12A6
										;            12C3, 12CB
387F:12DA  E8 0A51				call	sub_35			; (1D2E)
387F:12DD  FF 76 92				push	word ptr [bp-6Eh]
387F:12E0  FF 76 90				push	word ptr [bp-70h]
387F:12E3  FF 76 98				push	word ptr [bp-68h]
387F:12E6  FF 76 96				push	word ptr [bp-6Ah]
387F:12E9  FF 76 F2				push	word ptr [bp+LOCAL_7]
387F:12EC ˙FF 76 F0				push	word ptr [bp+LOCAL_8]
387F:12EF  B8 09F5				mov	ax,9F5h
387F:12F2  50					push	ax
387F:12F3  E8 0998				call	sub_32			; (1C8E)
387F:12F6  83 C4 0E				add	sp,0Eh
387F:12F9  8B 46 90				mov	ax,[bp-70h]
387F:12FC  8B 56 92				mov	dx,[bp-6Eh]
387F:12FF  03 46 96				add	ax,[bp-6Ah]
387F:1302  13 56 98				adc	dx,[bp-68h]
387F:1305  03 46 F0				add	ax,[bp+LOCAL_8]
387F:1308  13 56 F2				adc	dx,[bp+LOCAL_7]
387F:130B  89 46 CE				mov	[bp-32h],ax
387F:130E  89 56 D0				mov	[bp-30h],dx
387F:1311  52					push	dx
387F:1312 ˙50					push	ax
387F:1313  B9 0A30				mov	cx,0A30h
387F:1316  51					push	cx
387F:1317  E8 0974				call	sub_32			; (1C8E)
387F:131A  83 C4 06				add	sp,6
387F:131D  E8 09EC				call	sub_34			; (1D0C)
387F:1320  E8 0A0B				call	sub_35			; (1D2E)
387F:1323  FF 76 F6				push	word ptr [bp+LOCAL_5]
387F:1326 ˙FF 76 F4				push	word ptr [bp+LOCAL_6]
           ml.lst          Copyright (C) 1986-1991 Phar Lap	Sourcer	v8.01   7-Sep-2022 10:02 am   Page 33

387F:1329  B8 0A44				mov	ax,0A44h
387F:132C  50					push	ax
387F:132D  E8 095E				call	sub_32			; (1C8E)
387F:1330  83 C4 06				add	sp,6
387F:1333  E8 09D6				call	sub_34			; (1D0C)
387F:1336  E8 09F5				call	sub_35			; (1D2E)
387F:1339  B8 0D9E				mov	ax,0D9Eh
387F:133C ˙50					push	ax			; PARAMETER_6
387F:133D  2B C0				sub	ax,ax
387F:133F  50					push	ax			; PARAMETER_5
387F:1340  B8 0040				mov	ax,40h
387F:1343  50					push	ax			; PARAMETER_4
387F:1344  B8 009A				mov	ax,9Ah
387F:1347  50					push	ax			; PARAMETER_3
387F:1348  FF 76 D0				push	word ptr [bp-30h]	; PARAMETER_2
387F:134B  FF 76 CE				push	word ptr [bp-32h]	; PARAMETER_1
387F:134E  E8 05E9				call	sub_23			; (193A)
387F:1351  83 C4 0C				add	sp,0Ch
387F:1354  A3 0D9A				mov	data_104,ax		; (3D48:0D9A=0)
387F:1357  E8 09B2				call	sub_34			; (1D0C)
387F:135A  83 3E 0D9A 00			cmp	data_104,0		; (3D48:0D9A=0)
387F:135F  75 03				jne	loc_99			; Jump if not equal
387F:1361  E9 00DD				jmp	loc_105			; (1441)
387F:1364			loc_99:						;  xref 387F:135F
387F:1364 ˙FF 36 0D9A				push	data_104		; PARAMETER_1 (3D48:0D9A=0)
387F:1368  E8 07E7				call	sub_26			; (1B52)
387F:136B  83 C4 02				add	sp,2
387F:136E  A3 0D9C				mov	data_105,ax		; (3D48:0D9C=0)
387F:1371  0B C0				or	ax,ax			; Zero ?
387F:1373  75 0B				jnz	loc_100			; Jump if not zero
387F:1375 ˙FF 36 0D9A				push	data_104		; PARAMETER_1 (3D48:0D9A=0)
387F:1379  E8 074E				call	sub_24			; (1ACA)
387F:137C  E9 00BF				jmp	loc_104			; (143E)
387F:137F  90					db	90h
387F:1380			loc_100:					;  xref 387F:1373
387F:1380  E8 09AB				call	sub_35			; (1D2E)
387F:1383  FF 36 0D9C				push	data_105		; (3D48:0D9C=0)
387F:1387 ˙FF 36 0D9A				push	data_104		; (3D48:0D9A=0)
387F:138B  B8 0A68				mov	ax,0A68h
387F:138E  50					push	ax
387F:138F  E8 08FC				call	sub_32			; (1C8E)
387F:1392  83 C4 06				add	sp,6
387F:1395  E8 0974				call	sub_34			; (1D0C)
387F:1398 ˙FF 36 0DA0				push	data_107		; PARAMETER_3 (3D48:0DA0=0)
387F:139C  FF 36 0D9E				push	data_106		; PARAMETER_2 (3D48:0D9E=0)
387F:13A0  FF 36 0D9A				push	data_104		; PARAMETER_1 (3D48:0D9A=0)
387F:13A4  E8 03C3				call	sub_17			; (176A)
387F:13A7  83 C4 06				add	sp,6
387F:13AA  FF 36 0D9A				push	data_104		; (3D48:0D9A=0)
387F:13AE  FF 36 0DA0				push	data_107		; (3D48:0DA0=0)
387F:13B2 ˙FF 36 0D9E				push	data_106		; PARAMETER_2 (3D48:0D9E=0)
387F:13B6  FF 36 0D9C				push	data_105		; PARAMETER_1 (3D48:0D9C=0)
387F:13BA  E8 03FB				call	sub_19			; (17B8)
387F:13BD  83 C4 08				add	sp,8
387F:13C0  E8 096B				call	sub_35			; (1D2E)
387F:13C3  B8 0A90				mov	ax,0A90h
387F:13C6  50					push	ax
           ml.lst          Copyright (C) 1986-1991 Phar Lap	Sourcer	v8.01   7-Sep-2022 10:02 am   Page 34

387F:13C7  E8 08C4				call	sub_32			; (1C8E)
387F:13CA  83 C4 02				add	sp,2
387F:13CD  E8 093C				call	sub_34			; (1D0C)
387F:13D0  A1 0D9C				mov	ax,data_105		; (3D48:0D9C=0)
387F:13D3  89 46 FC				mov	[bp+LOCAL_2],ax
387F:13D6  2B C0				sub	ax,ax
387F:13D8  89 46 FA				mov	[bp+LOCAL_3],ax
387F:13DB  89 46 F8				mov	[bp+LOCAL_4],ax
387F:13DE  39 46 F2				cmp	[bp+LOCAL_7],ax
387F:13E1  75 05				jne	loc_101			; Jump if not equal
387F:13E3  39 46 F0				cmp	[bp+LOCAL_8],ax
387F:13E6  74 1D				je	loc_102			; Jump if equal
387F:13E8			loc_101:					;  xref 387F:13E1
387F:13E8  50					push	ax
387F:13E9  FF 76 F2				push	word ptr [bp+LOCAL_7]
387F:13EC  FF 76 F0				push	word ptr [bp+LOCAL_8]
387F:13EF  8D 46 F8				lea	ax,[bp+LOCAL_4]		; Load effective addr
387F:13F2  50					push	ax
387F:13F3  E8 0A0D				call	sub_40			; (1E03)
387F:13F6  83 C4 08				add	sp,8
387F:13F9  8B 46 F0				mov	ax,[bp+LOCAL_8]
387F:13FC  8B 56 F2				mov	dx,[bp+LOCAL_7]
387F:13FF  01 46 F8				add	[bp+LOCAL_4],ax
387F:1402  11 56 FA				adc	[bp+LOCAL_3],dx
387F:1405			loc_102:					;  xref 387F:13E6
387F:1405  E8 0926				call	sub_35			; (1D2E)
387F:1408  A1 0D40				mov	ax,data_89		; (3D48:0D40=0)
387F:140B  8B 16 0D42				mov	dx,data_90		; (3D48:0D42=0)
387F:140F  03 06 0D0A				add	ax,data_81		; (3D48:0D0A=0)
387F:1413  13 16 0D0C				adc	dx,data_82		; (3D48:0D0C=0)
387F:1417 ˙52					push	dx			; PARAMETER_2
387F:1418  50					push	ax			; PARAMETER_1
387F:1419  E8 0826				call	sub_30			; (1C42)
387F:141C  83 C4 04				add	sp,4
387F:141F  0B C0				or	ax,ax			; Zero ?
387F:1421  74 29				jz	loc_106			; Jump if zero
387F:1423			loc_103:					;  xref 387F:146D
387F:1423  E8 08E6				call	sub_34			; (1D0C)
387F:1426  8B 46 94				mov	ax,[bp-6Ch]
387F:1429  03 06 0D9C				add	ax,data_105		; (3D48:0D9C=0)
387F:142D ˙50					push	ax			; PARAMETER_1
387F:142E  E8 03DD				call	sub_20			; (180E)
387F:1431  83 C4 02				add	sp,2
387F:1434  A1 0D9A				mov	ax,data_104		; (3D48:0D9A=0)
387F:1437  03 46 94				add	ax,[bp-6Ch]
387F:143A ˙50					push	ax			; PARAMETER_1
387F:143B  E8 04CE				call	sub_22			; (190C)
387F:143E			loc_104:					;  xref 387F:137C
387F:143E  83 C4 02				add	sp,2
387F:1441			loc_105:					;  xref 387F:1361
387F:1441  E8 08EA				call	sub_35			; (1D2E)
387F:1444  C7 46 FE FFF4			mov	word ptr [bp+LOCAL_1],0FFF4h
387F:1449  E9 0178				jmp	loc_113			; (15C4)
387F:144C			loc_106:					;  xref 387F:1421
387F:144C  B8 0ACE				mov	ax,0ACEh
387F:144F  50					push	ax
387F:1450  E8 083B				call	sub_32			; (1C8E)
           ml.lst          Copyright (C) 1986-1991 Phar Lap	Sourcer	v8.01   7-Sep-2022 10:02 am   Page 35

387F:1453  83 C4 02				add	sp,2
387F:1456 ˙FF 76 98				push	word ptr [bp-68h]	; PARAMETER_5
387F:1459  FF 76 96				push	word ptr [bp-6Ah]	; PARAMETER_4
387F:145C  FF 76 FC				push	word ptr [bp+LOCAL_2]	; PARAMETER_3
387F:145F  FF 76 FA				push	word ptr [bp+LOCAL_3]	; PARAMETER_2
387F:1462  FF 76 F8				push	word ptr [bp+LOCAL_4]	; PARAMETER_1
387F:1465  E8 0164				call	sub_12			; (15CC)
387F:1468  83 C4 0A				add	sp,0Ah
387F:146B  0B C0				or	ax,ax			; Zero ?
387F:146D  75 B4				jnz	loc_103			; Jump if not zero
387F:146F  B8 0AEA				mov	ax,0AEAh
387F:1472  50					push	ax
387F:1473  E8 0818				call	sub_32			; (1C8E)
387F:1476  83 C4 02				add	sp,2
387F:1479  8B 46 96				mov	ax,[bp-6Ah]
387F:147C  8B 56 98				mov	dx,[bp-68h]
387F:147F  01 46 F8				add	[bp+LOCAL_4],ax
387F:1482  11 56 FA				adc	[bp+LOCAL_3],dx
387F:1485  83 7E 92 00				cmp	word ptr [bp-6Eh],0
387F:1489  75 06				jne	loc_107			; Jump if not equal
387F:148B  83 7E 90 00				cmp	word ptr [bp-70h],0
387F:148F  74 7B				je	loc_112			; Jump if equal
387F:1491			loc_107:					;  xref 387F:1489
387F:1491  E8 0878				call	sub_34			; (1D0C)
387F:1494  8B 46 F8				mov	ax,[bp+LOCAL_4]
387F:1497  8B 56 FA				mov	dx,[bp+LOCAL_3]
387F:149A  39 16 0D7E				cmp	data_100,dx		; (3D48:0D7E=0)
387F:149E  72 56				jb	loc_110			; Jump if below
387F:14A0  77 06				ja	loc_108			; Jump if above
387F:14A2  39 06 0D7C				cmp	data_99,ax		; (3D48:0D7C=0)
387F:14A6  76 4E				jbe	loc_110			; Jump if below or =
387F:14A8			loc_108:					;  xref 387F:14A0
387F:14A8  03 46 90				add	ax,[bp-70h]
387F:14AB  13 56 92				adc	dx,[bp-6Eh]
387F:14AE  3B 16 0D7E				cmp	dx,data_100		; (3D48:0D7E=0)
387F:14B2  72 42				jb	loc_110			; Jump if below
387F:14B4  77 06				ja	loc_109			; Jump if above
387F:14B6  3B 06 0D7C				cmp	ax,data_99		; (3D48:0D7C=0)
387F:14BA  76 3A				jbe	loc_110			; Jump if below or =
387F:14BC			loc_109:					;  xref 387F:14B4
387F:14BC  E8 086F				call	sub_35			; (1D2E)
387F:14BF  A1 0D7C				mov	ax,data_99		; (3D48:0D7C=0)
387F:14C2  8B 16 0D7E				mov	dx,data_100		; (3D48:0D7E=0)
387F:14C6  2D 0001				sub	ax,1
387F:14C9  83 DA 00				sbb	dx,0
387F:14CC  52					push	dx
387F:14CD  50					push	ax
387F:14CE  FF 76 FA				push	word ptr [bp+LOCAL_3]
387F:14D1 ˙FF 76 F8				push	word ptr [bp+LOCAL_4]
387F:14D4  B8 0B0B				mov	ax,0B0Bh
387F:14D7  50					push	ax
387F:14D8  E8 07B3				call	sub_32			; (1C8E)
387F:14DB  83 C4 0A				add	sp,0Ah
387F:14DE  E8 082B				call	sub_34			; (1D0C)
387F:14E1  2B C0				sub	ax,ax
387F:14E3  50					push	ax
387F:14E4  A1 0D7C				mov	ax,data_99		; (3D48:0D7C=0)
           ml.lst          Copyright (C) 1986-1991 Phar Lap	Sourcer	v8.01   7-Sep-2022 10:02 am   Page 36

387F:14E7  8B 16 0D7E				mov	dx,data_100		; (3D48:0D7E=0)
387F:14EB  2B 46 F8				sub	ax,[bp+LOCAL_4]
387F:14EE  1B 56 FA				sbb	dx,[bp+LOCAL_3]
387F:14F1  52					push	dx
387F:14F2  50					push	ax
387F:14F3  EB 0A				jmp	short loc_111		; (14FF)
387F:14F5  90					db	90h
387F:14F6			loc_110:					;  xref 387F:149E, 14A6, 14B2, 14BA
387F:14F6  2B C0				sub	ax,ax
387F:14F8  50					push	ax
387F:14F9  FF 76 92				push	word ptr [bp-6Eh]
387F:14FC  FF 76 90				push	word ptr [bp-70h]
387F:14FF			loc_111:					;  xref 387F:14F3
387F:14FF  8D 46 F8				lea	ax,[bp+LOCAL_4]		; Load effective addr
387F:1502  50					push	ax
387F:1503  E8 08FD				call	sub_40			; (1E03)
387F:1506  83 C4 08				add	sp,8
387F:1509  E8 0822				call	sub_35			; (1D2E)
387F:150C			loc_112:					;  xref 387F:148F
387F:150C  A1 0D9A				mov	ax,data_104		; (3D48:0D9A=0)
387F:150F  A3 0BAC				mov	data_70,ax		; (3D48:0BAC=0)
387F:1512  A1 0D9C				mov	ax,data_105		; (3D48:0D9C=0)
387F:1515  A3 0BAE				mov	data_71,ax		; (3D48:0BAE=0)
387F:1518  A3 0BB0				mov	data_72,ax		; (3D48:0BB0=0)
387F:151B  8B 0E 0B70				mov	cx,data_65		; (3D48:0B70=0)
387F:151F  89 0E 0BB2				mov	data_73,cx		; (3D48:0BB2=0)
387F:1523  A3 0BB6				mov	data_74,ax		; (3D48:0BB6=0)
387F:1526  A1 0D82				mov	ax,data_101		; (3D48:0D82=0)
387F:1529  8B 16 0D84				mov	dx,data_102		; (3D48:0D84=0)
387F:152D  A3 0BB8				mov	data_75,ax		; (3D48:0BB8=0)
387F:1530  89 16 0BBA				mov	data_76,dx		; (3D48:0BBA=0)
387F:1534  A1 0D7C				mov	ax,data_99		; (3D48:0D7C=0)
387F:1537  8B 16 0D7E				mov	dx,data_100		; (3D48:0D7E=0)
387F:153B  A3 0BA8				mov	data_68,ax		; (3D48:0BA8=0)
387F:153E  89 16 0BAA				mov	data_69,dx		; (3D48:0BAA=0)
387F:1542  C7 06 0BBC 0202			mov	data_77,202h		; (3D48:0BBC=0)
387F:1548  C7 06 0BBE 0000			mov	data_78,0		; (3D48:0BBE=0)
387F:154E  C7 06 0B8A 0001			mov	data_67,1		; (3D48:0B8A=0)
387F:1554  E8 07B5				call	sub_34			; (1D0C)
387F:1557  C7 46 9A 005C			mov	word ptr [bp-66h],5Ch
387F:155C  A1 0B70				mov	ax,data_65		; (3D48:0B70=0)
387F:155F  89 46 9C				mov	[bp-64h],ax
387F:1562  A1 0D70				mov	ax,data_93		; (3D48:0D70=0)
387F:1565  8B 16 0D72				mov	dx,data_94		; (3D48:0D72=0)
387F:1569  03 46 96				add	ax,[bp-6Ah]
387F:156C  13 56 98				adc	dx,[bp-68h]
387F:156F  03 46 F0				add	ax,[bp+LOCAL_8]
387F:1572  13 56 F2				adc	dx,[bp+LOCAL_7]
387F:1575  C4 5E 9A				les	bx,dword ptr [bp-66h]	; Load seg:offset ptr
387F:1578  26: 89 07				mov	es:[bx],ax
387F:157B  26: 89 57 02				mov	es:[bx+2],dx
387F:157F  C7 46 9A 0060			mov	word ptr [bp-66h],60h
387F:1584  A1 0B70				mov	ax,data_65		; (3D48:0B70=0)
387F:1587  89 46 9C				mov	[bp-64h],ax
387F:158A  8B 46 CE				mov	ax,[bp-32h]
387F:158D  8B 56 D0				mov	dx,[bp-30h]
387F:1590  C4 5E 9A				les	bx,dword ptr [bp-66h]	; Load seg:offset ptr
           ml.lst          Copyright (C) 1986-1991 Phar Lap	Sourcer	v8.01   7-Sep-2022 10:02 am   Page 37

387F:1593  26: 89 07				mov	es:[bx],ax
387F:1596  26: 89 57 02				mov	es:[bx+2],dx
387F:159A  C7 46 9A 0064			mov	word ptr [bp-66h],64h
387F:159F  A1 0B70				mov	ax,data_65		; (3D48:0B70=0)
387F:15A2  89 46 9C				mov	[bp-64h],ax
387F:15A5  8B 46 90				mov	ax,[bp-70h]
387F:15A8  8B 56 92				mov	dx,[bp-6Eh]
387F:15AB  C4 5E 9A				les	bx,dword ptr [bp-66h]	; Load seg:offset ptr
387F:15AE  26: 89 07				mov	es:[bx],ax
387F:15B1  26: 89 57 02				mov	es:[bx+2],dx
387F:15B5  E8 0776				call	sub_35			; (1D2E)
387F:15B8  B8 0B2E				mov	ax,0B2Eh
387F:15BB  50					push	ax
387F:15BC  E8 06CF				call	sub_32			; (1C8E)
387F:15BF  C7 46 FE 0000			mov	word ptr [bp+LOCAL_1],0
387F:15C4			loc_113:					;  xref 387F:1449
387F:15C4  8B 46 FE				mov	ax,[bp+LOCAL_1]
387F:15C7  8B E5				mov	sp,bp
387F:15C9  5D					pop	bp
387F:15CA  C3					retn
				sub_11		endp

387F:15CB  90					db	90h

				;ﬂﬂﬂﬂﬂﬂﬂﬂﬂﬂﬂﬂﬂﬂﬂﬂﬂﬂﬂﬂﬂﬂﬂﬂﬂﬂﬂﬂﬂﬂﬂﬂﬂﬂﬂﬂﬂﬂﬂﬂﬂﬂﬂﬂﬂﬂﬂﬂﬂﬂﬂﬂﬂﬂﬂﬂﬂﬂﬂﬂﬂﬂﬂﬂﬂﬂﬂﬂﬂﬂﬂﬂﬂﬂ
				;                              SUBROUTINE
				;
				;         Called from:   387F:1465
				;‹‹‹‹‹‹‹‹‹‹‹‹‹‹‹‹‹‹‹‹‹‹‹‹‹‹‹‹‹‹‹‹‹‹‹‹‹‹‹‹‹‹‹‹‹‹‹‹‹‹‹‹‹‹‹‹‹‹‹‹‹‹‹‹‹‹‹‹‹‹‹‹‹‹

387F:15CC			sub_12		proc	near

				PARAMETER_1	=	4			; bp+4
				PARAMETER_2	=	6			; bp+6
				PARAMETER_3	=	8			; bp+8
				PARAMETER_4	=	0Ah			; bp+0Ah
				PARAMETER_5	=	0Ch			; bp+0Ch
				LOCAL_15	=	-1Eh			; bp+0FFE2h
				LOCAL_14	=	-1Ch			; bp+0FFE4h
				LOCAL_13	=	-1Ah			; bp+0FFE6h
				LOCAL_12	=	-18h			; bp+0FFE8h
				LOCAL_11	=	-16h			; bp+0FFEAh
				LOCAL_10	=	-14h			; bp+0FFECh
				LOCAL_9		=	-12h			; bp+0FFEEh
				LOCAL_8		=	-10h			; bp+0FFF0h
				LOCAL_7		=	-0Eh			; bp+0FFF2h
				LOCAL_6		=	-0Ch			; bp+0FFF4h
				LOCAL_5		=	-0Ah			; bp+0FFF6h
				LOCAL_4		=	-8			; bp+0FFF8h
				LOCAL_3		=	-6			; bp+0FFFAh
				LOCAL_2		=	-4			; bp+0FFFCh
				LOCAL_1		=	-2			; bp+0FFFEh

387F:15CC  55					push	bp
387F:15CD  8B EC				mov	bp,sp
387F:15CF  81 EC 1008				sub	sp,1008h
387F:15D3  57					push	di
           ml.lst          Copyright (C) 1986-1991 Phar Lap	Sourcer	v8.01   7-Sep-2022 10:02 am   Page 38

387F:15D4  56					push	si
387F:15D5  C7 86 EFF8 0001			mov	word ptr [bp-1008h],1
387F:15DB  C7 46 FC 0000			mov	word ptr [bp+LOCAL_2],0
387F:15E0  83 7E 0C 00				cmp	word ptr [bp+PARAMETER_5],0
387F:15E4  75 07				jne	loc_114			; Jump if not equal
387F:15E6  81 7E 0A 1000			cmp	word ptr [bp+PARAMETER_4],1000h
387F:15EB  76 10				jbe	loc_115			; Jump if below or =
387F:15ED			loc_114:					;  xref 387F:15E4
387F:15ED  B8 4000				mov	ax,4000h
387F:15F0  89 46 FA				mov	[bp+LOCAL_3],ax
387F:15F3  50					push	ax
387F:15F4  E8 0FAF				call	sub_65			; (25A6)
387F:15F7  83 C4 02				add	sp,2
387F:15FA  89 46 FC				mov	[bp+LOCAL_2],ax
387F:15FD			loc_115:					;  xref 387F:15EB
387F:15FD  83 7E FC 00				cmp	word ptr [bp+LOCAL_2],0
387F:1601  75 0C				jne	loc_116			; Jump if not equal
387F:1603  C7 46 FA 1000			mov	word ptr [bp+LOCAL_3],1000h
387F:1608  8D 86 EFFA				lea	ax,cs:[0EFFAh][bp]	; Load effective addr
387F:160C  89 46 FC				mov	[bp+LOCAL_2],ax
387F:160F			loc_116:					;  xref 387F:1601, 1670
387F:160F ˙83 7E 0C 00				cmp	word ptr [bp+PARAMETER_5],0
387F:1613  75 06				jne	loc_117			; Jump if not equal
387F:1615  83 7E 0A 00				cmp	word ptr [bp+PARAMETER_4],0
387F:1619  74 57				je	loc_120			; Jump if equal
387F:161B			loc_117:					;  xref 387F:1613
387F:161B  8B 46 FA				mov	ax,[bp+LOCAL_3]
387F:161E  89 46 FE				mov	[bp+LOCAL_1],ax
387F:1621  2B D2				sub	dx,dx
387F:1623  3B 56 0C				cmp	dx,[bp+PARAMETER_5]
387F:1626  72 0D				jb	loc_119			; Jump if below
387F:1628  77 05				ja	loc_118			; Jump if above
387F:162A  3B 46 0A				cmp	ax,[bp+PARAMETER_4]
387F:162D  76 06				jbe	loc_119			; Jump if below or =
387F:162F			loc_118:					;  xref 387F:1628
387F:162F  8B 46 0A				mov	ax,[bp+PARAMETER_4]
387F:1632  89 46 FE				mov	[bp+LOCAL_1],ax
387F:1635			loc_119:					;  xref 387F:1626, 162D
387F:1635 ˙FF 76 FE				push	word ptr [bp+LOCAL_1]	; PARAMETER_2
387F:1638  FF 76 FC				push	word ptr [bp+LOCAL_2]	; PARAMETER_1
387F:163B  E8 05D8				call	sub_29			; (1C16)
387F:163E  83 C4 04				add	sp,4
387F:1641  3B 46 FE				cmp	ax,[bp+LOCAL_1]
387F:1644  75 32				jne	loc_121			; Jump if not equal
387F:1646  E8 06C3				call	sub_34			; (1D0C)
387F:1649  FF 76 FC				push	word ptr [bp+LOCAL_2]
387F:164C  8B 46 FE				mov	ax,[bp+LOCAL_1]
387F:164F  2B D2				sub	dx,dx
387F:1651  52					push	dx
387F:1652  50					push	ax
387F:1653  8D 4E 04				lea	cx,[bp+PARAMETER_1]	; Load effective addr
387F:1656  51					push	cx
387F:1657  8B F0				mov	si,ax
387F:1659  8B FA				mov	di,dx
387F:165B  E8 076F				call	sub_39			; (1DCD)
387F:165E  83 C4 08				add	sp,8
387F:1661  E8 06CA				call	sub_35			; (1D2E)
           ml.lst          Copyright (C) 1986-1991 Phar Lap	Sourcer	v8.01   7-Sep-2022 10:02 am   Page 39

387F:1664  29 76 0A				sub	[bp+PARAMETER_4],si
387F:1667  19 7E 0C				sbb	[bp+PARAMETER_5],di
387F:166A  01 76 04				add	[bp+PARAMETER_1],si
387F:166D  11 7E 06				adc	[bp+PARAMETER_2],di
387F:1670  EB 9D				jmp	short loc_116		; (160F)
387F:1672			loc_120:					;  xref 387F:1619
387F:1672  C7 86 EFF8 0000			mov	word ptr [bp-1008h],0
387F:1678			loc_121:					;  xref 387F:1644
387F:1678  8D 86 EFFA				lea	ax,cs:[0EFFAh][bp]	; Load effective addr
387F:167C  39 46 FC				cmp	[bp+LOCAL_2],ax
387F:167F  74 09				je	loc_122			; Jump if equal
387F:1681  FF 76 FC				push	word ptr [bp+LOCAL_2]
387F:1684  E8 0F23				call	sub_66			; (25AA)
387F:1687  83 C4 02				add	sp,2
387F:168A			loc_122:					;  xref 387F:167F
387F:168A  8B 86 EFF8				mov	ax,[bp-1008h]
387F:168E  5E					pop	si
387F:168F  5F					pop	di
387F:1690  8B E5				mov	sp,bp
387F:1692  5D					pop	bp
387F:1693  C3					retn
				sub_12		endp


				;ﬂﬂﬂﬂﬂﬂﬂﬂﬂﬂﬂﬂﬂﬂﬂﬂﬂﬂﬂﬂﬂﬂﬂﬂﬂﬂﬂﬂﬂﬂﬂﬂﬂﬂﬂﬂﬂﬂﬂﬂﬂﬂﬂﬂﬂﬂﬂﬂﬂﬂﬂﬂﬂﬂﬂﬂﬂﬂﬂﬂﬂﬂﬂﬂﬂﬂﬂﬂﬂﬂﬂﬂﬂﬂ
				;                              SUBROUTINE
				;
				;         Called from:   387F:0FEE
				;‹‹‹‹‹‹‹‹‹‹‹‹‹‹‹‹‹‹‹‹‹‹‹‹‹‹‹‹‹‹‹‹‹‹‹‹‹‹‹‹‹‹‹‹‹‹‹‹‹‹‹‹‹‹‹‹‹‹‹‹‹‹‹‹‹‹‹‹‹‹‹‹‹‹

387F:1694			sub_13		proc	near

				PARAMETER_1	=	4			; bp+4
				LOCAL_2		=	-4			; bp+0FFFCh
				LOCAL_1		=	-2			; bp+0FFFEh

387F:1694  55					push	bp
387F:1695  8B EC				mov	bp,sp
387F:1697  83 EC 04				sub	sp,4
387F:169A  8B 5E 04				mov	bx,[bp+PARAMETER_1]
387F:169D  8B 47 04				mov	ax,[bx+4]
387F:16A0  2B D2				sub	dx,dx
387F:16A2  89 56 FE				mov	[bp+LOCAL_1],dx
387F:16A5  39 57 02				cmp	[bx+2],dx
387F:16A8  74 08				je	loc_123			; Jump if equal
387F:16AA  2D 0001				sub	ax,1
387F:16AD  1B D2				sbb	dx,dx
387F:16AF  89 56 FE				mov	[bp+LOCAL_1],dx
387F:16B2			loc_123:					;  xref 387F:16A8
387F:16B2  8B 56 FE				mov	dx,[bp+LOCAL_1]
387F:16B5  8A F2				mov	dh,dl
387F:16B7  8A D4				mov	dl,ah
387F:16B9  8A E0				mov	ah,al
387F:16BB  2A C0				sub	al,al
387F:16BD  D1 E0				shl	ax,1			; Shift w/zeros fill
387F:16BF  D1 D2				rcl	dx,1			; Rotate thru carry
387F:16C1  03 47 02				add	ax,[bx+2]
           ml.lst          Copyright (C) 1986-1991 Phar Lap	Sourcer	v8.01   7-Sep-2022 10:02 am   Page 40

387F:16C4  83 D2 00				adc	dx,0
387F:16C7  8B E5				mov	sp,bp
387F:16C9  5D					pop	bp
387F:16CA  C3					retn
				sub_13		endp

387F:16CB  90					db	90h

				;ﬂﬂﬂﬂﬂﬂﬂﬂﬂﬂﬂﬂﬂﬂﬂﬂﬂﬂﬂﬂﬂﬂﬂﬂﬂﬂﬂﬂﬂﬂﬂﬂﬂﬂﬂﬂﬂﬂﬂﬂﬂﬂﬂﬂﬂﬂﬂﬂﬂﬂﬂﬂﬂﬂﬂﬂﬂﬂﬂﬂﬂﬂﬂﬂﬂﬂﬂﬂﬂﬂﬂﬂﬂﬂ
				;                              SUBROUTINE
				;
				;         Called from:   387F:1853
				;‹‹‹‹‹‹‹‹‹‹‹‹‹‹‹‹‹‹‹‹‹‹‹‹‹‹‹‹‹‹‹‹‹‹‹‹‹‹‹‹‹‹‹‹‹‹‹‹‹‹‹‹‹‹‹‹‹‹‹‹‹‹‹‹‹‹‹‹‹‹‹‹‹‹

387F:16CC			sub_14		proc	near

				PARAMETER_1	=	4			; bp+4
				PARAMETER_2	=	6			; bp+6
				LOCAL_4		=	-8			; bp+0FFF8h
				LOCAL_3		=	-6			; bp+0FFFAh
				LOCAL_2		=	-4			; bp+0FFFCh
				LOCAL_1		=	-2			; bp+0FFFEh

387F:16CC  55					push	bp
387F:16CD  8B EC				mov	bp,sp
387F:16CF  83 EC 08				sub	sp,8
387F:16D2  8D 46 F8				lea	ax,[bp+LOCAL_4]		; Load effective addr
387F:16D5 ˙50					push	ax			; PARAMETER_2
387F:16D6  FF 76 04				push	word ptr [bp+PARAMETER_1]	; PARAMETER_1
387F:16D9  E8 04E6				call	sub_27			; (1BC2)
387F:16DC  83 C4 04				add	sp,4
387F:16DF  0B C0				or	ax,ax			; Zero ?
387F:16E1  74 07				jz	loc_124			; Jump if zero
387F:16E3  B8 0001				mov	ax,1
387F:16E6  8B E5				mov	sp,bp
387F:16E8  5D					pop	bp
387F:16E9  C3					retn
387F:16EA			loc_124:					;  xref 387F:16E1
387F:16EA  8A 46 FF				mov	al,[bp-1]
387F:16ED  2A E4				sub	ah,ah
387F:16EF  2B D2				sub	dx,dx
387F:16F1  8A F2				mov	dh,dl
387F:16F3  8A D4				mov	dl,ah
387F:16F5  8A E0				mov	ah,al
387F:16F7  2A C0				sub	al,al
387F:16F9  8A 4E FC				mov	cl,[bp+LOCAL_2]
387F:16FC  2A ED				sub	ch,ch
387F:16FE  03 C1				add	ax,cx
387F:1700  8B 4E FA				mov	cx,[bp+LOCAL_3]
387F:1703  8B 5E 06				mov	bx,[bp+PARAMETER_2]
387F:1706  89 0F				mov	[bx],cx
387F:1708  89 47 02				mov	[bx+2],ax
387F:170B  2B C0				sub	ax,ax
387F:170D  8B E5				mov	sp,bp
387F:170F  5D					pop	bp
387F:1710  C3					retn
				sub_14		endp
           ml.lst          Copyright (C) 1986-1991 Phar Lap	Sourcer	v8.01   7-Sep-2022 10:02 am   Page 41


387F:1711  90					db	90h

				;ﬂﬂﬂﬂﬂﬂﬂﬂﬂﬂﬂﬂﬂﬂﬂﬂﬂﬂﬂﬂﬂﬂﬂﬂﬂﬂﬂﬂﬂﬂﬂﬂﬂﬂﬂﬂﬂﬂﬂﬂﬂﬂﬂﬂﬂﬂﬂﬂﬂﬂﬂﬂﬂﬂﬂﬂﬂﬂﬂﬂﬂﬂﬂﬂﬂﬂﬂﬂﬂﬂﬂﬂﬂﬂ
				;                              SUBROUTINE
				;
				;         Called from:   387F:06BA
				;‹‹‹‹‹‹‹‹‹‹‹‹‹‹‹‹‹‹‹‹‹‹‹‹‹‹‹‹‹‹‹‹‹‹‹‹‹‹‹‹‹‹‹‹‹‹‹‹‹‹‹‹‹‹‹‹‹‹‹‹‹‹‹‹‹‹‹‹‹‹‹‹‹‹

387F:1712			sub_15		proc	near

				LOCAL_2		=	-4			; bp+0FFFCh
				LOCAL_1		=	-2			; bp+0FFFEh

387F:1712  55					push	bp
387F:1713  8B EC				mov	bp,sp
387F:1715  83 EC 04				sub	sp,4
387F:1718  B8 1600				mov	ax,1600h
387F:171B  CD 2F				int	2Fh			; Enhanced Windows install check
387F:171D  88 46 FC				mov	[bp+LOCAL_2],al
387F:1720  88 66 FE				mov	[bp+LOCAL_1],ah
387F:1723  80 7E FC 03				cmp	byte ptr [bp+LOCAL_2],3
387F:1727  75 06				jne	loc_125			; Jump if not equal
387F:1729  80 7E FE 00				cmp	byte ptr [bp+LOCAL_1],0
387F:172D  74 13				je	loc_126			; Jump if equal
387F:172F			loc_125:					;  xref 387F:1727
387F:172F  80 7E FC 00				cmp	byte ptr [bp+LOCAL_2],0
387F:1733  74 0D				je	loc_126			; Jump if equal
387F:1735  80 7E FC 80				cmp	byte ptr [bp+LOCAL_2],80h
387F:1739  74 07				je	loc_126			; Jump if equal
387F:173B  B8 0001				mov	ax,1
387F:173E  8B E5				mov	sp,bp
387F:1740  5D					pop	bp
387F:1741  C3					retn
387F:1742			loc_126:					;  xref 387F:172D, 1733, 1739
387F:1742  2B C0				sub	ax,ax
387F:1744  8B E5				mov	sp,bp
387F:1746  5D					pop	bp
387F:1747  C3					retn
				sub_15		endp


				;ﬂﬂﬂﬂﬂﬂﬂﬂﬂﬂﬂﬂﬂﬂﬂﬂﬂﬂﬂﬂﬂﬂﬂﬂﬂﬂﬂﬂﬂﬂﬂﬂﬂﬂﬂﬂﬂﬂﬂﬂﬂﬂﬂﬂﬂﬂﬂﬂﬂﬂﬂﬂﬂﬂﬂﬂﬂﬂﬂﬂﬂﬂﬂﬂﬂﬂﬂﬂﬂﬂﬂﬂﬂﬂ
				;                              SUBROUTINE
				;
				;         Called from:   387F:06C1
				;‹‹‹‹‹‹‹‹‹‹‹‹‹‹‹‹‹‹‹‹‹‹‹‹‹‹‹‹‹‹‹‹‹‹‹‹‹‹‹‹‹‹‹‹‹‹‹‹‹‹‹‹‹‹‹‹‹‹‹‹‹‹‹‹‹‹‹‹‹‹‹‹‹‹

387F:1748			sub_16		proc	near

				LOCAL_1		=	-2			; bp+0FFFEh

387F:1748  55					push	bp
387F:1749  8B EC				mov	bp,sp
387F:174B  83 EC 02				sub	sp,2
387F:174E  B8 3000				mov	ax,3000h
387F:1751  CD 21				int	21h			; DOS Services  ah=function 30h
           ml.lst          Copyright (C) 1986-1991 Phar Lap	Sourcer	v8.01   7-Sep-2022 10:02 am   Page 42

										;  get DOS version number ax
387F:1753  88 46 FE				mov	[bp+LOCAL_1],al
387F:1756  80 7E FE 14				cmp	byte ptr [bp+LOCAL_1],14h
387F:175A  72 08				jb	loc_127			; Jump if below
387F:175C  B8 0001				mov	ax,1
387F:175F  8B E5				mov	sp,bp
387F:1761  5D					pop	bp
387F:1762  C3					retn
387F:1763  90					db	90h
387F:1764			loc_127:					;  xref 387F:175A
387F:1764  2B C0				sub	ax,ax
387F:1766  8B E5				mov	sp,bp
387F:1768  5D					pop	bp
387F:1769  C3					retn
				sub_16		endp


				;ﬂﬂﬂﬂﬂﬂﬂﬂﬂﬂﬂﬂﬂﬂﬂﬂﬂﬂﬂﬂﬂﬂﬂﬂﬂﬂﬂﬂﬂﬂﬂﬂﬂﬂﬂﬂﬂﬂﬂﬂﬂﬂﬂﬂﬂﬂﬂﬂﬂﬂﬂﬂﬂﬂﬂﬂﬂﬂﬂﬂﬂﬂﬂﬂﬂﬂﬂﬂﬂﬂﬂﬂﬂﬂ
				;                              SUBROUTINE
				;
				;         Called from:   387F:13A4, 1AA5
				;‹‹‹‹‹‹‹‹‹‹‹‹‹‹‹‹‹‹‹‹‹‹‹‹‹‹‹‹‹‹‹‹‹‹‹‹‹‹‹‹‹‹‹‹‹‹‹‹‹‹‹‹‹‹‹‹‹‹‹‹‹‹‹‹‹‹‹‹‹‹‹‹‹‹

387F:176A			sub_17		proc	near

				PARAMETER_1	=	4			; bp+4
				PARAMETER_2	=	6			; bp+6
				PARAMETER_3	=	8			; bp+8
				LOCAL_1		=	-2			; bp+0FFFEh

387F:176A  55					push	bp
387F:176B  8B EC				mov	bp,sp
387F:176D  83 EC 02				sub	sp,2
387F:1770  56					push	si
387F:1771  C7 46 FE 0001			mov	word ptr [bp+LOCAL_1],1
387F:1776 ˙FF 76 04				push	word ptr [bp+PARAMETER_1]	; PARAMETER_1
387F:1779  E8 0166				call	sub_21			; (18E2)
387F:177C  83 C4 02				add	sp,2
387F:177F  8B F0				mov	si,ax
387F:1781  0B F6				or	si,si			; Zero ?
387F:1783  75 0F				jnz	loc_128			; Jump if not zero
387F:1785  2B C0				sub	ax,ax
387F:1787 ˙50					push	ax			; PARAMETER_1
387F:1788  E8 0157				call	sub_21			; (18E2)
387F:178B  83 C4 02				add	sp,2
387F:178E  8B F0				mov	si,ax
387F:1790  0B F6				or	si,si			; Zero ?
387F:1792  74 1B				jz	loc_129			; Jump if zero
387F:1794			loc_128:					;  xref 387F:1783
387F:1794  8B 46 04				mov	ax,[bp+PARAMETER_1]
387F:1797  89 04				mov	[si],ax
387F:1799  8B 46 06				mov	ax,[bp+PARAMETER_2]
387F:179C  8B 56 08				mov	dx,[bp+PARAMETER_3]
387F:179F  89 44 02				mov	[si+2],ax
387F:17A2  89 54 04				mov	[si+4],dx
387F:17A5  C7 44 06 0000			mov	word ptr [si+6],0
387F:17AA  C7 46 FE 0000			mov	word ptr [bp+LOCAL_1],0
           ml.lst          Copyright (C) 1986-1991 Phar Lap	Sourcer	v8.01   7-Sep-2022 10:02 am   Page 43

387F:17AF			loc_129:					;  xref 387F:1792
387F:17AF  8B 46 FE				mov	ax,[bp+LOCAL_1]
387F:17B2  5E					pop	si
387F:17B3  8B E5				mov	sp,bp
387F:17B5  5D					pop	bp
387F:17B6  C3					retn
				sub_17		endp

387F:17B7  90					db	90h

				;ﬂﬂﬂﬂﬂﬂﬂﬂﬂﬂﬂﬂﬂﬂﬂﬂﬂﬂﬂﬂﬂﬂﬂﬂﬂﬂﬂﬂﬂﬂﬂﬂﬂﬂﬂﬂﬂﬂﬂﬂﬂﬂﬂﬂﬂﬂﬂﬂﬂﬂﬂﬂﬂﬂﬂﬂﬂﬂﬂﬂﬂﬂﬂﬂﬂﬂﬂﬂﬂﬂﬂﬂﬂﬂ
				;                              SUBROUTINE
				;
				;         Called from:   387F:13BA
				;‹‹‹‹‹‹‹‹‹‹‹‹‹‹‹‹‹‹‹‹‹‹‹‹‹‹‹‹‹‹‹‹‹‹‹‹‹‹‹‹‹‹‹‹‹‹‹‹‹‹‹‹‹‹‹‹‹‹‹‹‹‹‹‹‹‹‹‹‹‹‹‹‹‹

387F:17B8			sub_19		proc	near

				PARAMETER_1	=	4			; bp+4
				PARAMETER_2	=	6			; bp+6
				LOCAL_1		=	-2			; bp+0FFFEh

387F:17B8  55					push	bp
387F:17B9  8B EC				mov	bp,sp
387F:17BB  83 EC 02				sub	sp,2
387F:17BE  57					push	di
387F:17BF  56					push	si
387F:17C0  C7 46 FE 0001			mov	word ptr [bp+LOCAL_1],1
387F:17C5 ˙FF 76 04				push	word ptr [bp+PARAMETER_1]	; PARAMETER_1
387F:17C8  E8 0117				call	sub_21			; (18E2)
387F:17CB  83 C4 02				add	sp,2
387F:17CE  8B F0				mov	si,ax
387F:17D0  0B F6				or	si,si			; Zero ?
387F:17D2  75 0F				jnz	loc_130			; Jump if not zero
387F:17D4  2B C0				sub	ax,ax
387F:17D6 ˙50					push	ax			; PARAMETER_1
387F:17D7  E8 0108				call	sub_21			; (18E2)
387F:17DA  83 C4 02				add	sp,2
387F:17DD  8B F0				mov	si,ax
387F:17DF  0B F6				or	si,si			; Zero ?
387F:17E1  74 22				jz	loc_131			; Jump if zero
387F:17E3			loc_130:					;  xref 387F:17D2
387F:17E3 ˙FF 76 06				push	word ptr [bp+PARAMETER_2]	; PARAMETER_1
387F:17E6  E8 00F9				call	sub_21			; (18E2)
387F:17E9  83 C4 02				add	sp,2
387F:17EC  8B F8				mov	di,ax
387F:17EE  0B FF				or	di,di			; Zero ?
387F:17F0  74 13				jz	loc_131			; Jump if zero
387F:17F2  8B 46 04				mov	ax,[bp+PARAMETER_1]
387F:17F5  89 04				mov	[si],ax
387F:17F7  2B C0				sub	ax,ax
387F:17F9  89 44 04				mov	[si+4],ax
387F:17FC  89 44 02				mov	[si+2],ax
387F:17FF  89 7C 06				mov	[si+6],di
387F:1802  89 46 FE				mov	[bp+LOCAL_1],ax
387F:1805			loc_131:					;  xref 387F:17E1, 17F0
387F:1805  8B 46 FE				mov	ax,[bp+LOCAL_1]
           ml.lst          Copyright (C) 1986-1991 Phar Lap	Sourcer	v8.01   7-Sep-2022 10:02 am   Page 44

387F:1808  5E					pop	si
387F:1809  5F					pop	di
387F:180A  8B E5				mov	sp,bp
387F:180C  5D					pop	bp
387F:180D  C3					retn
				sub_19		endp


				;ﬂﬂﬂﬂﬂﬂﬂﬂﬂﬂﬂﬂﬂﬂﬂﬂﬂﬂﬂﬂﬂﬂﬂﬂﬂﬂﬂﬂﬂﬂﬂﬂﬂﬂﬂﬂﬂﬂﬂﬂﬂﬂﬂﬂﬂﬂﬂﬂﬂﬂﬂﬂﬂﬂﬂﬂﬂﬂﬂﬂﬂﬂﬂﬂﬂﬂﬂﬂﬂﬂﬂﬂﬂﬂ
				;                              SUBROUTINE
				;
				;         Called from:   387F:142E, 1AE2
				;‹‹‹‹‹‹‹‹‹‹‹‹‹‹‹‹‹‹‹‹‹‹‹‹‹‹‹‹‹‹‹‹‹‹‹‹‹‹‹‹‹‹‹‹‹‹‹‹‹‹‹‹‹‹‹‹‹‹‹‹‹‹‹‹‹‹‹‹‹‹‹‹‹‹

387F:180E			sub_20		proc	near

				PARAMETER_1	=	4			; bp+4
				LOCAL_3		=	-6			; bp+0FFFAh
				LOCAL_2		=	-4			; bp+0FFFCh
				LOCAL_1		=	-2			; bp+0FFFEh

387F:180E  55					push	bp
387F:180F  8B EC				mov	bp,sp
387F:1811  83 EC 06				sub	sp,6
387F:1814  57					push	di
387F:1815  56					push	si
387F:1816  C7 46 FA 0001			mov	word ptr [bp+LOCAL_3],1
387F:181B ˙FF 76 04				push	word ptr [bp+PARAMETER_1]	; PARAMETER_1
387F:181E  E8 00C1				call	sub_21			; (18E2)
387F:1821  83 C4 02				add	sp,2
387F:1824  8B F0				mov	si,ax
387F:1826  0B F6				or	si,si			; Zero ?
387F:1828  75 03				jnz	loc_132			; Jump if not zero
387F:182A  E9 00AB				jmp	loc_141			; (18D8)
387F:182D			loc_132:					;  xref 387F:1828
387F:182D  83 7C 06 00				cmp	word ptr [si+6],0
387F:1831  74 19				je	loc_133			; Jump if equal
387F:1833  C7 04 0000				mov	word ptr [si],0
387F:1837 ˙FF 76 04				push	word ptr [bp+PARAMETER_1]	; PARAMETER_1
387F:183A  E8 00CF				call	sub_22			; (190C)
387F:183D  83 C4 02				add	sp,2
387F:1840  3D 0001				cmp	ax,1
387F:1843  1B C0				sbb	ax,ax
387F:1845  40					inc	ax
387F:1846  89 46 FA				mov	[bp+LOCAL_3],ax
387F:1849  E9 008C				jmp	loc_141			; (18D8)
387F:184C			loc_133:					;  xref 387F:1831
387F:184C  8D 46 FC				lea	ax,[bp+LOCAL_2]		; Load effective addr
387F:184F ˙50					push	ax			; PARAMETER_2
387F:1850  FF 76 04				push	word ptr [bp+PARAMETER_1]	; PARAMETER_1
387F:1853  E8 FE76				call	sub_14			; (16CC)
387F:1856  83 C4 04				add	sp,4
387F:1859  0B C0				or	ax,ax			; Zero ?
387F:185B  75 34				jnz	loc_135			; Jump if not zero
387F:185D  83 7E FE 10				cmp	word ptr [bp+LOCAL_1],10h
387F:1861  77 02				ja	loc_134			; Jump if above
387F:1863  72 47				jc	loc_137			; Jump if carry Set
           ml.lst          Copyright (C) 1986-1991 Phar Lap	Sourcer	v8.01   7-Sep-2022 10:02 am   Page 45

387F:1865			loc_134:					;  xref 387F:1861
387F:1865  E8 04C6				call	sub_35			; (1D2E)
387F:1868  8B 46 FC				mov	ax,[bp+LOCAL_2]
387F:186B  8B 56 FE				mov	dx,[bp+LOCAL_1]
387F:186E  D1 EA				shr	dx,1			; Shift w/zeros fill
387F:1870  D1 D8				rcr	ax,1			; Rotate thru carry
387F:1872  D1 EA				shr	dx,1			; Shift w/zeros fill
387F:1874  D1 D8				rcr	ax,1			; Rotate thru carry
387F:1876  D1 EA				shr	dx,1			; Shift w/zeros fill
387F:1878  D1 D8				rcr	ax,1			; Rotate thru carry
387F:187A  D1 EA				shr	dx,1			; Shift w/zeros fill
387F:187C  D1 D8				rcr	ax,1			; Rotate thru carry
387F:187E  50					push	ax
387F:187F  E8 137C				call	sub_87			; (2BFE)
387F:1882  83 C4 02				add	sp,2
387F:1885  3D 0001				cmp	ax,1
387F:1888  1B C0				sbb	ax,ax
387F:188A  40					inc	ax
387F:188B  89 46 FA				mov	[bp+LOCAL_3],ax
387F:188E  E8 047B				call	sub_34			; (1D0C)
387F:1891			loc_135:					;  xref 387F:185B, 18BB
387F:1891 ˙C7 04 0000				mov	word ptr [si],0
387F:1895 ˙FF 76 04				push	word ptr [bp+PARAMETER_1]	; PARAMETER_1
387F:1898  E8 0071				call	sub_22			; (190C)
387F:189B  83 C4 02				add	sp,2
387F:189E  0B C0				or	ax,ax			; Zero ?
387F:18A0  74 05				jz	loc_136			; Jump if zero
387F:18A2  C7 46 FA 0001			mov	word ptr [bp+LOCAL_3],1
387F:18A7			loc_136:					;  xref 387F:18A0
387F:18A7  BF 1580				mov	di,1580h
387F:18AA  EB 26				jmp	short loc_140		; (18D2)
387F:18AC			loc_137:					;  xref 387F:1863
387F:18AC ˙FF 74 04				push	word ptr [si+4]		; PARAMETER_2
387F:18AF  FF 74 02				push	word ptr [si+2]		; PARAMETER_1
387F:18B2  E8 077D				call	sub_48			; (2032)
387F:18B5  83 C4 04				add	sp,4
387F:18B8  89 46 FA				mov	[bp+LOCAL_3],ax
387F:18BB  EB D4				jmp	short loc_135		; (1891)
387F:18BD  90					db	90h
387F:18BE			loc_138:					;  xref 387F:18D6
387F:18BE  39 75 06				cmp	[di+6],si
387F:18C1  75 0C				jne	loc_139			; Jump if not equal
387F:18C3 ˙FF 35				push	word ptr [di]		; PARAMETER_1
387F:18C5  E8 0044				call	sub_22			; (190C)
387F:18C8  83 C4 02				add	sp,2
387F:18CB  C7 05 0000				mov	word ptr [di],0
387F:18CF			loc_139:					;  xref 387F:18C1
387F:18CF  83 C7 08				add	di,8
387F:18D2			loc_140:					;  xref 387F:18AA
387F:18D2  81 FF 1780				cmp	di,1780h
387F:18D6  72 E6				jb	loc_138			; Jump if below
387F:18D8			loc_141:					;  xref 387F:182A, 1849
387F:18D8  8B 46 FA				mov	ax,[bp+LOCAL_3]
387F:18DB  5E					pop	si
387F:18DC  5F					pop	di
387F:18DD  8B E5				mov	sp,bp
387F:18DF  5D					pop	bp
           ml.lst          Copyright (C) 1986-1991 Phar Lap	Sourcer	v8.01   7-Sep-2022 10:02 am   Page 46

387F:18E0  C3					retn
				sub_20		endp

387F:18E1  90					db	90h

				;ﬂﬂﬂﬂﬂﬂﬂﬂﬂﬂﬂﬂﬂﬂﬂﬂﬂﬂﬂﬂﬂﬂﬂﬂﬂﬂﬂﬂﬂﬂﬂﬂﬂﬂﬂﬂﬂﬂﬂﬂﬂﬂﬂﬂﬂﬂﬂﬂﬂﬂﬂﬂﬂﬂﬂﬂﬂﬂﬂﬂﬂﬂﬂﬂﬂﬂﬂﬂﬂﬂﬂﬂﬂﬂ
				;                              SUBROUTINE
				;
				;         Called from:   387F:1779, 1788, 17C8, 17D7, 17E6, 181E
				;‹‹‹‹‹‹‹‹‹‹‹‹‹‹‹‹‹‹‹‹‹‹‹‹‹‹‹‹‹‹‹‹‹‹‹‹‹‹‹‹‹‹‹‹‹‹‹‹‹‹‹‹‹‹‹‹‹‹‹‹‹‹‹‹‹‹‹‹‹‹‹‹‹‹

387F:18E2			sub_21		proc	near

				PARAMETER_1	=	4			; bp+4

387F:18E2  55					push	bp
387F:18E3  8B EC				mov	bp,sp
387F:18E5  56					push	si
387F:18E6  BE 1580				mov	si,1580h
387F:18E9  EB 04				jmp	short loc_143		; (18EF)
387F:18EB  90					db	90h
387F:18EC			loc_142:					;  xref 387F:18FA
387F:18EC  83 C6 08				add	si,8
387F:18EF			loc_143:					;  xref 387F:18E9
387F:18EF ˙81 FE 1780				cmp	si,data_211e		; (3D48:1780=0)
387F:18F3  73 0F				jae	loc_144			; Jump if above or =
387F:18F5  8B 04				mov	ax,[si]
387F:18F7  39 46 04				cmp	[bp+PARAMETER_1],ax
387F:18FA  75 F0				jne	loc_142			; Jump if not equal
387F:18FC  8B C6				mov	ax,si
387F:18FE  5E					pop	si
387F:18FF  8B E5				mov	sp,bp
387F:1901  5D					pop	bp
387F:1902  C3					retn
387F:1903  90					db	90h
387F:1904			loc_144:					;  xref 387F:18F3
387F:1904  2B C0				sub	ax,ax
387F:1906  5E					pop	si
387F:1907  8B E5				mov	sp,bp
387F:1909  5D					pop	bp
387F:190A  C3					retn
				sub_21		endp

387F:190B  90					db	90h

				;ﬂﬂﬂﬂﬂﬂﬂﬂﬂﬂﬂﬂﬂﬂﬂﬂﬂﬂﬂﬂﬂﬂﬂﬂﬂﬂﬂﬂﬂﬂﬂﬂﬂﬂﬂﬂﬂﬂﬂﬂﬂﬂﬂﬂﬂﬂﬂﬂﬂﬂﬂﬂﬂﬂﬂﬂﬂﬂﬂﬂﬂﬂﬂﬂﬂﬂﬂﬂﬂﬂﬂﬂﬂﬂ
				;                              SUBROUTINE
				;
				;         Called from:   387F:143B, 183A, 1898, 18C5, 1A94, 1B27, 1B83
				;‹‹‹‹‹‹‹‹‹‹‹‹‹‹‹‹‹‹‹‹‹‹‹‹‹‹‹‹‹‹‹‹‹‹‹‹‹‹‹‹‹‹‹‹‹‹‹‹‹‹‹‹‹‹‹‹‹‹‹‹‹‹‹‹‹‹‹‹‹‹‹‹‹‹

387F:190C			sub_22		proc	near

				PARAMETER_1	=	4			; bp+4
				LOCAL_4		=	-8			; bp+0FFF8h
				LOCAL_3		=	-6			; bp+0FFFAh
				LOCAL_2		=	-4			; bp+0FFFCh
           ml.lst          Copyright (C) 1986-1991 Phar Lap	Sourcer	v8.01   7-Sep-2022 10:02 am   Page 47

				LOCAL_1		=	-2			; bp+0FFFEh

387F:190C  55					push	bp
387F:190D  8B EC				mov	bp,sp
387F:190F  83 EC 08				sub	sp,8
387F:1912  8D 46 F8				lea	ax,[bp+LOCAL_4]		; Load effective addr
387F:1915 ˙50					push	ax			; PARAMETER_2
387F:1916  FF 76 04				push	word ptr [bp+PARAMETER_1]	; PARAMETER_1
387F:1919  E8 06AA				call	sub_46			; (1FC6)
387F:191C  83 C4 04				add	sp,4
387F:191F  80 66 FD FE				and	byte ptr [bp-3],0FEh
387F:1923  8D 46 F8				lea	ax,[bp+LOCAL_4]		; Load effective addr
387F:1926 ˙50					push	ax			; PARAMETER_2
387F:1927  FF 76 04				push	word ptr [bp+PARAMETER_1]	; PARAMETER_1
387F:192A  E8 0778				call	sub_53			; (20A5)
387F:192D  83 C4 04				add	sp,4
387F:1930 ˙FF 76 04				push	word ptr [bp+PARAMETER_1]	; PARAMETER_1
387F:1933  E8 063C				call	sub_45			; (1F72)
387F:1936  8B E5				mov	sp,bp
387F:1938  5D					pop	bp
387F:1939  C3					retn
				sub_22		endp


				;ﬂﬂﬂﬂﬂﬂﬂﬂﬂﬂﬂﬂﬂﬂﬂﬂﬂﬂﬂﬂﬂﬂﬂﬂﬂﬂﬂﬂﬂﬂﬂﬂﬂﬂﬂﬂﬂﬂﬂﬂﬂﬂﬂﬂﬂﬂﬂﬂﬂﬂﬂﬂﬂﬂﬂﬂﬂﬂﬂﬂﬂﬂﬂﬂﬂﬂﬂﬂﬂﬂﬂﬂﬂﬂ
				;                              SUBROUTINE
				;
				;         Called from:   387F:134E
				;‹‹‹‹‹‹‹‹‹‹‹‹‹‹‹‹‹‹‹‹‹‹‹‹‹‹‹‹‹‹‹‹‹‹‹‹‹‹‹‹‹‹‹‹‹‹‹‹‹‹‹‹‹‹‹‹‹‹‹‹‹‹‹‹‹‹‹‹‹‹‹‹‹‹

387F:193A			sub_23		proc	near

				PARAMETER_1	=	4			; bp+4
				PARAMETER_2	=	6			; bp+6
				PARAMETER_3	=	8			; bp+8
				PARAMETER_4	=	0Ah			; bp+0Ah
				PARAMETER_5	=	0Ch			; bp+0Ch
				PARAMETER_6	=	0Eh			; bp+0Eh
				LOCAL_13	=	-1Ah			; bp+0FFE6h
				LOCAL_12	=	-18h			; bp+0FFE8h
				LOCAL_11	=	-16h			; bp+0FFEAh
				LOCAL_10	=	-14h			; bp+0FFECh
				LOCAL_9		=	-12h			; bp+0FFEEh
				LOCAL_8		=	-10h			; bp+0FFF0h
				LOCAL_7		=	-0Eh			; bp+0FFF2h
				LOCAL_6		=	-0Ch			; bp+0FFF4h
				LOCAL_5		=	-0Ah			; bp+0FFF6h
				LOCAL_4		=	-8			; bp+0FFF8h
				LOCAL_3		=	-6			; bp+0FFFAh
				LOCAL_2		=	-4			; bp+0FFFCh
				LOCAL_1		=	-2			; bp+0FFFEh

387F:193A  55					push	bp
387F:193B  8B EC				mov	bp,sp
387F:193D  83 EC 1A				sub	sp,1Ah
387F:1940  C7 46 FA 0000			mov	word ptr [bp+LOCAL_3],0
387F:1945  83 3E 0B74 00			cmp	data_66,0		; (3D48:0B74=0)
           ml.lst          Copyright (C) 1986-1991 Phar Lap	Sourcer	v8.01   7-Sep-2022 10:02 am   Page 48

387F:194A  74 03				je	loc_145			; Jump if equal
387F:194C  E9 0173				jmp	loc_155			; (1AC2)
387F:194F			loc_145:					;  xref 387F:194A
387F:194F  E8 03BA				call	sub_34			; (1D0C)
387F:1952  8D 46 FC				lea	ax,[bp+LOCAL_2]		; Load effective addr
387F:1955 ˙50					push	ax			; PARAMETER_2
387F:1956  B8 0001				mov	ax,1
387F:1959  50					push	ax			; PARAMETER_1
387F:195A  E8 05F6				call	sub_44			; (1F53)
387F:195D  83 C4 04				add	sp,4
387F:1960  0B C0				or	ax,ax			; Zero ?
387F:1962  74 03				jz	loc_146			; Jump if zero
387F:1964  E9 0158				jmp	loc_154			; (1ABF)
387F:1967			loc_146:					;  xref 387F:1962
387F:1967  39 46 0C				cmp	[bp+PARAMETER_5],ax
387F:196A  75 18				jne	loc_147			; Jump if not equal
387F:196C  8D 46 EA				lea	ax,[bp+LOCAL_11]	; Load effective addr
387F:196F ˙50					push	ax			; PARAMETER_4
387F:1970  8D 46 EE				lea	ax,[bp+LOCAL_9]		; Load effective addr
387F:1973  50					push	ax			; PARAMETER_3
387F:1974  FF 76 06				push	word ptr [bp+PARAMETER_2]	; PARAMETER_2
387F:1977  FF 76 04				push	word ptr [bp+PARAMETER_1]	; PARAMETER_1
387F:197A  E8 0682				call	sub_47			; (1FFF)
387F:197D  83 C4 08				add	sp,8
387F:1980  0B C0				or	ax,ax			; Zero ?
387F:1982  74 69				jz	loc_150			; Jump if zero
387F:1984			loc_147:					;  xref 387F:196A
387F:1984  E8 03A7				call	sub_35			; (1D2E)
387F:1987  83 7E 06 10				cmp	word ptr [bp+PARAMETER_2],10h
387F:198B  72 0F				jb	loc_149			; Jump if below
387F:198D  77 06				ja	loc_148			; Jump if above
387F:198F  83 7E 04 00				cmp	word ptr [bp+PARAMETER_1],0
387F:1993  74 07				je	loc_149			; Jump if equal
387F:1995			loc_148:					;  xref 387F:198D, 19C5
387F:1995  E8 0374				call	sub_34			; (1D0C)
387F:1998  E9 00F6				jmp	loc_152			; (1A91)
387F:199B  90					db	90h
387F:199C			loc_149:					;  xref 387F:198B, 1993
387F:199C  8D 46 FE				lea	ax,[bp+LOCAL_1]		; Load effective addr
387F:199F  50					push	ax
387F:19A0  8B 46 04				mov	ax,[bp+PARAMETER_1]
387F:19A3  8B 56 06				mov	dx,[bp+PARAMETER_2]
387F:19A6  05 000F				add	ax,0Fh
387F:19A9  83 D2 00				adc	dx,0
387F:19AC  D1 EA				shr	dx,1			; Shift w/zeros fill
387F:19AE  D1 D8				rcr	ax,1			; Rotate thru carry
387F:19B0  D1 EA				shr	dx,1			; Shift w/zeros fill
387F:19B2  D1 D8				rcr	ax,1			; Rotate thru carry
387F:19B4  D1 EA				shr	dx,1			; Shift w/zeros fill
387F:19B6  D1 D8				rcr	ax,1			; Rotate thru carry
387F:19B8  D1 EA				shr	dx,1			; Shift w/zeros fill
387F:19BA  D1 D8				rcr	ax,1			; Rotate thru carry
387F:19BC  50					push	ax
387F:19BD  E8 11F6				call	sub_85			; (2BB6)
387F:19C0  83 C4 04				add	sp,4
387F:19C3  0B C0				or	ax,ax			; Zero ?
387F:19C5  75 CE				jnz	loc_148			; Jump if not zero
           ml.lst          Copyright (C) 1986-1991 Phar Lap	Sourcer	v8.01   7-Sep-2022 10:02 am   Page 49

387F:19C7  8B 46 FE				mov	ax,[bp+LOCAL_1]
387F:19CA  2B D2				sub	dx,dx
387F:19CC  D1 E0				shl	ax,1			; Shift w/zeros fill
387F:19CE  D1 D2				rcl	dx,1			; Rotate thru carry
387F:19D0  D1 E0				shl	ax,1			; Shift w/zeros fill
387F:19D2  D1 D2				rcl	dx,1			; Rotate thru carry
387F:19D4  D1 E0				shl	ax,1			; Shift w/zeros fill
387F:19D6  D1 D2				rcl	dx,1			; Rotate thru carry
387F:19D8  D1 E0				shl	ax,1			; Shift w/zeros fill
387F:19DA  D1 D2				rcl	dx,1			; Rotate thru carry
387F:19DC  89 46 EE				mov	[bp+LOCAL_9],ax
387F:19DF  89 56 F0				mov	[bp+LOCAL_8],dx
387F:19E2  2B C0				sub	ax,ax
387F:19E4  89 46 EC				mov	[bp+LOCAL_10],ax
387F:19E7  89 46 EA				mov	[bp+LOCAL_11],ax
387F:19EA  E8 031F				call	sub_34			; (1D0C)
387F:19ED			loc_150:					;  xref 387F:1982
387F:19ED  B1 05				mov	cl,5
387F:19EF  A0 0B68				mov	al,byte ptr data_61	; (3D48:0B68=0)
387F:19F2  D2 E0				shl	al,cl			; Shift w/zeros fill
387F:19F4  32 46 08				xor	al,[bp+PARAMETER_3]
387F:19F7  24 60				and	al,60h			; '`'
387F:19F9  30 46 08				xor	[bp+PARAMETER_3],al
387F:19FC  80 66 0A 7F				and	byte ptr [bp+PARAMETER_4],7Fh
387F:1A00  8B 46 04				mov	ax,[bp+PARAMETER_1]
387F:1A03  8B 56 06				mov	dx,[bp+PARAMETER_2]
387F:1A06  2D 0001				sub	ax,1
387F:1A09  83 DA 00				sbb	dx,0
387F:1A0C  89 46 E6				mov	[bp+LOCAL_13],ax
387F:1A0F  89 56 E8				mov	[bp+LOCAL_12],dx
387F:1A12  E8 0319				call	sub_35			; (1D2E)
387F:1A15  83 7E E8 10				cmp	word ptr [bp+LOCAL_12],10h
387F:1A19  72 28				jb	loc_151			; Jump if below
387F:1A1B  8B 46 E6				mov	ax,[bp+LOCAL_13]
387F:1A1E  8B 56 E8				mov	dx,[bp+LOCAL_12]
387F:1A21  8A C4				mov	al,ah
387F:1A23  8A E2				mov	ah,dl
387F:1A25  8A D6				mov	dl,dh
387F:1A27  2A F6				sub	dh,dh
387F:1A29  D1 EA				shr	dx,1			; Shift w/zeros fill
387F:1A2B  D1 D8				rcr	ax,1			; Rotate thru carry
387F:1A2D  D1 EA				shr	dx,1			; Shift w/zeros fill
387F:1A2F  D1 D8				rcr	ax,1			; Rotate thru carry
387F:1A31  D1 EA				shr	dx,1			; Shift w/zeros fill
387F:1A33  D1 D8				rcr	ax,1			; Rotate thru carry
387F:1A35  D1 EA				shr	dx,1			; Shift w/zeros fill
387F:1A37  D1 D8				rcr	ax,1			; Rotate thru carry
387F:1A39  89 46 E6				mov	[bp+LOCAL_13],ax
387F:1A3C  89 56 E8				mov	[bp+LOCAL_12],dx
387F:1A3F  80 4E 0A 80				or	byte ptr [bp+PARAMETER_4],80h
387F:1A43			loc_151:					;  xref 387F:1A19
387F:1A43  E8 02C6				call	sub_34			; (1D0C)
387F:1A46  8B 46 E6				mov	ax,[bp+LOCAL_13]
387F:1A49  89 46 F2				mov	[bp+LOCAL_7],ax
387F:1A4C  8B 46 EE				mov	ax,[bp+LOCAL_9]
387F:1A4F  89 46 F4				mov	[bp+LOCAL_6],ax
387F:1A52  8A 46 F0				mov	al,[bp+LOCAL_8]
           ml.lst          Copyright (C) 1986-1991 Phar Lap	Sourcer	v8.01   7-Sep-2022 10:02 am   Page 50

387F:1A55  88 46 F6				mov	[bp+LOCAL_5],al
387F:1A58  8A 46 08				mov	al,[bp+PARAMETER_3]
387F:1A5B  88 46 F7				mov	[bp-9],al
387F:1A5E  8A 46 E8				mov	al,[bp+LOCAL_12]
387F:1A61  32 46 0A				xor	al,[bp+PARAMETER_4]
387F:1A64  24 0F				and	al,0Fh
387F:1A66  32 46 0A				xor	al,[bp+PARAMETER_4]
387F:1A69  88 46 F8				mov	[bp+LOCAL_4],al
387F:1A6C  8A 46 F1				mov	al,[bp-0Fh]
387F:1A6F  2A E4				sub	ah,ah
387F:1A71  88 46 F9				mov	[bp-7],al
387F:1A74  8D 46 F2				lea	ax,[bp+LOCAL_7]		; Load effective addr
387F:1A77 ˙50					push	ax			; PARAMETER_2
387F:1A78  FF 76 FC				push	word ptr [bp+LOCAL_2]	; PARAMETER_1
387F:1A7B  E8 0627				call	sub_53			; (20A5)
387F:1A7E  83 C4 04				add	sp,4
387F:1A81  0B C0				or	ax,ax			; Zero ?
387F:1A83  74 17				jz	loc_153			; Jump if zero
387F:1A85 ˙FF 76 EC				push	word ptr [bp+LOCAL_10]	; PARAMETER_2
387F:1A88  FF 76 EA				push	word ptr [bp+LOCAL_11]	; PARAMETER_1
387F:1A8B  E8 05A4				call	sub_48			; (2032)
387F:1A8E  83 C4 04				add	sp,4
387F:1A91			loc_152:					;  xref 387F:1998
387F:1A91 ˙FF 76 FC				push	word ptr [bp+LOCAL_2]	; PARAMETER_1
387F:1A94  E8 FE75				call	sub_22			; (190C)
387F:1A97  83 C4 02				add	sp,2
387F:1A9A  EB 23				jmp	short loc_154		; (1ABF)
387F:1A9C			loc_153:					;  xref 387F:1A83
387F:1A9C ˙FF 76 EC				push	word ptr [bp+LOCAL_10]	; PARAMETER_3
387F:1A9F  FF 76 EA				push	word ptr [bp+LOCAL_11]	; PARAMETER_2
387F:1AA2  FF 76 FC				push	word ptr [bp+LOCAL_2]	; PARAMETER_1
387F:1AA5  E8 FCC2				call	sub_17			; (176A)
387F:1AA8  83 C4 06				add	sp,6
387F:1AAB  8B 46 EA				mov	ax,[bp+LOCAL_11]
387F:1AAE  8B 56 EC				mov	dx,[bp+LOCAL_10]
387F:1AB1  8B 5E 0E				mov	bx,[bp+PARAMETER_6]
387F:1AB4  89 07				mov	[bx],ax
387F:1AB6  89 57 02				mov	[bx+2],dx
387F:1AB9  8B 46 FC				mov	ax,[bp+LOCAL_2]
387F:1ABC  89 46 FA				mov	[bp+LOCAL_3],ax
387F:1ABF			loc_154:					;  xref 387F:1964, 1A9A
387F:1ABF  E8 026C				call	sub_35			; (1D2E)
387F:1AC2			loc_155:					;  xref 387F:194C
387F:1AC2  8B 46 FA				mov	ax,[bp+LOCAL_3]
387F:1AC5  8B E5				mov	sp,bp
387F:1AC7  5D					pop	bp
387F:1AC8  C3					retn
				sub_23		endp

387F:1AC9  90					db	90h

				;ﬂﬂﬂﬂﬂﬂﬂﬂﬂﬂﬂﬂﬂﬂﬂﬂﬂﬂﬂﬂﬂﬂﬂﬂﬂﬂﬂﬂﬂﬂﬂﬂﬂﬂﬂﬂﬂﬂﬂﬂﬂﬂﬂﬂﬂﬂﬂﬂﬂﬂﬂﬂﬂﬂﬂﬂﬂﬂﬂﬂﬂﬂﬂﬂﬂﬂﬂﬂﬂﬂﬂﬂﬂﬂ
				;                              SUBROUTINE
				;
				;         Called from:   387F:1379
				;‹‹‹‹‹‹‹‹‹‹‹‹‹‹‹‹‹‹‹‹‹‹‹‹‹‹‹‹‹‹‹‹‹‹‹‹‹‹‹‹‹‹‹‹‹‹‹‹‹‹‹‹‹‹‹‹‹‹‹‹‹‹‹‹‹‹‹‹‹‹‹‹‹‹

           ml.lst          Copyright (C) 1986-1991 Phar Lap	Sourcer	v8.01   7-Sep-2022 10:02 am   Page 51

387F:1ACA			sub_24		proc	near

				PARAMETER_1	=	4			; bp+4
				LOCAL_1		=	-2			; bp+0FFFEh

387F:1ACA  55					push	bp
387F:1ACB  8B EC				mov	bp,sp
387F:1ACD  83 EC 02				sub	sp,2
387F:1AD0  C7 46 FE 0001			mov	word ptr [bp+LOCAL_1],1
387F:1AD5  83 3E 0B74 00			cmp	data_66,0		; (3D48:0B74=0)
387F:1ADA  75 12				jne	loc_156			; Jump if not equal
387F:1ADC  E8 022D				call	sub_34			; (1D0C)
387F:1ADF ˙FF 76 04				push	word ptr [bp+PARAMETER_1]	; PARAMETER_1
387F:1AE2  E8 FD29				call	sub_20			; (180E)
387F:1AE5  83 C4 02				add	sp,2
387F:1AE8  89 46 FE				mov	[bp+LOCAL_1],ax
387F:1AEB  E8 0240				call	sub_35			; (1D2E)
387F:1AEE			loc_156:					;  xref 387F:1ADA
387F:1AEE  8B 46 FE				mov	ax,[bp+LOCAL_1]
387F:1AF1  8B E5				mov	sp,bp
387F:1AF3  5D					pop	bp
387F:1AF4  C3					retn
				sub_24		endp

387F:1AF5  90					db	90h

				;ﬂﬂﬂﬂﬂﬂﬂﬂﬂﬂﬂﬂﬂﬂﬂﬂﬂﬂﬂﬂﬂﬂﬂﬂﬂﬂﬂﬂﬂﬂﬂﬂﬂﬂﬂﬂﬂﬂﬂﬂﬂﬂﬂﬂﬂﬂﬂﬂﬂﬂﬂﬂﬂﬂﬂﬂﬂﬂﬂﬂﬂﬂﬂﬂﬂﬂﬂﬂﬂﬂﬂﬂﬂﬂ
				;                              SUBROUTINE
				;
				;         Called from:   387F:0EEC, 0F04
				;‹‹‹‹‹‹‹‹‹‹‹‹‹‹‹‹‹‹‹‹‹‹‹‹‹‹‹‹‹‹‹‹‹‹‹‹‹‹‹‹‹‹‹‹‹‹‹‹‹‹‹‹‹‹‹‹‹‹‹‹‹‹‹‹‹‹‹‹‹‹‹‹‹‹

387F:1AF6			sub_25		proc	near

				PARAMETER_1	=	4			; bp+4
				LOCAL_6		=	-0Ch			; bp+0FFF4h
				LOCAL_5		=	-0Ah			; bp+0FFF6h
				LOCAL_4		=	-8			; bp+0FFF8h
				LOCAL_3		=	-6			; bp+0FFFAh
				LOCAL_2		=	-4			; bp+0FFFCh
				LOCAL_1		=	-2			; bp+0FFFEh

387F:1AF6  55					push	bp
387F:1AF7  8B EC				mov	bp,sp
387F:1AF9  83 EC 0C				sub	sp,0Ch
387F:1AFC  C7 46 FC 0000			mov	word ptr [bp+LOCAL_2],0
387F:1B01  8D 46 FE				lea	ax,[bp+LOCAL_1]		; Load effective addr
387F:1B04 ˙50					push	ax			; PARAMETER_2
387F:1B05  B8 0001				mov	ax,1
387F:1B08  50					push	ax			; PARAMETER_1
387F:1B09  E8 0447				call	sub_44			; (1F53)
387F:1B0C  83 C4 04				add	sp,4
387F:1B0F  0B C0				or	ax,ax			; Zero ?
387F:1B11  75 38				jnz	loc_159			; Jump if not zero
387F:1B13  8D 46 F4				lea	ax,[bp+LOCAL_6]		; Load effective addr
387F:1B16 ˙50					push	ax			; PARAMETER_2
387F:1B17  FF 76 04				push	word ptr [bp+PARAMETER_1]	; PARAMETER_1
           ml.lst          Copyright (C) 1986-1991 Phar Lap	Sourcer	v8.01   7-Sep-2022 10:02 am   Page 52

387F:1B1A  E8 00A5				call	sub_27			; (1BC2)
387F:1B1D  83 C4 04				add	sp,4
387F:1B20  0B C0				or	ax,ax			; Zero ?
387F:1B22  74 0C				jz	loc_158			; Jump if zero
387F:1B24			loc_157:					;  xref 387F:1B43
387F:1B24 ˙FF 76 FE				push	word ptr [bp+LOCAL_1]	; PARAMETER_1
387F:1B27  E8 FDE2				call	sub_22			; (190C)
387F:1B2A  83 C4 02				add	sp,2
387F:1B2D  EB 1C				jmp	short loc_159		; (1B4B)
387F:1B2F  90					db	90h
387F:1B30			loc_158:					;  xref 387F:1B22
387F:1B30  80 4E FA 40				or	byte ptr [bp+LOCAL_3],40h	; '@'
387F:1B34  8D 46 F4				lea	ax,[bp+LOCAL_6]		; Load effective addr
387F:1B37 ˙50					push	ax			; PARAMETER_2
387F:1B38  FF 76 FE				push	word ptr [bp+LOCAL_1]	; PARAMETER_1
387F:1B3B  E8 0567				call	sub_53			; (20A5)
387F:1B3E  83 C4 04				add	sp,4
387F:1B41  0B C0				or	ax,ax			; Zero ?
387F:1B43  75 DF				jnz	loc_157			; Jump if not zero
387F:1B45  8B 46 FE				mov	ax,[bp+LOCAL_1]
387F:1B48  89 46 FC				mov	[bp+LOCAL_2],ax
387F:1B4B			loc_159:					;  xref 387F:1B11, 1B2D
387F:1B4B  8B 46 FC				mov	ax,[bp+LOCAL_2]
387F:1B4E  8B E5				mov	sp,bp
387F:1B50  5D					pop	bp
387F:1B51  C3					retn
				sub_25		endp


				;ﬂﬂﬂﬂﬂﬂﬂﬂﬂﬂﬂﬂﬂﬂﬂﬂﬂﬂﬂﬂﬂﬂﬂﬂﬂﬂﬂﬂﬂﬂﬂﬂﬂﬂﬂﬂﬂﬂﬂﬂﬂﬂﬂﬂﬂﬂﬂﬂﬂﬂﬂﬂﬂﬂﬂﬂﬂﬂﬂﬂﬂﬂﬂﬂﬂﬂﬂﬂﬂﬂﬂﬂﬂﬂ
				;                              SUBROUTINE
				;
				;         Called from:   387F:1368
				;‹‹‹‹‹‹‹‹‹‹‹‹‹‹‹‹‹‹‹‹‹‹‹‹‹‹‹‹‹‹‹‹‹‹‹‹‹‹‹‹‹‹‹‹‹‹‹‹‹‹‹‹‹‹‹‹‹‹‹‹‹‹‹‹‹‹‹‹‹‹‹‹‹‹

387F:1B52			sub_26		proc	near

				PARAMETER_1	=	4			; bp+4
				LOCAL_6		=	-0Ch			; bp+0FFF4h
				LOCAL_5		=	-0Ah			; bp+0FFF6h
				LOCAL_4		=	-8			; bp+0FFF8h
				LOCAL_3		=	-6			; bp+0FFFAh
				LOCAL_2		=	-4			; bp+0FFFCh
				LOCAL_1		=	-2			; bp+0FFFEh

387F:1B52  55					push	bp
387F:1B53  8B EC				mov	bp,sp
387F:1B55  83 EC 0C				sub	sp,0Ch
387F:1B58  C7 46 FC 0000			mov	word ptr [bp+LOCAL_2],0
387F:1B5D  8D 46 FE				lea	ax,[bp+LOCAL_1]		; Load effective addr
387F:1B60 ˙50					push	ax			; PARAMETER_2
387F:1B61  B8 0001				mov	ax,1
387F:1B64  50					push	ax			; PARAMETER_1
387F:1B65  E8 03EB				call	sub_44			; (1F53)
387F:1B68  83 C4 04				add	sp,4
387F:1B6B  0B C0				or	ax,ax			; Zero ?
387F:1B6D  75 4C				jnz	loc_162			; Jump if not zero
           ml.lst          Copyright (C) 1986-1991 Phar Lap	Sourcer	v8.01   7-Sep-2022 10:02 am   Page 53

387F:1B6F  8D 46 F4				lea	ax,[bp+LOCAL_6]		; Load effective addr
387F:1B72 ˙50					push	ax			; PARAMETER_2
387F:1B73  FF 76 04				push	word ptr [bp+PARAMETER_1]	; PARAMETER_1
387F:1B76  E8 0049				call	sub_27			; (1BC2)
387F:1B79  83 C4 04				add	sp,4
387F:1B7C  0B C0				or	ax,ax			; Zero ?
387F:1B7E  74 0C				jz	loc_161			; Jump if zero
387F:1B80			loc_160:					;  xref 387F:1BB3
387F:1B80 ˙FF 76 FE				push	word ptr [bp+LOCAL_1]	; PARAMETER_1
387F:1B83  E8 FD86				call	sub_22			; (190C)
387F:1B86  83 C4 02				add	sp,2
387F:1B89  EB 30				jmp	short loc_162		; (1BBB)
387F:1B8B  90					db	90h
387F:1B8C			loc_161:					;  xref 387F:1B7E
387F:1B8C  80 66 F9 F0				and	byte ptr [bp-7],0F0h
387F:1B90  80 4E F9 12				or	byte ptr [bp-7],12h
387F:1B94  80 66 F9 9F				and	byte ptr [bp-7],9Fh
387F:1B98  B1 05				mov	cl,5
387F:1B9A  8A 46 FE				mov	al,[bp+LOCAL_1]
387F:1B9D  24 03				and	al,3
387F:1B9F  D2 E0				shl	al,cl			; Shift w/zeros fill
387F:1BA1  08 46 F9				or	[bp-7],al
387F:1BA4  8D 46 F4				lea	ax,[bp+LOCAL_6]		; Load effective addr
387F:1BA7 ˙50					push	ax			; PARAMETER_2
387F:1BA8  FF 76 FE				push	word ptr [bp+LOCAL_1]	; PARAMETER_1
387F:1BAB  E8 04F7				call	sub_53			; (20A5)
387F:1BAE  83 C4 04				add	sp,4
387F:1BB1  0B C0				or	ax,ax			; Zero ?
387F:1BB3  75 CB				jnz	loc_160			; Jump if not zero
387F:1BB5  8B 46 FE				mov	ax,[bp+LOCAL_1]
387F:1BB8  89 46 FC				mov	[bp+LOCAL_2],ax
387F:1BBB			loc_162:					;  xref 387F:1B6D, 1B89
387F:1BBB  8B 46 FC				mov	ax,[bp+LOCAL_2]
387F:1BBE  8B E5				mov	sp,bp
387F:1BC0  5D					pop	bp
387F:1BC1  C3					retn
				sub_26		endp


				;ﬂﬂﬂﬂﬂﬂﬂﬂﬂﬂﬂﬂﬂﬂﬂﬂﬂﬂﬂﬂﬂﬂﬂﬂﬂﬂﬂﬂﬂﬂﬂﬂﬂﬂﬂﬂﬂﬂﬂﬂﬂﬂﬂﬂﬂﬂﬂﬂﬂﬂﬂﬂﬂﬂﬂﬂﬂﬂﬂﬂﬂﬂﬂﬂﬂﬂﬂﬂﬂﬂﬂﬂﬂﬂ
				;                              SUBROUTINE
				;
				;         Called from:   387F:16D9, 1B1A, 1B76
				;‹‹‹‹‹‹‹‹‹‹‹‹‹‹‹‹‹‹‹‹‹‹‹‹‹‹‹‹‹‹‹‹‹‹‹‹‹‹‹‹‹‹‹‹‹‹‹‹‹‹‹‹‹‹‹‹‹‹‹‹‹‹‹‹‹‹‹‹‹‹‹‹‹‹

387F:1BC2			sub_27		proc	near

				PARAMETER_1	=	4			; bp+4
				PARAMETER_2	=	6			; bp+6
				LOCAL_3		=	-6			; bp+0FFFAh
				LOCAL_2		=	-4			; bp+0FFFCh
				LOCAL_1		=	-2			; bp+0FFFEh

387F:1BC2  55					push	bp
387F:1BC3  8B EC				mov	bp,sp
387F:1BC5  83 EC 06				sub	sp,6
387F:1BC8  57					push	di
           ml.lst          Copyright (C) 1986-1991 Phar Lap	Sourcer	v8.01   7-Sep-2022 10:02 am   Page 54

387F:1BC9  56					push	si
387F:1BCA  8B 76 04				mov	si,[bp+PARAMETER_1]
387F:1BCD  8B 7E 06				mov	di,[bp+PARAMETER_2]
387F:1BD0  F7 C6 0004				test	si,4
387F:1BD4  75 08				jnz	loc_164			; Jump if not zero
387F:1BD6			loc_163:					;  xref 387F:1BE8
387F:1BD6  C7 46 FE FFF8			mov	word ptr [bp+LOCAL_1],0FFF8h
387F:1BDB  EB 10				jmp	short loc_165		; (1BED)
							                        ;* No entry point to code
387F:1BDD  90					nop
387F:1BDE			loc_164:					;  xref 387F:1BD4
387F:1BDE ˙57					push	di			; PARAMETER_2
387F:1BDF  56					push	si			; PARAMETER_1
387F:1BE0  E8 03E3				call	sub_46			; (1FC6)
387F:1BE3  83 C4 04				add	sp,4
387F:1BE6  0B C0				or	ax,ax			; Zero ?
387F:1BE8  75 EC				jnz	loc_163			; Jump if not zero
387F:1BEA  89 46 FE				mov	[bp+LOCAL_1],ax
387F:1BED			loc_165:					;  xref 387F:1BDB
387F:1BED  8B 46 FE				mov	ax,[bp+LOCAL_1]
387F:1BF0  5E					pop	si
387F:1BF1  5F					pop	di
387F:1BF2  8B E5				mov	sp,bp
387F:1BF4  5D					pop	bp
387F:1BF5  C3					retn
				sub_27		endp


				;ﬂﬂﬂﬂﬂﬂﬂﬂﬂﬂﬂﬂﬂﬂﬂﬂﬂﬂﬂﬂﬂﬂﬂﬂﬂﬂﬂﬂﬂﬂﬂﬂﬂﬂﬂﬂﬂﬂﬂﬂﬂﬂﬂﬂﬂﬂﬂﬂﬂﬂﬂﬂﬂﬂﬂﬂﬂﬂﬂﬂﬂﬂﬂﬂﬂﬂﬂﬂﬂﬂﬂﬂﬂﬂ
				;                              SUBROUTINE
				;
				;         Called from:   387F:0AC6, 0B62
				;‹‹‹‹‹‹‹‹‹‹‹‹‹‹‹‹‹‹‹‹‹‹‹‹‹‹‹‹‹‹‹‹‹‹‹‹‹‹‹‹‹‹‹‹‹‹‹‹‹‹‹‹‹‹‹‹‹‹‹‹‹‹‹‹‹‹‹‹‹‹‹‹‹‹

387F:1BF6			sub_28		proc	near

				PARAMETER_1	=	4			; bp+4

387F:1BF6  55					push	bp
387F:1BF7  8B EC				mov	bp,sp
387F:1BF9  B8 0B44				mov	ax,0B44h
387F:1BFC ˙50					push	ax			; PARAMETER_2
387F:1BFD  FF 76 04				push	word ptr [bp+PARAMETER_1]	; PARAMETER_1
387F:1C00  E8 0873				call	sub_62			; (2476)
387F:1C03  8B E5				mov	sp,bp
387F:1C05  A3 0D18				mov	data_83,ax		; (3D48:0D18=0)
387F:1C08  0B C0				or	ax,ax			; Zero ?
387F:1C0A  75 06				jnz	loc_166			; Jump if not zero
387F:1C0C  B8 0001				mov	ax,1
387F:1C0F  5D					pop	bp
387F:1C10  C3					retn
387F:1C11  90					db	90h
387F:1C12			loc_166:					;  xref 387F:1C0A
387F:1C12  2B C0				sub	ax,ax
387F:1C14  5D					pop	bp
387F:1C15  C3					retn
				sub_28		endp
           ml.lst          Copyright (C) 1986-1991 Phar Lap	Sourcer	v8.01   7-Sep-2022 10:02 am   Page 55



				;ﬂﬂﬂﬂﬂﬂﬂﬂﬂﬂﬂﬂﬂﬂﬂﬂﬂﬂﬂﬂﬂﬂﬂﬂﬂﬂﬂﬂﬂﬂﬂﬂﬂﬂﬂﬂﬂﬂﬂﬂﬂﬂﬂﬂﬂﬂﬂﬂﬂﬂﬂﬂﬂﬂﬂﬂﬂﬂﬂﬂﬂﬂﬂﬂﬂﬂﬂﬂﬂﬂﬂﬂﬂﬂ
				;                              SUBROUTINE
				;
				;         Called from:   387F:0F93, 0FDB, 1026, 1079, 10B1, 1106, 1191
				;                             163B
				;‹‹‹‹‹‹‹‹‹‹‹‹‹‹‹‹‹‹‹‹‹‹‹‹‹‹‹‹‹‹‹‹‹‹‹‹‹‹‹‹‹‹‹‹‹‹‹‹‹‹‹‹‹‹‹‹‹‹‹‹‹‹‹‹‹‹‹‹‹‹‹‹‹‹

387F:1C16			sub_29		proc	near

				PARAMETER_1	=	4			; bp+4
				PARAMETER_2	=	6			; bp+6
				LOCAL_1		=	-2			; bp+0FFFEh

387F:1C16  55					push	bp
387F:1C17  8B EC				mov	bp,sp
387F:1C19  83 EC 02				sub	sp,2
387F:1C1C ˙FF 36 0D18				push	data_83			; PARAMETER_4 (3D48:0D18=0)
387F:1C20  FF 76 06				push	word ptr [bp+PARAMETER_2]	; PARAMETER_3
387F:1C23  B8 0001				mov	ax,1
387F:1C26  50					push	ax			; PARAMETER_2
387F:1C27  FF 76 04				push	word ptr [bp+PARAMETER_1]	; PARAMETER_1
387F:1C2A  E8 085D				call	sub_63			; (248A)
387F:1C2D  83 C4 08				add	sp,8
387F:1C30  8B 1E 0D18				mov	bx,data_83		; (3D48:0D18=0)
387F:1C34  F6 47 06 20				test	byte ptr [bx+6],20h	; ' '
387F:1C38  74 03				jz	loc_167			; Jump if zero
387F:1C3A  B8 FFFF				mov	ax,0FFFFh
387F:1C3D			loc_167:					;  xref 387F:1C38
387F:1C3D  8B E5				mov	sp,bp
387F:1C3F  5D					pop	bp
387F:1C40  C3					retn
				sub_29		endp

387F:1C41  90					db	90h

				;ﬂﬂﬂﬂﬂﬂﬂﬂﬂﬂﬂﬂﬂﬂﬂﬂﬂﬂﬂﬂﬂﬂﬂﬂﬂﬂﬂﬂﬂﬂﬂﬂﬂﬂﬂﬂﬂﬂﬂﬂﬂﬂﬂﬂﬂﬂﬂﬂﬂﬂﬂﬂﬂﬂﬂﬂﬂﬂﬂﬂﬂﬂﬂﬂﬂﬂﬂﬂﬂﬂﬂﬂﬂﬂ
				;                              SUBROUTINE
				;
				;         Called from:   387F:0F7E, 0FC5, 1011, 1064, 109C, 10F0, 117F
				;                             1419
				;‹‹‹‹‹‹‹‹‹‹‹‹‹‹‹‹‹‹‹‹‹‹‹‹‹‹‹‹‹‹‹‹‹‹‹‹‹‹‹‹‹‹‹‹‹‹‹‹‹‹‹‹‹‹‹‹‹‹‹‹‹‹‹‹‹‹‹‹‹‹‹‹‹‹

387F:1C42			sub_30		proc	near

				PARAMETER_1	=	4			; bp+4
				PARAMETER_2	=	6			; bp+6
				LOCAL_1		=	-2			; bp+0FFFEh

387F:1C42  55					push	bp
387F:1C43  8B EC				mov	bp,sp
387F:1C45  83 EC 02				sub	sp,2
387F:1C48  C7 46 FE 0001			mov	word ptr [bp+LOCAL_1],1
387F:1C4D  2B C0				sub	ax,ax
387F:1C4F ˙50					push	ax			; PARAMETER_4
387F:1C50  FF 76 06				push	word ptr [bp+PARAMETER_2]	; PARAMETER_3
           ml.lst          Copyright (C) 1986-1991 Phar Lap	Sourcer	v8.01   7-Sep-2022 10:02 am   Page 56

387F:1C53  FF 76 04				push	word ptr [bp+PARAMETER_1]	; PARAMETER_2
387F:1C56  FF 36 0D18				push	data_83			; PARAMETER_1 (3D48:0D18=0)
387F:1C5A  E8 0B6F				call	sub_73			; (27CC)
387F:1C5D  83 C4 08				add	sp,8
387F:1C60  8B 1E 0D18				mov	bx,data_83		; (3D48:0D18=0)
387F:1C64  F6 47 06 20				test	byte ptr [bx+6],20h	; ' '
387F:1C68  75 05				jnz	loc_168			; Jump if not zero
387F:1C6A  C7 46 FE 0000			mov	word ptr [bp+LOCAL_1],0
387F:1C6F			loc_168:					;  xref 387F:1C68
387F:1C6F  8B 46 FE				mov	ax,[bp+LOCAL_1]
387F:1C72  8B E5				mov	sp,bp
387F:1C74  5D					pop	bp
387F:1C75  C3					retn
				sub_30		endp


				;ﬂﬂﬂﬂﬂﬂﬂﬂﬂﬂﬂﬂﬂﬂﬂﬂﬂﬂﬂﬂﬂﬂﬂﬂﬂﬂﬂﬂﬂﬂﬂﬂﬂﬂﬂﬂﬂﬂﬂﬂﬂﬂﬂﬂﬂﬂﬂﬂﬂﬂﬂﬂﬂﬂﬂﬂﬂﬂﬂﬂﬂﬂﬂﬂﬂﬂﬂﬂﬂﬂﬂﬂﬂﬂ
				;                              SUBROUTINE
				;
				;         Called from:   387F:0B75
				;‹‹‹‹‹‹‹‹‹‹‹‹‹‹‹‹‹‹‹‹‹‹‹‹‹‹‹‹‹‹‹‹‹‹‹‹‹‹‹‹‹‹‹‹‹‹‹‹‹‹‹‹‹‹‹‹‹‹‹‹‹‹‹‹‹‹‹‹‹‹‹‹‹‹

387F:1C76			sub_31		proc	near
387F:1C76  83 3E 0D18 00			cmp	data_83,0		; (3D48:0D18=0)
387F:1C7B  74 0A				je	loc_169			; Jump if equal
387F:1C7D ˙FF 36 0D18				push	data_83			; PARAMETER_1 (3D48:0D18=0)
387F:1C81  E8 071C				call	sub_60			; (23A0)
387F:1C84  83 C4 02				add	sp,2
387F:1C87			loc_169:					;  xref 387F:1C7B
387F:1C87  C7 06 0D18 0000			mov	data_83,0		; (3D48:0D18=0)
387F:1C8D  C3					retn
				sub_31		endp


				;ﬂﬂﬂﬂﬂﬂﬂﬂﬂﬂﬂﬂﬂﬂﬂﬂﬂﬂﬂﬂﬂﬂﬂﬂﬂﬂﬂﬂﬂﬂﬂﬂﬂﬂﬂﬂﬂﬂﬂﬂﬂﬂﬂﬂﬂﬂﬂﬂﬂﬂﬂﬂﬂﬂﬂﬂﬂﬂﬂﬂﬂﬂﬂﬂﬂﬂﬂﬂﬂﬂﬂﬂﬂﬂ
				;                              SUBROUTINE
				;
				;         Called from:   387F:060C, 0661, 066F, 067D, 068F, 0A2E, 0A3C
				;                             0A4B, 0ABB, 0C22, 0CA7, 0CB9, 0CC8, 0CD6
				;                             0CE4, 0CF6, 0E5A, 0E68, 0E76, 0E84, 0F41
				;                             0FA8, 1003, 108E, 10C3, 10D5, 111D, 112B
				;                             1139, 1153, 1171, 12F3, 1317, 132D, 138F
				;                             13C7, 1450, 1473, 14D8, 15BC
				;‹‹‹‹‹‹‹‹‹‹‹‹‹‹‹‹‹‹‹‹‹‹‹‹‹‹‹‹‹‹‹‹‹‹‹‹‹‹‹‹‹‹‹‹‹‹‹‹‹‹‹‹‹‹‹‹‹‹‹‹‹‹‹‹‹‹‹‹‹‹‹‹‹‹

387F:1C8E			sub_32		proc	near

				PARAMETER_1	=	4			; bp+4
				PARAMETER_2	=	6			; bp+6

387F:1C8E  55					push	bp			; PARAMETER_2
387F:1C8F  8B EC				mov	bp,sp
387F:1C91  83 3E 0DA4 00			cmp	data_109,0		; (3D48:0DA4=0)
387F:1C96  74 13				je	loc_170			; Jump if equal
387F:1C98  B8 0B48				mov	ax,0B48h
387F:1C9B  50					push	ax			; PARAMETER_1
387F:1C9C  E8 08CB				call	sub_64			; (256A)
           ml.lst          Copyright (C) 1986-1991 Phar Lap	Sourcer	v8.01   7-Sep-2022 10:02 am   Page 57

387F:1C9F  8B E5				mov	sp,bp
387F:1CA1  8D 46 06				lea	ax,[bp+PARAMETER_2]	; Load effective addr
387F:1CA4 ˙50					push	ax			; PARAMETER_2
387F:1CA5  FF 76 04				push	word ptr [bp+PARAMETER_1]	; PARAMETER_1
387F:1CA8  E8 0BF1				call	sub_75			; (289C)
387F:1CAB			loc_170:					;  xref 387F:1C96
387F:1CAB  8B E5				mov	sp,bp
387F:1CAD  5D					pop	bp
387F:1CAE  C3					retn
				sub_32		endp

387F:1CAF  90					db	90h

				;ﬂﬂﬂﬂﬂﬂﬂﬂﬂﬂﬂﬂﬂﬂﬂﬂﬂﬂﬂﬂﬂﬂﬂﬂﬂﬂﬂﬂﬂﬂﬂﬂﬂﬂﬂﬂﬂﬂﬂﬂﬂﬂﬂﬂﬂﬂﬂﬂﬂﬂﬂﬂﬂﬂﬂﬂﬂﬂﬂﬂﬂﬂﬂﬂﬂﬂﬂﬂﬂﬂﬂﬂﬂﬂ
				;                              SUBROUTINE
				;
				;         Called from:   387F:063F, 0805, 0BAF
				;‹‹‹‹‹‹‹‹‹‹‹‹‹‹‹‹‹‹‹‹‹‹‹‹‹‹‹‹‹‹‹‹‹‹‹‹‹‹‹‹‹‹‹‹‹‹‹‹‹‹‹‹‹‹‹‹‹‹‹‹‹‹‹‹‹‹‹‹‹‹‹‹‹‹

387F:1CB0			sub_33		proc	near

				PARAMETER_1	=	4			; bp+4
				PARAMETER_2	=	6			; bp+6
				PARAMETER_3	=	8			; bp+8
				LOCAL_2		=	-4			; bp+0FFFCh
				LOCAL_1		=	-2			; bp+0FFFEh

387F:1CB0  55					push	bp
387F:1CB1  8B EC				mov	bp,sp
387F:1CB3  83 EC 04				sub	sp,4
387F:1CB6  56					push	si
387F:1CB7  8B 46 04				mov	ax,[bp+PARAMETER_1]
387F:1CBA  8B 5E 06				mov	bx,[bp+PARAMETER_2]
387F:1CBD  89 07				mov	[bx],ax
387F:1CBF  8B 76 08				mov	si,[bp+PARAMETER_3]
387F:1CC2  C7 04 0B50				mov	word ptr [si],0B50h
387F:1CC6  C7 46 FC 014E			mov	word ptr [bp+LOCAL_2],14Eh
387F:1CCB  80 3E 014E 00			cmp	byte ptr data_42,0	; (3D48:014E=0)
387F:1CD0  74 30				je	loc_172			; Jump if equal
387F:1CD2  80 3E 014E 2D			cmp	byte ptr data_42,2Dh	; (3D48:014E=0) '-'
387F:1CD7  74 21				je	loc_171			; Jump if equal
387F:1CD9  B8 0020				mov	ax,20h
387F:1CDC ˙50					push	ax			; PARAMETER_2
387F:1CDD  B8 014E				mov	ax,14Eh
387F:1CE0  89 07				mov	[bx],ax
387F:1CE2  50					push	ax			; PARAMETER_1
387F:1CE3  E8 0BF2				call	sub_76			; (28D8)
387F:1CE6  83 C4 04				add	sp,4
387F:1CE9  0B C0				or	ax,ax			; Zero ?
387F:1CEB  74 15				jz	loc_172			; Jump if zero
387F:1CED  8B D8				mov	bx,ax
387F:1CEF  C6 07 00				mov	byte ptr [bx],0
387F:1CF2  40					inc	ax
387F:1CF3  89 04				mov	[si],ax
387F:1CF5  5E					pop	si
387F:1CF6  8B E5				mov	sp,bp
387F:1CF8  5D					pop	bp
           ml.lst          Copyright (C) 1986-1991 Phar Lap	Sourcer	v8.01   7-Sep-2022 10:02 am   Page 58

387F:1CF9  C3					retn
387F:1CFA			loc_171:					;  xref 387F:1CD7
387F:1CFA  8B 46 FC				mov	ax,[bp+LOCAL_2]
387F:1CFD  8B 5E 08				mov	bx,[bp+PARAMETER_3]
387F:1D00  89 07				mov	[bx],ax
387F:1D02			loc_172:					;  xref 387F:1CD0, 1CEB
387F:1D02  5E					pop	si
387F:1D03  8B E5				mov	sp,bp
387F:1D05  5D					pop	bp
387F:1D06  C3					retn
				sub_33		endp

387F:1D07  90 FF FF FF FF			db	 90h,0FFh,0FFh,0FFh,0FFh

				;ﬂﬂﬂﬂﬂﬂﬂﬂﬂﬂﬂﬂﬂﬂﬂﬂﬂﬂﬂﬂﬂﬂﬂﬂﬂﬂﬂﬂﬂﬂﬂﬂﬂﬂﬂﬂﬂﬂﬂﬂﬂﬂﬂﬂﬂﬂﬂﬂﬂﬂﬂﬂﬂﬂﬂﬂﬂﬂﬂﬂﬂﬂﬂﬂﬂﬂﬂﬂﬂﬂﬂﬂﬂﬂ
				;                              SUBROUTINE
				;
				;         Called from:   387F:0C2B, 0C3D, 0C84, 0D30, 0D70, 0EDC, 11EF
				;                             131D, 1333, 1357, 1395, 13CD, 1423, 1491
				;                             14DE, 1554, 1646, 188E, 194F, 1995, 19EA
				;                             1A43, 1ADC
				;‹‹‹‹‹‹‹‹‹‹‹‹‹‹‹‹‹‹‹‹‹‹‹‹‹‹‹‹‹‹‹‹‹‹‹‹‹‹‹‹‹‹‹‹‹‹‹‹‹‹‹‹‹‹‹‹‹‹‹‹‹‹‹‹‹‹‹‹‹‹‹‹‹‹

387F:1D0C			sub_34		proc	near
387F:1D0C  55					push	bp
387F:1D0D  56					push	si
387F:1D0E  57					push	di
387F:1D0F  A1 0B6A				mov	ax,data_62		; (3D48:0B6A=0)
387F:1D12  8B C8				mov	cx,ax
387F:1D14  8B D0				mov	dx,ax
387F:1D16  8B DC				mov	bx,sp
387F:1D18  8B 36 0B68				mov	si,data_61		; (3D48:0B68=0)
387F:1D1C  BF 1D28				mov	di,1D28h
387F:1D1F  0F			;*		pop	cs			; Dangerous-8088 only
387F:1D1F  0F					db	0Fh
387F:1D20  B2 26				mov	dl,26h			; '&'
387F:1D22  42					inc	dx
387F:1D23  00 FF				add	bh,bh
387F:1D25  1E					push	ds
387F:1D26  76 0B		;*		jbe	loc_173			;*Jump if below or =
387F:1D26  76 0B				db	 76h, 0Bh
387F:1D28  1E					push	ds
387F:1D29  07					pop	es
387F:1D2A  5F					pop	di
387F:1D2B  5E					pop	si
387F:1D2C  5D					pop	bp
387F:1D2D  C3					retn

				;ﬂﬂﬂﬂ External Entry into Subroutine ﬂﬂﬂﬂﬂﬂﬂﬂﬂﬂﬂﬂﬂﬂﬂﬂﬂﬂﬂﬂﬂﬂﬂﬂﬂﬂﬂﬂﬂﬂﬂﬂﬂﬂﬂﬂﬂﬂ
				;
				;         Called from:   387F:0C9D, 0D49, 0D88, 0ED6, 0EF9, 0F11, 12DA
				;                             1320, 1336, 1380, 13C0, 1405, 1441, 14BC
				;                             1509, 15B5, 1661, 1865, 1984, 1A12, 1ABF
				;                             1AEB

387F:1D2E			sub_35:
387F:1D2E  55					push	bp
           ml.lst          Copyright (C) 1986-1991 Phar Lap	Sourcer	v8.01   7-Sep-2022 10:02 am   Page 59

387F:1D2F  56					push	si
387F:1D30  57					push	di
387F:1D31  A1 0B66				mov	ax,data_60		; (3D48:0B66=0)
387F:1D34  8B C8				mov	cx,ax
387F:1D36  8B D0				mov	dx,ax
387F:1D38  8B DC				mov	bx,sp
387F:1D3A  8B 36 0B64				mov	si,data_59		; (3D48:0B64=0)
387F:1D3E  BF 1D46				mov	di,1D46h
387F:1D41  66 FF 1E 7E 0B 5F			db	 66h,0FFh, 1Eh, 7Eh, 0Bh, 5Fh
387F:1D47  5E 5D C3				db	 5Eh, 5Dh,0C3h
				sub_34		endp


				;ﬂﬂﬂﬂﬂﬂﬂﬂﬂﬂﬂﬂﬂﬂﬂﬂﬂﬂﬂﬂﬂﬂﬂﬂﬂﬂﬂﬂﬂﬂﬂﬂﬂﬂﬂﬂﬂﬂﬂﬂﬂﬂﬂﬂﬂﬂﬂﬂﬂﬂﬂﬂﬂﬂﬂﬂﬂﬂﬂﬂﬂﬂﬂﬂﬂﬂﬂﬂﬂﬂﬂﬂﬂﬂ
				;                              SUBROUTINE
				;
				;         Called from:   387F:0DBC, 0EB2
				;‹‹‹‹‹‹‹‹‹‹‹‹‹‹‹‹‹‹‹‹‹‹‹‹‹‹‹‹‹‹‹‹‹‹‹‹‹‹‹‹‹‹‹‹‹‹‹‹‹‹‹‹‹‹‹‹‹‹‹‹‹‹‹‹‹‹‹‹‹‹‹‹‹‹

387F:1D4A			sub_36		proc	near

				PARAMETER_1	=	4			; bp+4

387F:1D4A  55					push	bp
387F:1D4B  8B EC				mov	bp,sp
387F:1D4D  53					push	bx
387F:1D4E  8B 5E 04				mov	bx,[bp+PARAMETER_1]
387F:1D51  8C 07				mov	[bx],es
387F:1D53  8C 4F 02				mov	[bx+2],cs
387F:1D56  8C 57 04				mov	[bx+4],ss
387F:1D59  8C 5F 06				mov	[bx+6],ds
387F:1D5C  5B					pop	bx
387F:1D5D  5D					pop	bp
387F:1D5E  C3					retn
				sub_36		endp


				;ﬂﬂﬂﬂﬂﬂﬂﬂﬂﬂﬂﬂﬂﬂﬂﬂﬂﬂﬂﬂﬂﬂﬂﬂﬂﬂﬂﬂﬂﬂﬂﬂﬂﬂﬂﬂﬂﬂﬂﬂﬂﬂﬂﬂﬂﬂﬂﬂﬂﬂﬂﬂﬂﬂﬂﬂﬂﬂﬂﬂﬂﬂﬂﬂﬂﬂﬂﬂﬂﬂﬂﬂﬂﬂ
				;                              SUBROUTINE
				;
				;         Called from:   387F:0EAB
				;‹‹‹‹‹‹‹‹‹‹‹‹‹‹‹‹‹‹‹‹‹‹‹‹‹‹‹‹‹‹‹‹‹‹‹‹‹‹‹‹‹‹‹‹‹‹‹‹‹‹‹‹‹‹‹‹‹‹‹‹‹‹‹‹‹‹‹‹‹‹‹‹‹‹

387F:1D5F			sub_37		proc	near
387F:1D5F  66 25 FF FF 00 00			db	 66h, 25h,0FFh,0FFh, 00h, 00h
387F:1D65  66 81 E3 FF FF 00			db	 66h, 81h,0E3h,0FFh,0FFh, 00h
387F:1D6B  00 66 81 E1 FF FF			db	 00h, 66h, 81h,0E1h,0FFh,0FFh
387F:1D71  00 00 66 81 E2 FF			db	 00h, 00h, 66h, 81h,0E2h,0FFh
387F:1D77  FF 00 00 66 81 E6			db	0FFh, 00h, 00h, 66h, 81h,0E6h
387F:1D7D  FF FF 00 00 66 81			db	0FFh,0FFh, 00h, 00h, 66h, 81h
387F:1D83  E7 FF FF 00 00 66			db	0E7h,0FFh,0FFh, 00h, 00h, 66h
387F:1D89  81 E5 FF FF 00 00			db	 81h,0E5h,0FFh,0FFh, 00h, 00h
387F:1D8F  66 81 E4 FF FF 00			db	 66h, 81h,0E4h,0FFh,0FFh, 00h
387F:1D95  00 C3				db	 00h,0C3h

				;ﬂﬂﬂﬂ External Entry into Subroutine ﬂﬂﬂﬂﬂﬂﬂﬂﬂﬂﬂﬂﬂﬂﬂﬂﬂﬂﬂﬂﬂﬂﬂﬂﬂﬂﬂﬂﬂﬂﬂﬂﬂﬂﬂﬂﬂﬂ
				;
           ml.lst          Copyright (C) 1986-1991 Phar Lap	Sourcer	v8.01   7-Sep-2022 10:02 am   Page 60

				;         Called from:   387F:0C97, 0D43

387F:1D97			sub_38:
387F:1D97 ˙55					push	bp
387F:1D98  8B EC				mov	bp,sp
387F:1D9A  66 56 66 57 66 51			db	 66h, 56h, 66h, 57h, 66h, 51h
387F:1DA0  06 66 8B 4E 06 66			db	 06h, 66h, 8Bh, 4Eh, 06h, 66h
387F:1DA6  0B C9 74 1A 8B 76			db	 0Bh,0C9h, 74h, 1Ah, 8Bh, 76h
387F:1DAC  04 66 C4 34 8B 7E			db	 04h, 66h,0C4h, 34h, 8Bh, 7Eh
387F:1DB2  0A 67 26 8A 06 88			db	 0Ah, 67h, 26h, 8Ah, 06h, 88h
387F:1DB8  05 66 83 C6 01 83			db	 05h, 66h, 83h,0C6h, 01h, 83h
387F:1DBE  C7 01 66 49 75 EF			db	0C7h, 01h, 66h, 49h, 75h,0EFh
387F:1DC4  07 66 59 66 5F 66			db	 07h, 66h, 59h, 66h, 5Fh, 66h
387F:1DCA  5E 5D C3				db	 5Eh, 5Dh,0C3h

				;ﬂﬂﬂﬂ External Entry into Subroutine ﬂﬂﬂﬂﬂﬂﬂﬂﬂﬂﬂﬂﬂﬂﬂﬂﬂﬂﬂﬂﬂﬂﬂﬂﬂﬂﬂﬂﬂﬂﬂﬂﬂﬂﬂﬂﬂﬂ
				;
				;         Called from:   387F:0D82, 165B

387F:1DCD			sub_39:
387F:1DCD ˙55					push	bp
387F:1DCE  8B EC				mov	bp,sp
387F:1DD0  66 56 66 57 66 51			db	 66h, 56h, 66h, 57h, 66h, 51h
387F:1DD6  06 66 8B 4E 06 66			db	 06h, 66h, 8Bh, 4Eh, 06h, 66h
387F:1DDC  0B C9 74 1A 8B 7E			db	 0Bh,0C9h, 74h, 1Ah, 8Bh, 7Eh
387F:1DE2  04 66 C4 3D 8B 76			db	 04h, 66h,0C4h, 3Dh, 8Bh, 76h
387F:1DE8  0A 8A 04 67 26 88			db	 0Ah, 8Ah, 04h, 67h, 26h, 88h
387F:1DEE  07 83 C6 01 66 83			db	 07h, 83h,0C6h, 01h, 66h, 83h
387F:1DF4  C7 01 66 49 75 EF			db	0C7h, 01h, 66h, 49h, 75h,0EFh
387F:1DFA  07 66 59 66 5F 66			db	 07h, 66h, 59h, 66h, 5Fh, 66h
387F:1E00  5E 5D C3				db	 5Eh, 5Dh,0C3h

				;ﬂﬂﬂﬂ External Entry into Subroutine ﬂﬂﬂﬂﬂﬂﬂﬂﬂﬂﬂﬂﬂﬂﬂﬂﬂﬂﬂﬂﬂﬂﬂﬂﬂﬂﬂﬂﬂﬂﬂﬂﬂﬂﬂﬂﬂﬂ
				;
				;         Called from:   387F:13F3, 1503

387F:1E03			sub_40:
387F:1E03 ˙55					push	bp
387F:1E04  8B EC				mov	bp,sp
387F:1E06  66 57 66 51 06 66			db	 66h, 57h, 66h, 51h, 06h, 66h
387F:1E0C  8B 4E 06 66 0B C9			db	 8Bh, 4Eh, 06h, 66h, 0Bh,0C9h
387F:1E12  74 0D 8B 7E 04 66			db	 74h, 0Dh, 8Bh, 7Eh, 04h, 66h
387F:1E18  C4 3D 8A 46 0A FC			db	0C4h, 3Dh, 8Ah, 46h, 0Ah,0FCh
387F:1E1E  F3 67 AA 07 66 59			db	0F3h, 67h,0AAh, 07h, 66h, 59h
387F:1E24  66 5F 5D C3 CC C3			db	 66h, 5Fh, 5Dh,0C3h,0CCh,0C3h

				;ﬂﬂﬂﬂ External Entry into Subroutine ﬂﬂﬂﬂﬂﬂﬂﬂﬂﬂﬂﬂﬂﬂﬂﬂﬂﬂﬂﬂﬂﬂﬂﬂﬂﬂﬂﬂﬂﬂﬂﬂﬂﬂﬂﬂﬂﬂ
				;
				;         Called from:   387F:0C2E

387F:1E2A			sub_41:
387F:1E2A  56					push	si
387F:1E2B  57					push	di
387F:1E2C  55					push	bp
387F:1E2D  06					push	es
387F:1E2E  89 26 0D06				mov	data_80,sp		; (3D48:0D06=0)
387F:1E32  66 A1 8C 0B 66 8B			db	 66h,0A1h, 8Ch, 0Bh, 66h, 8Bh
           ml.lst          Copyright (C) 1986-1991 Phar Lap	Sourcer	v8.01   7-Sep-2022 10:02 am   Page 61

387F:1E38  1E 90 0B 66 8B 0E			db	 1Eh, 90h, 0Bh, 66h, 8Bh, 0Eh
387F:1E3E  94 0B 66 8B 16 98			db	 94h, 0Bh, 66h, 8Bh, 16h, 98h
387F:1E44  0B 66 8B 36 9C 0B			db	 0Bh, 66h, 8Bh, 36h, 9Ch, 0Bh
387F:1E4A  66 8B 3E A0 0B 66			db	 66h, 8Bh, 3Eh,0A0h, 0Bh, 66h
387F:1E50  8B 2E A4 0B 8E 06			db	 8Bh, 2Eh,0A4h, 0Bh, 8Eh, 06h
387F:1E56  B2 0B 8E 26 B4 0B			db	0B2h, 0Bh, 8Eh, 26h,0B4h, 0Bh
387F:1E5C  8E 2E B6 0B 8E 16			db	 8Eh, 2Eh,0B6h, 0Bh, 8Eh, 16h
387F:1E62  B0 0B 66 8B 26 A8			db	0B0h, 0Bh, 66h, 8Bh, 26h,0A8h
387F:1E68  0B 66 FF 36 BC 0B			db	 0Bh, 66h,0FFh, 36h,0BCh, 0Bh
387F:1E6E  6A 00 FF 36 AC 0B			db	 6Ah, 00h,0FFh, 36h,0ACh, 0Bh
387F:1E74  66 FF 36 B8 0B C7			db	 66h,0FFh, 36h,0B8h, 0Bh,0C7h
387F:1E7A  06 04 0D 00 00 8E			db	 06h, 04h, 0Dh, 00h, 00h, 8Eh
387F:1E80  1E AE 0B 66 CF 1E			db	 1Eh,0AEh, 0Bh, 66h,0CFh, 1Eh
387F:1E86  16 1F 8F 06 AE 0B			db	 16h, 1Fh, 8Fh, 06h,0AEh, 0Bh
387F:1E8C  8C 06 B2 0B 8C 26			db	 8Ch, 06h,0B2h, 0Bh, 8Ch, 26h
387F:1E92  B4 0B 8C 2E B6 0B			db	0B4h, 0Bh, 8Ch, 2Eh,0B6h, 0Bh
387F:1E98  66 A3 8C 0B 66 89			db	 66h,0A3h, 8Ch, 0Bh, 66h, 89h
387F:1E9E  1E 90 0B 66 89 0E			db	 1Eh, 90h, 0Bh, 66h, 89h, 0Eh
387F:1EA4  94 0B 66 89 16 98			db	 94h, 0Bh, 66h, 89h, 16h, 98h
387F:1EAA  0B 66 89 36 9C 0B			db	 0Bh, 66h, 89h, 36h, 9Ch, 0Bh
387F:1EB0  66 89 3E A0 0B 66			db	 66h, 89h, 3Eh,0A0h, 0Bh, 66h
387F:1EB6  89 2E A4 0B 83 C4			db	 89h, 2Eh,0A4h, 0Bh, 83h,0C4h
387F:1EBC  02 1E 07 5D 5F 5E			db	 02h, 1Eh, 07h, 5Dh, 5Fh, 5Eh
387F:1EC2  C3					db	0C3h
387F:1EC3  44 50 4D 49 31 36			db	'DPMI16 (C) 1990 Phar Lap Softwar'
387F:1EC9  20 28 43 29 20 31
387F:1ECF  39 39 30 20 50 68
387F:1ED5  61 72 20 4C 61 70
387F:1EDB  20 53 6F 66 74 77
387F:1EE1  61 72
387F:1EE3  65 2C 20 49 6E 63			db	'e, Inc.', 0
387F:1EE9  2E 00

				;ﬂﬂﬂﬂ External Entry into Subroutine ﬂﬂﬂﬂﬂﬂﬂﬂﬂﬂﬂﬂﬂﬂﬂﬂﬂﬂﬂﬂﬂﬂﬂﬂﬂﬂﬂﬂﬂﬂﬂﬂﬂﬂﬂﬂﬂﬂ
				;
				;         Called from:   387F:0D9C

387F:1EEB			sub_42:
387F:1EEB ˙55					push	bp
387F:1EEC  8B EC				mov	bp,sp
387F:1EEE  53					push	bx
387F:1EEF  51					push	cx
387F:1EF0  52					push	dx
387F:1EF1  56					push	si
387F:1EF2  57					push	di
387F:1EF3  06					push	es
387F:1EF4  B8 1687				mov	ax,1687h
387F:1EF7  CD 2F				int	2Fh			; ??INT Non-standard interrupt
387F:1EF9  0B C0				or	ax,ax			; Zero ?
387F:1EFB  75 26				jnz	loc_174			; Jump if not zero
387F:1EFD  8B C3				mov	ax,bx
387F:1EFF  8B 5E 04				mov	bx,[bp+4]
387F:1F02  89 07				mov	[bx],ax
387F:1F04  B4 00				mov	ah,0
387F:1F06  8A C1				mov	al,cl
387F:1F08  89 47 02				mov	[bx+2],ax
387F:1F0B  A3 0DB0				mov	word ptr ds:[0DB0h],ax	; (3D48:0DB0=0)
           ml.lst          Copyright (C) 1986-1991 Phar Lap	Sourcer	v8.01   7-Sep-2022 10:02 am   Page 62

387F:1F0E  8A C6				mov	al,dh
387F:1F10  89 47 04				mov	[bx+4],ax
387F:1F13  8A C2				mov	al,dl
387F:1F15  89 47 06				mov	[bx+6],ax
387F:1F18  89 77 08				mov	[bx+8],si
387F:1F1B  89 7F 0A				mov	[bx+0Ah],di
387F:1F1E  8C 47 0C				mov	[bx+0Ch],es
387F:1F21  2B C0				sub	ax,ax
387F:1F23			loc_174:					;  xref 387F:1EFB
387F:1F23  07					pop	es
387F:1F24  5F					pop	di
387F:1F25  5E					pop	si
387F:1F26  5A					pop	dx
387F:1F27  59					pop	cx
387F:1F28  5B					pop	bx
387F:1F29  5D					pop	bp
387F:1F2A  C3					retn
				sub_37		endp


				;ﬂﬂﬂﬂﬂﬂﬂﬂﬂﬂﬂﬂﬂﬂﬂﬂﬂﬂﬂﬂﬂﬂﬂﬂﬂﬂﬂﬂﬂﬂﬂﬂﬂﬂﬂﬂﬂﬂﬂﬂﬂﬂﬂﬂﬂﬂﬂﬂﬂﬂﬂﬂﬂﬂﬂﬂﬂﬂﬂﬂﬂﬂﬂﬂﬂﬂﬂﬂﬂﬂﬂﬂﬂﬂ
				;                              SUBROUTINE
				;
				;         Called from:   387F:0E9E
				;‹‹‹‹‹‹‹‹‹‹‹‹‹‹‹‹‹‹‹‹‹‹‹‹‹‹‹‹‹‹‹‹‹‹‹‹‹‹‹‹‹‹‹‹‹‹‹‹‹‹‹‹‹‹‹‹‹‹‹‹‹‹‹‹‹‹‹‹‹‹‹‹‹‹

387F:1F2B			sub_43		proc	near

				PARAMETER_1	=	4			; bp+4
				PARAMETER_2	=	6			; bp+6
				PARAMETER_3	=	8			; bp+8
				PARAMETER_4	=	0Ah			; bp+0Ah
				PARAMETER_5	=	0Ch			; bp+0Ch

387F:1F2B  55					push	bp
387F:1F2C  8B EC				mov	bp,sp
387F:1F2E  53					push	bx
387F:1F2F  8B 46 08				mov	ax,[bp+PARAMETER_3]
387F:1F32  8E 46 0A				mov	es,[bp+PARAMETER_4]
387F:1F35  FF 5E 04				call	dword ptr [bp+PARAMETER_1]	;*
387F:1F38  72 14				jc	loc_176			; Jump if carry Set
387F:1F3A  1E					push	ds
387F:1F3B  1F					pop	ds
387F:1F3C  06					push	es
387F:1F3D  07					pop	es
387F:1F3E  16					push	ss
387F:1F3F  17					pop	ss
387F:1F40  8C C0				mov	ax,es
387F:1F42  8B 5E 0C				mov	bx,[bp+PARAMETER_5]
387F:1F45  89 07				mov	[bx],ax
387F:1F47  1E					push	ds
387F:1F48  07					pop	es
387F:1F49  2B C0				sub	ax,ax
387F:1F4B			loc_175:					;  xref 387F:1F51
387F:1F4B ˙5B					pop	bx
387F:1F4C  5D					pop	bp
387F:1F4D  C3					retn
           ml.lst          Copyright (C) 1986-1991 Phar Lap	Sourcer	v8.01   7-Sep-2022 10:02 am   Page 63

387F:1F4E			loc_176:					;  xref 387F:1F38
387F:1F4E  B8 0001				mov	ax,1
387F:1F51  EB F8				jmp	short loc_175		; (1F4B)
				sub_43		endp


				;ﬂﬂﬂﬂﬂﬂﬂﬂﬂﬂﬂﬂﬂﬂﬂﬂﬂﬂﬂﬂﬂﬂﬂﬂﬂﬂﬂﬂﬂﬂﬂﬂﬂﬂﬂﬂﬂﬂﬂﬂﬂﬂﬂﬂﬂﬂﬂﬂﬂﬂﬂﬂﬂﬂﬂﬂﬂﬂﬂﬂﬂﬂﬂﬂﬂﬂﬂﬂﬂﬂﬂﬂﬂﬂ
				;                              SUBROUTINE
				;
				;         Called from:   387F:195A, 1B09, 1B65
				;‹‹‹‹‹‹‹‹‹‹‹‹‹‹‹‹‹‹‹‹‹‹‹‹‹‹‹‹‹‹‹‹‹‹‹‹‹‹‹‹‹‹‹‹‹‹‹‹‹‹‹‹‹‹‹‹‹‹‹‹‹‹‹‹‹‹‹‹‹‹‹‹‹‹

387F:1F53			sub_44		proc	near

				PARAMETER_1	=	4			; bp+4
				PARAMETER_2	=	6			; bp+6

387F:1F53  55					push	bp
387F:1F54  8B EC				mov	bp,sp
387F:1F56  53					push	bx
387F:1F57  51					push	cx
387F:1F58  8B 4E 04				mov	cx,[bp+PARAMETER_1]
387F:1F5B  B8 0000				mov	ax,0
387F:1F5E  CD 31				int	31h			; ??INT Non-standard interrupt
387F:1F60  72 0B				jc	loc_178			; Jump if carry Set
387F:1F62  8B 5E 06				mov	bx,[bp+PARAMETER_2]
387F:1F65  89 07				mov	[bx],ax
387F:1F67  2B C0				sub	ax,ax
387F:1F69			loc_177:					;  xref 387F:1F70
387F:1F69 ˙59					pop	cx
387F:1F6A  5B					pop	bx
387F:1F6B  5D					pop	bp
387F:1F6C  C3					retn
387F:1F6D			loc_178:					;  xref 387F:1F60
387F:1F6D  B8 0001				mov	ax,1
387F:1F70  EB F7				jmp	short loc_177		; (1F69)
				sub_44		endp


				;ﬂﬂﬂﬂﬂﬂﬂﬂﬂﬂﬂﬂﬂﬂﬂﬂﬂﬂﬂﬂﬂﬂﬂﬂﬂﬂﬂﬂﬂﬂﬂﬂﬂﬂﬂﬂﬂﬂﬂﬂﬂﬂﬂﬂﬂﬂﬂﬂﬂﬂﬂﬂﬂﬂﬂﬂﬂﬂﬂﬂﬂﬂﬂﬂﬂﬂﬂﬂﬂﬂﬂﬂﬂﬂ
				;                              SUBROUTINE
				;
				;         Called from:   387F:1933
				;‹‹‹‹‹‹‹‹‹‹‹‹‹‹‹‹‹‹‹‹‹‹‹‹‹‹‹‹‹‹‹‹‹‹‹‹‹‹‹‹‹‹‹‹‹‹‹‹‹‹‹‹‹‹‹‹‹‹‹‹‹‹‹‹‹‹‹‹‹‹‹‹‹‹

387F:1F72			sub_45		proc	near

				PARAMETER_1	=	4			; bp+4

387F:1F72  55					push	bp
387F:1F73  8B EC				mov	bp,sp
387F:1F75  53					push	bx
387F:1F76  8B 5E 04				mov	bx,[bp+PARAMETER_1]
387F:1F79  B8 0001				mov	ax,1
387F:1F7C  CD 31				int	31h			; ??INT Non-standard interrupt
387F:1F7E  72 05				jc	loc_180			; Jump if carry Set
387F:1F80  2B C0				sub	ax,ax
           ml.lst          Copyright (C) 1986-1991 Phar Lap	Sourcer	v8.01   7-Sep-2022 10:02 am   Page 64

387F:1F82			loc_179:					;  xref 387F:1F88
387F:1F82 ˙5B					pop	bx
387F:1F83  5D					pop	bp
387F:1F84  C3					retn
387F:1F85			loc_180:					;  xref 387F:1F7E
387F:1F85  B8 0001				mov	ax,1
387F:1F88  EB F8				jmp	short loc_179		; (1F82)
				sub_45		endp

							                        ;* No entry point to code
387F:1F8A  55					push	bp
387F:1F8B  8B EC				mov	bp,sp
387F:1F8D  53					push	bx
387F:1F8E  51					push	cx
387F:1F8F  52					push	dx
387F:1F90  8B 5E 04				mov	bx,[bp+4]
387F:1F93  B8 0006				mov	ax,6
387F:1F96  CD 31				int	31h			; ??INT Non-standard interrupt
387F:1F98  72 0F				jc	loc_182			; Jump if carry Set
387F:1F9A  8B 5E 06				mov	bx,[bp+6]
387F:1F9D  89 17				mov	[bx],dx
387F:1F9F  89 4F 02				mov	[bx+2],cx
387F:1FA2  2B C0				sub	ax,ax
387F:1FA4			loc_181:					;  xref 387F:1FAC
387F:1FA4 ˙5A					pop	dx
387F:1FA5  59					pop	cx
387F:1FA6  5B					pop	bx
387F:1FA7  5D					pop	bp
387F:1FA8  C3					retn
387F:1FA9			loc_182:					;  xref 387F:1F98
387F:1FA9  B8 0001				mov	ax,1
387F:1FAC  EB F6				jmp	short loc_181		; (1FA4)
							                        ;* No entry point to code
387F:1FAE  55					push	bp
387F:1FAF  8B EC				mov	bp,sp
387F:1FB1  53					push	bx
387F:1FB2  8B 5E 04				mov	bx,[bp+4]
387F:1FB5  B8 000D				mov	ax,0Dh
387F:1FB8  CD 31				int	31h			; ??INT Non-standard interrupt
387F:1FBA  72 05				jc	loc_184			; Jump if carry Set
387F:1FBC  2B C0				sub	ax,ax
387F:1FBE			loc_183:					;  xref 387F:1FC4
387F:1FBE ˙5B					pop	bx
387F:1FBF  5D					pop	bp
387F:1FC0  C3					retn
387F:1FC1			loc_184:					;  xref 387F:1FBA
387F:1FC1  B8 0001				mov	ax,1
387F:1FC4  EB F8				jmp	short loc_183		; (1FBE)

				;ﬂﬂﬂﬂﬂﬂﬂﬂﬂﬂﬂﬂﬂﬂﬂﬂﬂﬂﬂﬂﬂﬂﬂﬂﬂﬂﬂﬂﬂﬂﬂﬂﬂﬂﬂﬂﬂﬂﬂﬂﬂﬂﬂﬂﬂﬂﬂﬂﬂﬂﬂﬂﬂﬂﬂﬂﬂﬂﬂﬂﬂﬂﬂﬂﬂﬂﬂﬂﬂﬂﬂﬂﬂﬂ
				;                              SUBROUTINE
				;
				;         Called from:   387F:1919, 1BE0
				;‹‹‹‹‹‹‹‹‹‹‹‹‹‹‹‹‹‹‹‹‹‹‹‹‹‹‹‹‹‹‹‹‹‹‹‹‹‹‹‹‹‹‹‹‹‹‹‹‹‹‹‹‹‹‹‹‹‹‹‹‹‹‹‹‹‹‹‹‹‹‹‹‹‹

387F:1FC6			sub_46		proc	near

           ml.lst          Copyright (C) 1986-1991 Phar Lap	Sourcer	v8.01   7-Sep-2022 10:02 am   Page 65

				PARAMETER_1	=	4			; bp+4
				PARAMETER_2	=	6			; bp+6

387F:1FC6  55					push	bp
387F:1FC7  8B EC				mov	bp,sp
387F:1FC9  53					push	bx
387F:1FCA  57					push	di
387F:1FCB  06					push	es
387F:1FCC  89 1E 0DB8				mov	data_114,bx		; (3D48:0DB8=0)
387F:1FD0  89 3E 0DBA				mov	data_115,di		; (3D48:0DBA=0)
387F:1FD4  8C 06 0DBC				mov	data_116,es		; (3D48:0DBC=3D48h)
387F:1FD8  8B 5E 04				mov	bx,[bp+PARAMETER_1]
387F:1FDB  8B 7E 06				mov	di,[bp+PARAMETER_2]
387F:1FDE  1E					push	ds
387F:1FDF  07					pop	es
387F:1FE0  B8 000B				mov	ax,0Bh
387F:1FE3  CD 31				int	31h			; ??INT Non-standard interrupt
387F:1FE5  72 13				jc	loc_186			; Jump if carry Set
387F:1FE7  2B C0				sub	ax,ax
387F:1FE9			loc_185:					;  xref 387F:1FFD
387F:1FE9 ˙8B 1E 0DB8				mov	bx,data_114		; (3D48:0DB8=0)
387F:1FED  8B 3E 0DBA				mov	di,data_115		; (3D48:0DBA=0)
387F:1FF1  8E 06 0DBC				mov	es,data_116		; (3D48:0DBC=3D48h)
387F:1FF5  59					pop	cx
387F:1FF6  59					pop	cx
387F:1FF7  59					pop	cx
387F:1FF8  5D					pop	bp
387F:1FF9  C3					retn
387F:1FFA			loc_186:					;  xref 387F:1FE5
387F:1FFA  B8 0001				mov	ax,1
387F:1FFD  EB EA				jmp	short loc_185		; (1FE9)
				sub_46		endp


				;ﬂﬂﬂﬂﬂﬂﬂﬂﬂﬂﬂﬂﬂﬂﬂﬂﬂﬂﬂﬂﬂﬂﬂﬂﬂﬂﬂﬂﬂﬂﬂﬂﬂﬂﬂﬂﬂﬂﬂﬂﬂﬂﬂﬂﬂﬂﬂﬂﬂﬂﬂﬂﬂﬂﬂﬂﬂﬂﬂﬂﬂﬂﬂﬂﬂﬂﬂﬂﬂﬂﬂﬂﬂﬂ
				;                              SUBROUTINE
				;
				;         Called from:   387F:197A
				;‹‹‹‹‹‹‹‹‹‹‹‹‹‹‹‹‹‹‹‹‹‹‹‹‹‹‹‹‹‹‹‹‹‹‹‹‹‹‹‹‹‹‹‹‹‹‹‹‹‹‹‹‹‹‹‹‹‹‹‹‹‹‹‹‹‹‹‹‹‹‹‹‹‹

387F:1FFF			sub_47		proc	near

				PARAMETER_1	=	4			; bp+4
				PARAMETER_2	=	6			; bp+6
				PARAMETER_3	=	8			; bp+8
				PARAMETER_4	=	0Ah			; bp+0Ah

387F:1FFF  55					push	bp
387F:2000  8B EC				mov	bp,sp
387F:2002  53					push	bx
387F:2003  51					push	cx
387F:2004  56					push	si
387F:2005  57					push	di
387F:2006  8B 4E 04				mov	cx,[bp+PARAMETER_1]
387F:2009  8B 5E 06				mov	bx,[bp+PARAMETER_2]
387F:200C  B8 0501				mov	ax,501h
387F:200F  CD 31				int	31h			; ??INT Non-standard interrupt
           ml.lst          Copyright (C) 1986-1991 Phar Lap	Sourcer	v8.01   7-Sep-2022 10:02 am   Page 66

387F:2011  72 1A				jc	loc_188			; Jump if carry Set
387F:2013  8B C3				mov	ax,bx
387F:2015  8B 5E 08				mov	bx,[bp+PARAMETER_3]
387F:2018  89 0F				mov	[bx],cx
387F:201A  89 47 02				mov	[bx+2],ax
387F:201D  8B 5E 0A				mov	bx,[bp+PARAMETER_4]
387F:2020  89 3F				mov	[bx],di
387F:2022  89 77 02				mov	[bx+2],si
387F:2025  2B C0				sub	ax,ax
387F:2027			loc_187:					;  xref 387F:2030
387F:2027 ˙5F					pop	di
387F:2028  5E					pop	si
387F:2029  59					pop	cx
387F:202A  5B					pop	bx
387F:202B  5D					pop	bp
387F:202C  C3					retn
387F:202D			loc_188:					;  xref 387F:2011
387F:202D  B8 0001				mov	ax,1
387F:2030  EB F5				jmp	short loc_187		; (2027)
				sub_47		endp


				;ﬂﬂﬂﬂﬂﬂﬂﬂﬂﬂﬂﬂﬂﬂﬂﬂﬂﬂﬂﬂﬂﬂﬂﬂﬂﬂﬂﬂﬂﬂﬂﬂﬂﬂﬂﬂﬂﬂﬂﬂﬂﬂﬂﬂﬂﬂﬂﬂﬂﬂﬂﬂﬂﬂﬂﬂﬂﬂﬂﬂﬂﬂﬂﬂﬂﬂﬂﬂﬂﬂﬂﬂﬂﬂ
				;                              SUBROUTINE
				;
				;         Called from:   387F:18B2, 1A8B
				;‹‹‹‹‹‹‹‹‹‹‹‹‹‹‹‹‹‹‹‹‹‹‹‹‹‹‹‹‹‹‹‹‹‹‹‹‹‹‹‹‹‹‹‹‹‹‹‹‹‹‹‹‹‹‹‹‹‹‹‹‹‹‹‹‹‹‹‹‹‹‹‹‹‹

387F:2032			sub_48		proc	near

				PARAMETER_1	=	4			; bp+4
				PARAMETER_2	=	6			; bp+6

387F:2032  55					push	bp
387F:2033  8B EC				mov	bp,sp
387F:2035  56					push	si
387F:2036  57					push	di
387F:2037  8B 7E 04				mov	di,[bp+PARAMETER_1]
387F:203A  8B 76 06				mov	si,[bp+PARAMETER_2]
387F:203D  B8 0502				mov	ax,502h
387F:2040  CD 31				int	31h			; ??INT Non-standard interrupt
387F:2042  72 06				jc	loc_190			; Jump if carry Set
387F:2044  2B C0				sub	ax,ax
387F:2046			loc_189:					;  xref 387F:204D
387F:2046 ˙5F					pop	di
387F:2047  5E					pop	si
387F:2048  5D					pop	bp
387F:2049  C3					retn
387F:204A			loc_190:					;  xref 387F:2042
387F:204A  B8 0001				mov	ax,1
387F:204D  EB F7				jmp	short loc_189		; (2046)
				sub_48		endp


				;ﬂﬂﬂﬂﬂﬂﬂﬂﬂﬂﬂﬂﬂﬂﬂﬂﬂﬂﬂﬂﬂﬂﬂﬂﬂﬂﬂﬂﬂﬂﬂﬂﬂﬂﬂﬂﬂﬂﬂﬂﬂﬂﬂﬂﬂﬂﬂﬂﬂﬂﬂﬂﬂﬂﬂﬂﬂﬂﬂﬂﬂﬂﬂﬂﬂﬂﬂﬂﬂﬂﬂﬂﬂﬂ
				;                              SUBROUTINE
				;
           ml.lst          Copyright (C) 1986-1991 Phar Lap	Sourcer	v8.01   7-Sep-2022 10:02 am   Page 67

				;         Called from:   387F:121D
				;‹‹‹‹‹‹‹‹‹‹‹‹‹‹‹‹‹‹‹‹‹‹‹‹‹‹‹‹‹‹‹‹‹‹‹‹‹‹‹‹‹‹‹‹‹‹‹‹‹‹‹‹‹‹‹‹‹‹‹‹‹‹‹‹‹‹‹‹‹‹‹‹‹‹

387F:204F			sub_49		proc	near

				PARAMETER_1	=	4			; bp+4

387F:204F  55					push	bp
387F:2050  8B EC				mov	bp,sp
387F:2052  57					push	di
387F:2053  06					push	es
387F:2054  8B 7E 04				mov	di,[bp+PARAMETER_1]
387F:2057  1E					push	ds
387F:2058  07					pop	es
387F:2059  B8 0500				mov	ax,500h
387F:205C  CD 31				int	31h			; ??INT Non-standard interrupt
387F:205E  72 06				jc	loc_192			; Jump if carry Set
387F:2060  2B C0				sub	ax,ax
387F:2062			loc_191:					;  xref 387F:2069
387F:2062 ˙07					pop	es
387F:2063  5F					pop	di
387F:2064  5D					pop	bp
387F:2065  C3					retn
387F:2066			loc_192:					;  xref 387F:205E
387F:2066  B8 0001				mov	ax,1
387F:2069  EB F7				jmp	short loc_191		; (2062)
				sub_49		endp


				;ﬂﬂﬂﬂﬂﬂﬂﬂﬂﬂﬂﬂﬂﬂﬂﬂﬂﬂﬂﬂﬂﬂﬂﬂﬂﬂﬂﬂﬂﬂﬂﬂﬂﬂﬂﬂﬂﬂﬂﬂﬂﬂﬂﬂﬂﬂﬂﬂﬂﬂﬂﬂﬂﬂﬂﬂﬂﬂﬂﬂﬂﬂﬂﬂﬂﬂﬂﬂﬂﬂﬂﬂﬂﬂ
				;                              SUBROUTINE
				;
				;         Called from:   387F:0ECC
				;‹‹‹‹‹‹‹‹‹‹‹‹‹‹‹‹‹‹‹‹‹‹‹‹‹‹‹‹‹‹‹‹‹‹‹‹‹‹‹‹‹‹‹‹‹‹‹‹‹‹‹‹‹‹‹‹‹‹‹‹‹‹‹‹‹‹‹‹‹‹‹‹‹‹

387F:206B			sub_50		proc	near

				PARAMETER_1	=	4			; bp+4
				PARAMETER_2	=	6			; bp+6

387F:206B  55					push	bp
387F:206C  8B EC				mov	bp,sp
387F:206E  53					push	bx
387F:206F  51					push	cx
387F:2070  56					push	si
387F:2071  66 57				db	 66h, 57h

				;ﬂﬂﬂﬂ External Entry into Subroutine ﬂﬂﬂﬂﬂﬂﬂﬂﬂﬂﬂﬂﬂﬂﬂﬂﬂﬂﬂﬂﬂﬂﬂﬂﬂﬂﬂﬂﬂﬂﬂﬂﬂﬂﬂﬂﬂﬂ

387F:2073			sub_51:
387F:2073  B8 0306				mov	ax,306h
387F:2076  CD 31				int	31h			; ??INT Non-standard interrupt
387F:2078  72 1C				jc	loc_194			; Jump if carry Set
387F:207A  8B C3				mov	ax,bx
387F:207C  8B 5E 04				mov	bx,[bp+PARAMETER_1]
387F:207F  89 0F				mov	[bx],cx
387F:2081  89 47 02				mov	[bx+2],ax
           ml.lst          Copyright (C) 1986-1991 Phar Lap	Sourcer	v8.01   7-Sep-2022 10:02 am   Page 68

387F:2084  8B 5E 06				mov	bx,[bp+PARAMETER_2]
387F:2087  66 89 3F 89 77 04			db	 66h, 89h, 3Fh, 89h, 77h, 04h
387F:208D  2B C0				db	 2Bh,0C0h
387F:208F			loc_193:					;  xref 387F:2099
387F:208F ˙66 5F 5E 59 5B 5D			db	 66h, 5Fh, 5Eh, 59h, 5Bh, 5Dh
387F:2095  C3					db	0C3h
387F:2096			loc_194:					;  xref 387F:2078
387F:2096  B8 0001				mov	ax,1
387F:2099  EB F4				jmp	short loc_193		; (208F)
				sub_50		endp


				;ﬂﬂﬂﬂﬂﬂﬂﬂﬂﬂﬂﬂﬂﬂﬂﬂﬂﬂﬂﬂﬂﬂﬂﬂﬂﬂﬂﬂﬂﬂﬂﬂﬂﬂﬂﬂﬂﬂﬂﬂﬂﬂﬂﬂﬂﬂﬂﬂﬂﬂﬂﬂﬂﬂﬂﬂﬂﬂﬂﬂﬂﬂﬂﬂﬂﬂﬂﬂﬂﬂﬂﬂﬂﬂ
				;                              SUBROUTINE
				;
				;         Called from:   387F:0C34, 0C44, 0EE2
				;‹‹‹‹‹‹‹‹‹‹‹‹‹‹‹‹‹‹‹‹‹‹‹‹‹‹‹‹‹‹‹‹‹‹‹‹‹‹‹‹‹‹‹‹‹‹‹‹‹‹‹‹‹‹‹‹‹‹‹‹‹‹‹‹‹‹‹‹‹‹‹‹‹‹

				;      Note: Subroutine does not return	to instruction after call

387F:209B			sub_52		proc	near
387F:209B ˙55					push	bp
387F:209C  8B EC				mov	bp,sp
387F:209E  8A 46 04				mov	al,[bp+4]
387F:20A1  B4 4C				mov	ah,4Ch
387F:20A3  CD 21				int	21h			; DOS Services  ah=function 4Ch
										;  terminate with al=return code
				sub_52		endp


				;ﬂﬂﬂﬂﬂﬂﬂﬂﬂﬂﬂﬂﬂﬂﬂﬂﬂﬂﬂﬂﬂﬂﬂﬂﬂﬂﬂﬂﬂﬂﬂﬂﬂﬂﬂﬂﬂﬂﬂﬂﬂﬂﬂﬂﬂﬂﬂﬂﬂﬂﬂﬂﬂﬂﬂﬂﬂﬂﬂﬂﬂﬂﬂﬂﬂﬂﬂﬂﬂﬂﬂﬂﬂﬂ
				;                              SUBROUTINE
				;
				;         Called from:   387F:192A, 1A7B, 1B3B, 1BAB
				;‹‹‹‹‹‹‹‹‹‹‹‹‹‹‹‹‹‹‹‹‹‹‹‹‹‹‹‹‹‹‹‹‹‹‹‹‹‹‹‹‹‹‹‹‹‹‹‹‹‹‹‹‹‹‹‹‹‹‹‹‹‹‹‹‹‹‹‹‹‹‹‹‹‹

387F:20A5			sub_53		proc	near

				PARAMETER_1	=	4			; bp+4
				PARAMETER_2	=	6			; bp+6

387F:20A5  55					push	bp
387F:20A6  8B EC				mov	bp,sp
387F:20A8  53					push	bx
387F:20A9  57					push	di
387F:20AA  06					push	es
387F:20AB  8B 5E 04				mov	bx,[bp+PARAMETER_1]
387F:20AE  8B 7E 06				mov	di,[bp+PARAMETER_2]
387F:20B1  1E					push	ds
387F:20B2  07					pop	es
387F:20B3  B8 000C				mov	ax,0Ch
387F:20B6  CD 31				int	31h			; ??INT Non-standard interrupt
387F:20B8  72 07				jc	$+9			; Jump if carry Set
387F:20BA  2B C0				sub	ax,ax
387F:20BC ˙07					pop	es
387F:20BD  5F					pop	di
387F:20BE  5B					pop	bx
           ml.lst          Copyright (C) 1986-1991 Phar Lap	Sourcer	v8.01   7-Sep-2022 10:02 am   Page 69

387F:20BF  5D					pop	bp
387F:20C0  C3					retn
				sub_53		endp

							                        ;* No entry point to code
387F:20C1  B8 0001				mov	ax,1
387F:20C4  EB F6				jmp	short $-8
							                        ;* No entry point to code
387F:20C6  55					push	bp
387F:20C7  8B EC				mov	bp,sp
387F:20C9  83 3E 0DB0 03			cmp	word ptr ds:[0DB0h],3	; (3D48:0DB0=0)
387F:20CE  72 27				jb	$+29h			; Jump if below
387F:20D0  66 53 66 0F B7 5E			db	 66h, 53h, 66h, 0Fh,0B7h, 5Eh
387F:20D6  04 66 0F 03 C3 E9			db	 04h, 66h, 0Fh, 03h,0C3h,0E9h
387F:20DC  00 00 75 0D 8B 5E			db	 00h, 00h, 75h, 0Dh, 8Bh, 5Eh
387F:20E2  06 66 89 07 66 2B			db	 06h, 66h, 89h, 07h, 66h, 2Bh
387F:20E8  C0					db	0C0h
387F:20E9  66 5B				db	 66h, 5Bh
387F:20EB			loc_195:					;  xref 387F:2116
387F:20EB ˙5D					pop	bp
387F:20EC  C3					retn
387F:20ED  66 5B 66 B8 01 00			db	 66h, 5Bh, 66h,0B8h, 01h, 00h
387F:20F3  00 00 EB F4 53 8B			db	 00h, 00h,0EBh,0F4h, 53h, 8Bh
387F:20F9  5E 04 0F 03 C3 E9			db	 5Eh, 04h, 0Fh, 03h,0C3h,0E9h
387F:20FF  00 00 75 0F 8B 5E			db	 00h, 00h, 75h, 0Fh, 8Bh, 5Eh
387F:2105  06 89 07 C7 47 02			db	 06h, 89h, 07h,0C7h, 47h, 02h
387F:210B  00 00 2B C0 5B EB			db	 00h, 00h, 2Bh,0C0h, 5Bh,0EBh
387F:2111  D9					db	0D9h
387F:2112			loc_196:
387F:2112  5B					pop	bx
387F:2113  B8 0001				mov	ax,1
387F:2116  EB D3				jmp	short loc_195		; (20EB)

				;€€€€€€€€€€€€€€€€€€€€€€€€€€€€€€€€€€€€€€€€€€€€€€€€€€€€€€€€€€€€€€€€€€€€€€€€€€
				;
				;                       Program	Entry Point
				;
				;€€€€€€€€€€€€€€€€€€€€€€€€€€€€€€€€€€€€€€€€€€€€€€€€€€€€€€€€€€€€€€€€€€€€€€€€€€


				ml		proc	far

387F:2118			start:
387F:2118  B4 30				mov	ah,30h
387F:211A  CD 21				int	21h			; DOS Services  ah=function 30h
										;  get DOS version number ax
387F:211C  3C 02				cmp	al,2
387F:211E  73 05				jae	loc_197			; Jump if above or =
387F:2120  33 C0				xor	ax,ax			; Zero register
387F:2122  06					push	es
387F:2123  50					push	ax
387F:2124  CB					retf				; Return far
387F:2125			loc_197:					;  xref 387F:211E
387F:2125  BF 3D48				mov	di,seg seg_d
387F:2128  8B 36 0002				mov	si,data_28		; (3D48:0002=0)
387F:212C  2B F7				sub	si,di
387F:212E  81 FE 1000				cmp	si,1000h
           ml.lst          Copyright (C) 1986-1991 Phar Lap	Sourcer	v8.01   7-Sep-2022 10:02 am   Page 70

387F:2132  72 03				jb	loc_198			; Jump if below
387F:2134  BE 1000				mov	si,1000h
387F:2137			loc_198:					;  xref 387F:2132
387F:2137  FA					cli				; Disable interrupts
387F:2138  8E D7				mov	ss,di
387F:213A  81 C4 177E				add	sp,177Eh
387F:213E  FB					sti				; Enable interrupts
387F:213F  73 10				jnc	loc_199			; Jump if carry=0
387F:2141  16					push	ss
387F:2142  1F					pop	ds
387F:2143  E8 0AC6				call	sub_88			; (2C0C)
387F:2146  33 C0				xor	ax,ax			; Zero register
387F:2148  50					push	ax
387F:2149  E8 0D3F				call	sub_93			; (2E8B)
387F:214C  B8 4CFF				mov	ax,4CFFh
387F:214F  CD 21				int	21h			; DOS Services  ah=function 4Ch
										;  terminate with al=return code
387F:2151			loc_199:					;  xref 387F:213F
387F:2151  8B C6				mov	ax,si
387F:2153  B1 04				mov	cl,4
387F:2155  D3 E0				shl	ax,cl			; Shift w/zeros fill
387F:2157  48					dec	ax
387F:2158  36: A3 0DC2				mov	ss:data_119,ax		; (3D48:0DC2=0)
387F:215C ˙BB 0DC4				mov	bx,offset data_120	; (3D48:0DC4=0)
387F:215F  36: 8C 17				mov	ss:[bx],ss
387F:2162  83 E4 FE				and	sp,0FFFEh
387F:2165  36: 89 67 04				mov	ss:[bx+4],sp
387F:2169  B8 FFFE				mov	ax,0FFFEh
387F:216C  50					push	ax
387F:216D  36: 89 67 0A				mov	ss:[bx+0Ah],sp
387F:2171  F7 D0				not	ax
387F:2173  50					push	ax
387F:2174  36: 89 67 06				mov	ss:[bx+6],sp
387F:2178  36: 89 67 08				mov	ss:[bx+8],sp
387F:217C  36: 89 26 0DBE			mov	ss:data_117,sp		; (3D48:0DBE=0)
387F:2181  03 F7				add	si,di
387F:2183  89 36 0002				mov	data_28,si		; (3D48:0002=0)
387F:2187  8C C3				mov	bx,es
387F:2189  2B DE				sub	bx,si
387F:218B  F7 DB				neg	bx
387F:218D  B4 4A				mov	ah,4Ah
387F:218F  CD 21				int	21h			; DOS Services  ah=function 4Ah
										;  change memory allocation
										;   bx=bytes/16, es=mem segment
387F:2191  36: 8C 1E 0DFE			mov	ss:data_128,ds		; (3D48:0DFE=3D48h)
387F:2196  16					push	ss
387F:2197  07					pop	es
387F:2198  FC					cld				; Clear direction
387F:2199 ˙BF 1378				mov	di,offset data_204	; (3D48:1378=0)
387F:219C ˙B9 1780		;*		mov	cx,offset sub_18	;*(1780)
387F:219C  B9 80 17				db	0B9h, 80h, 17h
387F:219F  2B CF				sub	cx,di
387F:21A1  33 C0				xor	ax,ax			; Zero register
387F:21A3  F3/ AA				rep	stosb			; Rep when cx >0 Store al to es:[di]
387F:21A5  16					push	ss
387F:21A6  1F					pop	ds
387F:21A7  8B 0E 11CA				mov	cx,data_183		; (3D48:11CA=0)
           ml.lst          Copyright (C) 1986-1991 Phar Lap	Sourcer	v8.01   7-Sep-2022 10:02 am   Page 71

387F:21AB  E3 02				jcxz	loc_200			; Jump if cx=0
387F:21AD  FF D1				call	cx			;*
387F:21AF			loc_200:					;  xref 387F:21AB
387F:21AF  E8 0C30				call	sub_91			; (2DE2)
387F:21B2  E8 0A9F				call	sub_90			; (2C54)
387F:21B5  33 ED				xor	bp,bp			; Zero register
387F:21B7  E8 0048		;*		call	sub_54			;*(2202)
387F:21B7  E8 48 00				db	0E8h, 48h, 00h
387F:21BA  16					push	ss
387F:21BB  1F					pop	ds
387F:21BC  FF 36 0E1F				push	data_137		; (3D48:0E1F=0)
387F:21C0  FF 36 0E1D				push	data_136		; (3D48:0E1D=0)
387F:21C4  FF 36 0E1B				push	data_135		; (3D48:0E1B=0)
387F:21C8  E8 E335				call	sub_2			; (0500)
387F:21CB ˙50					push	ax			; PARAMETER_1
387F:21CC  E8 0101				call	sub_55			; (22D0)
387F:21CF  C3					retn

				ml		endp

				;€€€€€€€€€€€€€€€€€€€€€€€€€€€€€€€€€€€€€€€€€€€€€€€€€€€€€€€€€€€€€€€€€€€€€€€€€€
				;
				;                       External Entry Point
				;
				;€€€€€€€€€€€€€€€€€€€€€€€€€€€€€€€€€€€€€€€€€€€€€€€€€€€€€€€€€€€€€€€€€€€€€€€€€€

387F:21D0			int_00h_entry	proc	far			;  xref 387F:2214
387F:21D0  2E: A1 21FF				mov	ax,word ptr cs:[21FFh]	; (387F:21FF=3D48h)
387F:21D4  8E D8				mov	ds,ax
387F:21D6  B8 0003				mov	ax,3
387F:21D9  36: C7 06 0DC0 22D0			mov	ss:data_218,22D0h	; (3EC0:0DC0=0)
387F:21E0			loc_201:					;  xref 387F:2C2F, 3E96, 3EBA
387F:21E0 ˙50					push	ax
387F:21E1  E8 0A28				call	sub_88			; (2C0C)
387F:21E4  E8 0CA4				call	sub_93			; (2E8B)
387F:21E7  36: 81 3E 11CC D6D6			cmp	ss:data_223,0D6D6h	; (3EC0:11CC=0)
387F:21EE  75 07				jne	loc_202			; Jump if not equal
387F:21F0  58					pop	ax
387F:21F1  50					push	ax
387F:21F2  36: FF 16 11D0			call	word ptr ss:data_224	; (3EC0:11D0=0)
387F:21F7			loc_202:					;  xref 387F:21EE
387F:21F7  B8 00FF				mov	ax,0FFh
387F:21FA  50					push	ax
387F:21FB  FF 16 0DC0				call	word ptr data_118	; (3D48:0DC0=22D7h)
387F:21FF  48					dec	ax
387F:2200  3D B800				cmp	ax,0B800h
387F:2203  00 35				add	[di],dh
387F:2205  CD 21				int	21h			; DOS Services  ah=function 00h
										;  terminate, cs=progm seg prefx
387F:2207  89 1E 0DEA				mov	data_123,bx		; (3D48:0DEA=0)
387F:220B  8C 06 0DEC				mov	word ptr data_123+2,es	; (3D48:0DEC=3D48h)
387F:220F  0E					push	cs
387F:2210  1F					pop	ds
387F:2211  B8 2500				mov	ax,2500h
387F:2214 ˙BA 21D0				mov	dx,offset int_00h_entry
387F:2217  CD 21				int	21h			; DOS Services  ah=function 25h
										;  set intrpt vector al to ds:dx
           ml.lst          Copyright (C) 1986-1991 Phar Lap	Sourcer	v8.01   7-Sep-2022 10:02 am   Page 72

387F:2219  16					push	ss
387F:221A  1F					pop	ds
						assume	ds:stack_seg_e
387F:221B  83 3E 11DC 00			cmp	data_225,0		; (3EC0:11DC=0)
387F:2220  74 36				je	loc_204			; Jump if equal
387F:2222  8C 0E 11DE				mov	word ptr data_225+2,cs	; (3EC0:11DE=387Fh)
387F:2226  8C 0E 11E6				mov	word ptr data_228+2,cs	; (3EC0:11E6=387Fh)
387F:222A  8E 06 0DFE				mov	es,data_220		; (3EC0:0DFE=0)
387F:222E  26: 8B 36 002C			mov	si,es:data_1e		; (0000:002C=54h)
387F:2233  C5 06 11E0				lds	ax,dword ptr data_227	; (3EC0:11E0=0) Load seg:offset ptr
387F:2237  8C DA				mov	dx,ds
387F:2239  33 DB				xor	bx,bx			; Zero register
387F:223B  36: FF 1E 11DC			call	dword ptr ss:data_225	; (3EC0:11DC=0)
387F:2240  73 05				jnc	loc_203			; Jump if carry=0
387F:2242  16					push	ss
387F:2243  1F					pop	ds
387F:2244  E9 09E5				jmp	loc_327			; (2C2C)
387F:2247			loc_203:					;  xref 387F:2240
387F:2247  36: C5 06 11E4			lds	ax,ss:data_228		; (3EC0:11E4=0) Load seg:offset ptr
387F:224C  8C DA				mov	dx,ds
387F:224E  BB 0003				mov	bx,3
387F:2251  36: FF 1E 11DC			call	dword ptr ss:data_225	; (3EC0:11DC=0)
387F:2256  16					push	ss
387F:2257  1F					pop	ds
387F:2258			loc_204:					;  xref 387F:2220
387F:2258  8E 06 0DFE				mov	es,data_220		; (3EC0:0DFE=0)
387F:225C  26: 8B 0E 002C			mov	cx,es:data_1e		; (0000:002C=54h)
387F:2261  E3 3E				jcxz	loc_209			; Jump if cx=0
387F:2263  8E C1				mov	es,cx
387F:2265  33 FF				xor	di,di			; Zero register
387F:2267			loc_205:					;  xref 387F:2280
387F:2267 ˙26: 80 3D 00				cmp	byte ptr es:[di],0
387F:226B  74 34				je	loc_209			; Jump if equal
387F:226D  B9 000D				mov	cx,0Dh
387F:2270 ˙BE 0DDC				mov	si,offset data_219	; (3EC0:0DDC=0)
387F:2273  F3/ A6				repe	cmpsb			; Rep zf=1+cx >0 Cmp [si] to es:[di]
387F:2275  74 0B				jz	loc_206			; Jump if zero
387F:2277  B9 7FFF				mov	cx,7FFFh
387F:227A  33 C0				xor	ax,ax			; Zero register
387F:227C  F2/ AE				repne	scasb			; Rep zf=0+cx >0 Scan es:[di] for al
387F:227E  75 21				jnz	loc_209			; Jump if not zero
387F:2280  EB E5				jmp	short loc_205		; (2267)
387F:2282			loc_206:					;  xref 387F:2275
387F:2282  06					push	es
387F:2283  1E					push	ds
387F:2284  07					pop	es
387F:2285  1F					pop	ds
387F:2286  8B F7				mov	si,di
387F:2288 ˙BF 0E07				mov	di,offset data_221	; (3EC0:0E07=0)
387F:228B  B1 04				mov	cl,4
387F:228D			loc_207:					;  xref 387F:229D
387F:228D ˙AC					lodsb				; String [si] to al
387F:228E  2C 41				sub	al,41h			; 'A'
387F:2290  72 0D				jc	loc_208			; Jump if carry Set
387F:2292  D2 E0				shl	al,cl			; Shift w/zeros fill
387F:2294  92					xchg	dx,ax
387F:2295  AC					lodsb				; String [si] to al
           ml.lst          Copyright (C) 1986-1991 Phar Lap	Sourcer	v8.01   7-Sep-2022 10:02 am   Page 73

387F:2296  2C 41				sub	al,41h			; 'A'
387F:2298  72 05				jc	loc_208			; Jump if carry Set
387F:229A  0A C2				or	al,dl
387F:229C  AA					stosb				; Store al to es:[di]
387F:229D  EB EE				jmp	short loc_207		; (228D)
387F:229F			loc_208:					;  xref 387F:2290, 2298
387F:229F  16					push	ss
387F:22A0  1F					pop	ds
387F:22A1			loc_209:					;  xref 387F:2261, 226B, 227E
387F:22A1 ˙BB 0004				mov	bx,offset data_217	; (3EC0:0004=0)
387F:22A4			loc_210:					;  xref 387F:22BB
387F:22A4  80 A7 0E07 BF			and	byte ptr data_221[bx],0BFh	; (3EC0:0E07=0)
387F:22A9  B8 4400				mov	ax,4400h
387F:22AC  CD 21				int	21h			; DOS Services  ah=function 44h
										;  IOctl-0 get info dx, bx=handl
387F:22AE  72 0A				jc	loc_211			; Jump if carry Set
387F:22B0  F6 C2 80				test	dl,80h
387F:22B3  74 05				jz	loc_211			; Jump if zero
387F:22B5  80 8F 0E07 40			or	byte ptr data_221[bx],40h	; (3EC0:0E07=0) '@'
387F:22BA			loc_211:					;  xref 387F:22AE, 22B3
387F:22BA  4B					dec	bx
387F:22BB  79 E7				jns	loc_210			; Jump if not sign
387F:22BD  BE 11E8				mov	si,11E8h
387F:22C0 ˙BF 11E8				mov	di,offset data_230	; (3EC0:11E8=0)
387F:22C3  E8 00C7				call	sub_59			; (238D)
387F:22C6  BE 11E8				mov	si,11E8h
387F:22C9 ˙BF 11E8				mov	di,offset data_230	; (3EC0:11E8=0)
387F:22CC  E8 00AF				call	sub_58			; (237E)
387F:22CF  C3					retn
				int_00h_entry	endp


				;ﬂﬂﬂﬂﬂﬂﬂﬂﬂﬂﬂﬂﬂﬂﬂﬂﬂﬂﬂﬂﬂﬂﬂﬂﬂﬂﬂﬂﬂﬂﬂﬂﬂﬂﬂﬂﬂﬂﬂﬂﬂﬂﬂﬂﬂﬂﬂﬂﬂﬂﬂﬂﬂﬂﬂﬂﬂﬂﬂﬂﬂﬂﬂﬂﬂﬂﬂﬂﬂﬂﬂﬂﬂﬂ
				;                              SUBROUTINE
				;
				;         Called from:   387F:05A6, 21CC
				;‹‹‹‹‹‹‹‹‹‹‹‹‹‹‹‹‹‹‹‹‹‹‹‹‹‹‹‹‹‹‹‹‹‹‹‹‹‹‹‹‹‹‹‹‹‹‹‹‹‹‹‹‹‹‹‹‹‹‹‹‹‹‹‹‹‹‹‹‹‹‹‹‹‹

387F:22D0			sub_55		proc	near

				PARAMETER_1	=	4			; bp+4

387F:22D0  55					push	bp
387F:22D1  8B EC				mov	bp,sp
387F:22D3  33 C9				xor	cx,cx			; Zero register
387F:22D5  EB 1A				jmp	short loc_212		; (22F1)
							                        ;* No entry point to code
387F:22D7  55					push	bp
387F:22D8  8B EC				mov	bp,sp
387F:22DA  B9 0001				mov	cx,1
387F:22DD  EB 12				jmp	short loc_212		; (22F1)

				;ﬂﬂﬂﬂ External Entry into Subroutine ﬂﬂﬂﬂﬂﬂﬂﬂﬂﬂﬂﬂﬂﬂﬂﬂﬂﬂﬂﬂﬂﬂﬂﬂﬂﬂﬂﬂﬂﬂﬂﬂﬂﬂﬂﬂﬂﬂ
				;
				;         Called from:   387F:0695, 0C28, 0C3A, 0ED9

387F:22DF			sub_56:
           ml.lst          Copyright (C) 1986-1991 Phar Lap	Sourcer	v8.01   7-Sep-2022 10:02 am   Page 74

387F:22DF ˙55					push	bp
387F:22E0  8B EC				mov	bp,sp
387F:22E2  56					push	si
387F:22E3  57					push	di
387F:22E4  B9 0100				mov	cx,100h
387F:22E7  EB 08				jmp	short loc_212		; (22F1)
							                        ;* No entry point to code
387F:22E9  55					push	bp
387F:22EA  8B EC				mov	bp,sp
387F:22EC  56					push	si
387F:22ED  57					push	di
387F:22EE  B9 0101				mov	cx,101h
387F:22F1			loc_212:					;  xref 387F:22D5, 22DD, 22E7
387F:22F1  51					push	cx
387F:22F2  0A C9				or	cl,cl			; Zero ?
387F:22F4  75 1E				jnz	loc_213			; Jump if not zero
387F:22F6  BE 1380				mov	si,1380h
387F:22F9 ˙BF 1380				mov	di,offset data_209	; (3D48:1380=0)
387F:22FC  E8 007F				call	sub_58			; (237E)
387F:22FF  BE 11E8				mov	si,11E8h
387F:2302 ˙BF 11EA				mov	di,offset data_190	; (3D48:11EA='b=<<NMSG>>')
387F:2305  E8 0076				call	sub_58			; (237E)
						assume	ds:seg_d
387F:2308  81 3E 11CC D6D6			cmp	data_184,0D6D6h		; (3D48:11CC=0)
387F:230E  75 04				jne	loc_213			; Jump if not equal
387F:2310  FF 16 11D2				call	word ptr data_186	; (3D48:11D2=21CFh)
387F:2314			loc_213:					;  xref 387F:22F4, 230E
387F:2314  BE 11EA				mov	si,11EAh
387F:2317 ˙BF 11EA				mov	di,offset data_190	; (3D48:11EA='b=<<NMSG>>')
387F:231A  E8 0061				call	sub_58			; (237E)
387F:231D  BE 11EA				mov	si,11EAh
387F:2320 ˙BF 11EA				mov	di,offset data_190	; (3D48:11EA='b=<<NMSG>>')
387F:2323  E8 0067				call	sub_59			; (238D)
387F:2326  E8 0909				call	sub_89			; (2C32)
387F:2329  0B C0				or	ax,ax			; Zero ?
387F:232B  74 11				jz	loc_214			; Jump if zero
387F:232D  58					pop	ax
387F:232E  0A E4				or	ah,ah			; Zero ?
387F:2330  50					push	ax
387F:2331  75 0B				jnz	loc_214			; Jump if not zero
387F:2333  83 7E 04 00				cmp	word ptr [bp+4],0
387F:2337  75 05				jne	loc_214			; Jump if not equal
387F:2339  C7 46 04 00FF			mov	word ptr [bp+4],0FFh
387F:233E			loc_214:					;  xref 387F:232B, 2331, 2337
387F:233E  E8 0010				call	sub_57			; (2351)
387F:2341  58					pop	ax
387F:2342  0A E4				or	ah,ah			; Zero ?
387F:2344  75 07				jnz	loc_215			; Jump if not zero
387F:2346  8B 46 04				mov	ax,[bp+4]
387F:2349  B4 4C				mov	ah,4Ch
387F:234B  CD 21				int	21h			; DOS Services  ah=function 4Ch
										;  terminate with al=return code
387F:234D			loc_215:					;  xref 387F:2344
387F:234D  5F					pop	di
387F:234E  5E					pop	si
387F:234F  5D					pop	bp
387F:2350  C3					retn
           ml.lst          Copyright (C) 1986-1991 Phar Lap	Sourcer	v8.01   7-Sep-2022 10:02 am   Page 75

				sub_55		endp


				;ﬂﬂﬂﬂﬂﬂﬂﬂﬂﬂﬂﬂﬂﬂﬂﬂﬂﬂﬂﬂﬂﬂﬂﬂﬂﬂﬂﬂﬂﬂﬂﬂﬂﬂﬂﬂﬂﬂﬂﬂﬂﬂﬂﬂﬂﬂﬂﬂﬂﬂﬂﬂﬂﬂﬂﬂﬂﬂﬂﬂﬂﬂﬂﬂﬂﬂﬂﬂﬂﬂﬂﬂﬂﬂ
				;                              SUBROUTINE
				;
				;         Called from:   387F:233E, 483A
				;‹‹‹‹‹‹‹‹‹‹‹‹‹‹‹‹‹‹‹‹‹‹‹‹‹‹‹‹‹‹‹‹‹‹‹‹‹‹‹‹‹‹‹‹‹‹‹‹‹‹‹‹‹‹‹‹‹‹‹‹‹‹‹‹‹‹‹‹‹‹‹‹‹‹

387F:2351			sub_57		proc	near
387F:2351  8B 0E 11DE				mov	cx,word ptr data_188+2	; (3D48:11DE=0)
387F:2355  E3 07				jcxz	loc_216			; Jump if cx=0
387F:2357  BB 0002				mov	bx,2
387F:235A  FF 1E 11DC				call	dword ptr data_188	; (3D48:11DC=0)
387F:235E			loc_216:					;  xref 387F:2355
387F:235E  1E					push	ds
387F:235F  C5 16 0DEA				lds	dx,dword ptr data_123	; (3D48:0DEA=0) Load seg:offset ptr
387F:2363  B8 2500				mov	ax,2500h
387F:2366  CD 21				int	21h			; DOS Services  ah=function 25h
										;  set intrpt vector al to ds:dx
387F:2368  1F					pop	ds
387F:2369  80 3E 0E28 00			cmp	byte ptr data_141,0	; (3D48:0E28=0)
387F:236E  74 0D				je	loc_ret_217		; Jump if equal
387F:2370  1E					push	ds
387F:2371  A0 0E29				mov	al,data_142		; (3D48:0E29=0)
387F:2374  C5 16 0E2A				lds	dx,data_143		; (3D48:0E2A=0) Load seg:offset ptr
387F:2378  B4 25				mov	ah,25h
387F:237A  CD 21				int	21h			; DOS Services  ah=function 25h
										;  set intrpt vector al to ds:dx
387F:237C  1F					pop	ds

387F:237D			loc_ret_217:					;  xref 387F:236E
387F:237D  C3					retn
				sub_57		endp


				;ﬂﬂﬂﬂﬂﬂﬂﬂﬂﬂﬂﬂﬂﬂﬂﬂﬂﬂﬂﬂﬂﬂﬂﬂﬂﬂﬂﬂﬂﬂﬂﬂﬂﬂﬂﬂﬂﬂﬂﬂﬂﬂﬂﬂﬂﬂﬂﬂﬂﬂﬂﬂﬂﬂﬂﬂﬂﬂﬂﬂﬂﬂﬂﬂﬂﬂﬂﬂﬂﬂﬂﬂﬂﬂ
				;                              SUBROUTINE
				;
				;         Called from:   387F:22CC, 22FC, 2305, 231A
				;‹‹‹‹‹‹‹‹‹‹‹‹‹‹‹‹‹‹‹‹‹‹‹‹‹‹‹‹‹‹‹‹‹‹‹‹‹‹‹‹‹‹‹‹‹‹‹‹‹‹‹‹‹‹‹‹‹‹‹‹‹‹‹‹‹‹‹‹‹‹‹‹‹‹

387F:237E			sub_58		proc	near
387F:237E			loc_218:					;  xref 387F:2386, 238A
387F:237E ˙3B F7				cmp	si,di
387F:2380  73 0A				jae	loc_ret_219		; Jump if above or =
387F:2382  4F					dec	di
387F:2383  4F					dec	di
387F:2384  8B 0D				mov	cx,[di]
387F:2386  E3 F6				jcxz	loc_218			; Jump if cx=0
387F:2388  FF D1				call	cx			;*
387F:238A  EB F2				jmp	short loc_218		; (237E)

387F:238C			loc_ret_219:					;  xref 387F:2380
387F:238C  C3					retn
				sub_58		endp

           ml.lst          Copyright (C) 1986-1991 Phar Lap	Sourcer	v8.01   7-Sep-2022 10:02 am   Page 76


				;ﬂﬂﬂﬂﬂﬂﬂﬂﬂﬂﬂﬂﬂﬂﬂﬂﬂﬂﬂﬂﬂﬂﬂﬂﬂﬂﬂﬂﬂﬂﬂﬂﬂﬂﬂﬂﬂﬂﬂﬂﬂﬂﬂﬂﬂﬂﬂﬂﬂﬂﬂﬂﬂﬂﬂﬂﬂﬂﬂﬂﬂﬂﬂﬂﬂﬂﬂﬂﬂﬂﬂﬂﬂﬂ
				;                              SUBROUTINE
				;
				;         Called from:   387F:22C3, 2323
				;‹‹‹‹‹‹‹‹‹‹‹‹‹‹‹‹‹‹‹‹‹‹‹‹‹‹‹‹‹‹‹‹‹‹‹‹‹‹‹‹‹‹‹‹‹‹‹‹‹‹‹‹‹‹‹‹‹‹‹‹‹‹‹‹‹‹‹‹‹‹‹‹‹‹

387F:238D			sub_59		proc	near
387F:238D			loc_220:					;  xref 387F:2399, 239D
387F:238D ˙3B F7				cmp	si,di
387F:238F  73 0E				jae	loc_ret_221		; Jump if above or =
387F:2391  83 EF 04				sub	di,4
387F:2394  8B 05				mov	ax,[di]
387F:2396  0B 45 02				or	ax,[di+2]
387F:2399  74 F2				jz	loc_220			; Jump if zero
387F:239B  FF 1D				call	dword ptr [di]		;*
387F:239D  EB EE				jmp	short loc_220		; (238D)

387F:239F			loc_ret_221:					;  xref 387F:238F
387F:239F  C3					retn
				sub_59		endp


				;ﬂﬂﬂﬂﬂﬂﬂﬂﬂﬂﬂﬂﬂﬂﬂﬂﬂﬂﬂﬂﬂﬂﬂﬂﬂﬂﬂﬂﬂﬂﬂﬂﬂﬂﬂﬂﬂﬂﬂﬂﬂﬂﬂﬂﬂﬂﬂﬂﬂﬂﬂﬂﬂﬂﬂﬂﬂﬂﬂﬂﬂﬂﬂﬂﬂﬂﬂﬂﬂﬂﬂﬂﬂﬂ
				;                              SUBROUTINE
				;
				;         Called from:   387F:1C81
				;‹‹‹‹‹‹‹‹‹‹‹‹‹‹‹‹‹‹‹‹‹‹‹‹‹‹‹‹‹‹‹‹‹‹‹‹‹‹‹‹‹‹‹‹‹‹‹‹‹‹‹‹‹‹‹‹‹‹‹‹‹‹‹‹‹‹‹‹‹‹‹‹‹‹

387F:23A0			sub_60		proc	near

				PARAMETER_1	=	4			; bp+4
				LOCAL_7		=	-0Eh			; bp+0FFF2h
				LOCAL_6		=	-0Ch			; bp+0FFF4h
				LOCAL_5		=	-0Ah			; bp+0FFF6h
				LOCAL_4		=	-8			; bp+0FFF8h
				LOCAL_3		=	-6			; bp+0FFFAh
				LOCAL_2		=	-4			; bp+0FFFCh
				LOCAL_1		=	-2			; bp+0FFFEh

387F:23A0  55					push	bp
387F:23A1  8B EC				mov	bp,sp
387F:23A3  83 EC 0E				sub	sp,0Eh
387F:23A6  57					push	di
387F:23A7  56					push	si
387F:23A8  BF FFFF				mov	di,0FFFFh
387F:23AB  8B 76 04				mov	si,[bp+PARAMETER_1]
387F:23AE  F6 44 06 40				test	byte ptr [si+6],40h	; '@'
387F:23B2  74 03				jz	loc_222			; Jump if zero
387F:23B4  E9 008B				jmp	loc_227			; (2442)
387F:23B7			loc_222:					;  xref 387F:23B2
387F:23B7  F6 44 06 83				test	byte ptr [si+6],83h
387F:23BB  75 03				jnz	loc_223			; Jump if not zero
387F:23BD  E9 0082				jmp	loc_227			; (2442)
387F:23C0			loc_223:					;  xref 387F:23BB
387F:23C0 ˙56					push	si			; PARAMETER_1
387F:23C1  E8 0E86				call	sub_101			; (324A)
           ml.lst          Copyright (C) 1986-1991 Phar Lap	Sourcer	v8.01   7-Sep-2022 10:02 am   Page 77

387F:23C4  83 C4 02				add	sp,2
387F:23C7  8B F8				mov	di,ax
387F:23C9  8B DE				mov	bx,si
387F:23CB  81 EB 0FCC				sub	bx,0FCCh
387F:23CF  8B 87 1070				mov	ax,data_157[bx]		; (3D48:1070=0)
387F:23D3  89 46 FC				mov	[bp+LOCAL_2],ax
387F:23D6 ˙56					push	si			; PARAMETER_1
387F:23D7  E8 0CB0				call	sub_97			; (308A)
387F:23DA  83 C4 02				add	sp,2
387F:23DD  8A 44 07				mov	al,[si+7]
387F:23E0  2A E4				sub	ah,ah
387F:23E2  50					push	ax
387F:23E3  E8 1442				call	sub_112			; (3828)
387F:23E6  83 C4 02				add	sp,2
387F:23E9  0B C0				or	ax,ax			; Zero ?
387F:23EB  7C 52				jl	loc_226			; Jump if <
387F:23ED  83 7E FC 00				cmp	word ptr [bp+LOCAL_2],0
387F:23F1  74 4F				je	loc_227			; Jump if equal
387F:23F3  B8 0E2E				mov	ax,0E2Eh
387F:23F6 ˙50					push	ax			; PARAMETER_2
387F:23F7  8D 46 F2				lea	ax,[bp+LOCAL_7]		; Load effective addr
387F:23FA  50					push	ax			; PARAMETER_1
387F:23FB  E8 01F0				call	sub_68			; (25EE)
387F:23FE  83 C4 04				add	sp,4
387F:2401  8D 46 F4				lea	ax,[bp+LOCAL_6]		; Load effective addr
387F:2404  89 46 FE				mov	[bp+LOCAL_1],ax
387F:2407  80 7E F2 5C				cmp	byte ptr [bp+LOCAL_7],5Ch	; '\'
387F:240B  74 11				je	loc_224			; Jump if equal
387F:240D  B8 0E30				mov	ax,0E30h
387F:2410 ˙50					push	ax			; PARAMETER_2
387F:2411  8D 46 F2				lea	ax,[bp+LOCAL_7]		; Load effective addr
387F:2414  50					push	ax			; PARAMETER_1
387F:2415  E8 0196				call	sub_67			; (25AE)
387F:2418  83 C4 04				add	sp,4
387F:241B  EB 04				jmp	short loc_225		; (2421)
387F:241D  90					db	90h
387F:241E			loc_224:					;  xref 387F:240B
387F:241E  FF 4E FE				dec	word ptr [bp+LOCAL_1]
387F:2421			loc_225:					;  xref 387F:241B
387F:2421  B8 000A				mov	ax,0Ah
387F:2424 ˙50					push	ax			; PARAMETER_3
387F:2425  FF 76 FE				push	word ptr [bp+LOCAL_1]	; PARAMETER_2
387F:2428  FF 76 FC				push	word ptr [bp+LOCAL_2]	; PARAMETER_1
387F:242B  E8 162A				call	sub_119			; (3A58)
387F:242E  83 C4 06				add	sp,6
387F:2431  8D 46 F2				lea	ax,[bp+LOCAL_7]		; Load effective addr
387F:2434 ˙50					push	ax			; PARAMETER_1
387F:2435  E8 1A3C				call	sub_125			; (3E74)
387F:2438  83 C4 02				add	sp,2
387F:243B  0B C0				or	ax,ax			; Zero ?
387F:243D  74 03				jz	loc_227			; Jump if zero
387F:243F			loc_226:					;  xref 387F:23EB
387F:243F  BF FFFF				mov	di,0FFFFh
387F:2442			loc_227:					;  xref 387F:23B4, 23BD, 23F1, 243D
387F:2442  C6 44 06 00				mov	byte ptr [si+6],0
387F:2446  8B C7				mov	ax,di
387F:2448  5E					pop	si
           ml.lst          Copyright (C) 1986-1991 Phar Lap	Sourcer	v8.01   7-Sep-2022 10:02 am   Page 78

387F:2449  5F					pop	di
387F:244A  8B E5				mov	sp,bp
387F:244C  5D					pop	bp
387F:244D  C3					retn
				sub_60		endp


				;ﬂﬂﬂﬂﬂﬂﬂﬂﬂﬂﬂﬂﬂﬂﬂﬂﬂﬂﬂﬂﬂﬂﬂﬂﬂﬂﬂﬂﬂﬂﬂﬂﬂﬂﬂﬂﬂﬂﬂﬂﬂﬂﬂﬂﬂﬂﬂﬂﬂﬂﬂﬂﬂﬂﬂﬂﬂﬂﬂﬂﬂﬂﬂﬂﬂﬂﬂﬂﬂﬂﬂﬂﬂﬂ
				;                              SUBROUTINE
				;
				;         Called from:   387F:2482
				;‹‹‹‹‹‹‹‹‹‹‹‹‹‹‹‹‹‹‹‹‹‹‹‹‹‹‹‹‹‹‹‹‹‹‹‹‹‹‹‹‹‹‹‹‹‹‹‹‹‹‹‹‹‹‹‹‹‹‹‹‹‹‹‹‹‹‹‹‹‹‹‹‹‹

387F:244E			sub_61		proc	near

				PARAMETER_1	=	4			; bp+4
				PARAMETER_2	=	6			; bp+6
				PARAMETER_3	=	8			; bp+8

387F:244E  55					push	bp
387F:244F  8B EC				mov	bp,sp
387F:2451  56					push	si
387F:2452  E8 139F				call	sub_111			; (37F4)
387F:2455  8B F0				mov	si,ax
387F:2457  0B F6				or	si,si			; Zero ?
387F:2459  75 05				jnz	loc_228			; Jump if not zero
387F:245B  2B C0				sub	ax,ax
387F:245D  EB 11				jmp	short loc_229		; (2470)
							                        ;* No entry point to code
387F:245F  90					nop
387F:2460			loc_228:					;  xref 387F:2459
387F:2460 ˙56					push	si			; PARAMETER_4
387F:2461  FF 76 08				push	word ptr [bp+PARAMETER_3]	; PARAMETER_3
387F:2464  FF 76 06				push	word ptr [bp+PARAMETER_2]	; PARAMETER_2
387F:2467  FF 76 04				push	word ptr [bp+PARAMETER_1]	; PARAMETER_1
387F:246A  E8 0C47				call	sub_98			; (30B4)
387F:246D  83 C4 08				add	sp,8
387F:2470			loc_229:					;  xref 387F:245D
387F:2470  5E					pop	si
387F:2471  8B E5				mov	sp,bp
387F:2473  5D					pop	bp
387F:2474  C3					retn
				sub_61		endp

387F:2475  90					db	90h

				;ﬂﬂﬂﬂﬂﬂﬂﬂﬂﬂﬂﬂﬂﬂﬂﬂﬂﬂﬂﬂﬂﬂﬂﬂﬂﬂﬂﬂﬂﬂﬂﬂﬂﬂﬂﬂﬂﬂﬂﬂﬂﬂﬂﬂﬂﬂﬂﬂﬂﬂﬂﬂﬂﬂﬂﬂﬂﬂﬂﬂﬂﬂﬂﬂﬂﬂﬂﬂﬂﬂﬂﬂﬂﬂ
				;                              SUBROUTINE
				;
				;         Called from:   387F:1C00
				;‹‹‹‹‹‹‹‹‹‹‹‹‹‹‹‹‹‹‹‹‹‹‹‹‹‹‹‹‹‹‹‹‹‹‹‹‹‹‹‹‹‹‹‹‹‹‹‹‹‹‹‹‹‹‹‹‹‹‹‹‹‹‹‹‹‹‹‹‹‹‹‹‹‹

387F:2476			sub_62		proc	near

				PARAMETER_1	=	4			; bp+4
				PARAMETER_2	=	6			; bp+6

           ml.lst          Copyright (C) 1986-1991 Phar Lap	Sourcer	v8.01   7-Sep-2022 10:02 am   Page 79

387F:2476  55					push	bp
387F:2477  8B EC				mov	bp,sp
387F:2479  2B C0				sub	ax,ax
387F:247B ˙50					push	ax			; PARAMETER_3
387F:247C  FF 76 06				push	word ptr [bp+PARAMETER_2]	; PARAMETER_2
387F:247F  FF 76 04				push	word ptr [bp+PARAMETER_1]	; PARAMETER_1
387F:2482  E8 FFC9				call	sub_61			; (244E)
387F:2485  8B E5				mov	sp,bp
387F:2487  5D					pop	bp
387F:2488  C3					retn
				sub_62		endp

387F:2489  90					db	90h

				;ﬂﬂﬂﬂﬂﬂﬂﬂﬂﬂﬂﬂﬂﬂﬂﬂﬂﬂﬂﬂﬂﬂﬂﬂﬂﬂﬂﬂﬂﬂﬂﬂﬂﬂﬂﬂﬂﬂﬂﬂﬂﬂﬂﬂﬂﬂﬂﬂﬂﬂﬂﬂﬂﬂﬂﬂﬂﬂﬂﬂﬂﬂﬂﬂﬂﬂﬂﬂﬂﬂﬂﬂﬂﬂ
				;                              SUBROUTINE
				;
				;         Called from:   387F:1C2A
				;‹‹‹‹‹‹‹‹‹‹‹‹‹‹‹‹‹‹‹‹‹‹‹‹‹‹‹‹‹‹‹‹‹‹‹‹‹‹‹‹‹‹‹‹‹‹‹‹‹‹‹‹‹‹‹‹‹‹‹‹‹‹‹‹‹‹‹‹‹‹‹‹‹‹

387F:248A			sub_63		proc	near

				PARAMETER_1	=	4			; bp+4
				PARAMETER_2	=	6			; bp+6
				PARAMETER_3	=	8			; bp+8
				PARAMETER_4	=	0Ah			; bp+0Ah
				LOCAL_2		=	-4			; bp+0FFFCh
				LOCAL_1		=	-2			; bp+0FFFEh

387F:248A  55					push	bp
387F:248B  8B EC				mov	bp,sp
387F:248D  83 EC 04				sub	sp,4
387F:2490  56					push	si
387F:2491  57					push	di
387F:2492  8B 46 06				mov	ax,[bp+PARAMETER_2]
387F:2495  F7 66 08				mul	word ptr [bp+PARAMETER_3]	; dx:ax = data * ax
387F:2498  8B C8				mov	cx,ax
387F:249A  E3 5C				jcxz	loc_236			; Jump if cx=0
387F:249C  89 46 FE				mov	[bp+LOCAL_1],ax
387F:249F  8B 5E 04				mov	bx,[bp+PARAMETER_1]
387F:24A2  8B 76 0A				mov	si,[bp+PARAMETER_4]
387F:24A5 ˙BF 106C				mov	di,offset data_156	; (3D48:106C=1)
387F:24A8  8B C6				mov	ax,si
387F:24AA  2D 0FCC				sub	ax,0FCCh
387F:24AD  03 F8				add	di,ax
387F:24AF  F6 44 06 0C				test	byte ptr [si+6],0Ch
387F:24B3  75 05				jnz	loc_230			; Jump if not zero
387F:24B5  F6 05 01				test	byte ptr [di],1
387F:24B8  74 05				jz	loc_231			; Jump if zero
387F:24BA			loc_230:					;  xref 387F:24B3
387F:24BA  8B 45 02				mov	ax,[di+2]
387F:24BD  EB 03				jmp	short loc_232		; (24C2)
387F:24BF			loc_231:					;  xref 387F:24B8
387F:24BF  B8 0200				mov	ax,200h
387F:24C2			loc_232:					;  xref 387F:24BD
387F:24C2  89 46 FC				mov	[bp+LOCAL_2],ax
387F:24C5			loc_233:					;  xref 387F:24FC
           ml.lst          Copyright (C) 1986-1991 Phar Lap	Sourcer	v8.01   7-Sep-2022 10:02 am   Page 80

387F:24C5 ˙F6 44 06 0C				test	byte ptr [si+6],0Ch
387F:24C9  75 05				jnz	loc_234			; Jump if not zero
387F:24CB  F6 05 01				test	byte ptr [di],1
387F:24CE  74 2E				jz	loc_238			; Jump if zero
387F:24D0			loc_234:					;  xref 387F:24C9
387F:24D0  8B 44 02				mov	ax,[si+2]
387F:24D3  0B C0				or	ax,ax			; Zero ?
387F:24D5  74 27				jz	loc_238			; Jump if zero
387F:24D7  3B C1				cmp	ax,cx
387F:24D9  76 02				jbe	loc_235			; Jump if below or =
387F:24DB  8B C1				mov	ax,cx
387F:24DD			loc_235:					;  xref 387F:24D9
387F:24DD  50					push	ax
387F:24DE  53					push	bx
387F:24DF  51					push	cx
387F:24E0 ˙50					push	ax			; PARAMETER_3
387F:24E1  FF 34				push	word ptr [si]		; PARAMETER_2
387F:24E3  53					push	bx			; PARAMETER_1
387F:24E4  E8 047B				call	sub_79			; (2962)
387F:24E7  83 C4 06				add	sp,6
387F:24EA  59					pop	cx
387F:24EB  5B					pop	bx
387F:24EC  58					pop	ax
387F:24ED  2B C8				sub	cx,ax
387F:24EF  29 44 02				sub	[si+2],ax
387F:24F2  03 D8				add	bx,ax
387F:24F4  01 04				add	[si],ax
387F:24F6  EB 02				jmp	short loc_237		; (24FA)
387F:24F8			loc_236:					;  xref 387F:249A
387F:24F8  EB 6A				jmp	short loc_244		; (2564)
387F:24FA			loc_237:					;  xref 387F:24F6, 252D, 2547
387F:24FA ˙E3 57				jcxz	loc_242			; Jump if cx=0
387F:24FC  EB C7				jmp	short loc_233		; (24C5)
387F:24FE			loc_238:					;  xref 387F:24CE, 24D5
387F:24FE  3B 4E FC				cmp	cx,[bp+LOCAL_2]
387F:2501  72 2C				jb	loc_239			; Jump if below
387F:2503  33 D2				xor	dx,dx			; Zero register
387F:2505  8B C1				mov	ax,cx
387F:2507  F7 76 FC				div	word ptr [bp+LOCAL_2]	; ax,dxrem=dx:ax/data
387F:250A  8B C1				mov	ax,cx
387F:250C  2B C2				sub	ax,dx
387F:250E  53					push	bx
387F:250F ˙51					push	cx			; PARAMETER_4
387F:2510  50					push	ax			; PARAMETER_3
387F:2511  53					push	bx			; PARAMETER_2
387F:2512  33 C0				xor	ax,ax			; Zero register
387F:2514  8A 44 07				mov	al,[si+7]
387F:2517  50					push	ax			; PARAMETER_1
387F:2518  E8 13A7				call	sub_114			; (38C2)
387F:251B  83 C4 06				add	sp,6
387F:251E  59					pop	cx
387F:251F  5B					pop	bx
387F:2520  0B C0				or	ax,ax			; Zero ?
387F:2522  74 25				jz	loc_240			; Jump if zero
387F:2524  3D FFFF				cmp	ax,0FFFFh
387F:2527  74 26				je	loc_241			; Jump if equal
387F:2529  2B C8				sub	cx,ax
           ml.lst          Copyright (C) 1986-1991 Phar Lap	Sourcer	v8.01   7-Sep-2022 10:02 am   Page 81

387F:252B  03 D8				add	bx,ax
387F:252D  EB CB				jmp	short loc_237		; (24FA)
387F:252F			loc_239:					;  xref 387F:2501
387F:252F  53					push	bx
387F:2530  51					push	cx
387F:2531 ˙56					push	si			; PARAMETER_1
387F:2532  E8 09E1				call	sub_95			; (2F16)
387F:2535  59					pop	cx
387F:2536  59					pop	cx
387F:2537  5B					pop	bx
387F:2538  3D FFFF				cmp	ax,0FFFFh
387F:253B  74 16				je	loc_242			; Jump if equal
387F:253D  88 07				mov	[bx],al
387F:253F  43					inc	bx
387F:2540  49					dec	cx
387F:2541  8B 45 02				mov	ax,[di+2]
387F:2544  89 46 FC				mov	[bp+LOCAL_2],ax
387F:2547  EB B1				jmp	short loc_237		; (24FA)
387F:2549			loc_240:					;  xref 387F:2522
387F:2549  80 4C 06 10				or	byte ptr [si+6],10h
387F:254D  EB 04				jmp	short loc_242		; (2553)
387F:254F			loc_241:					;  xref 387F:2527
387F:254F  80 4C 06 20				or	byte ptr [si+6],20h	; ' '
387F:2553			loc_242:					;  xref 387F:24FA, 253B, 254D
387F:2553  E3 0C				jcxz	loc_243			; Jump if cx=0
387F:2555  8B 46 FE				mov	ax,[bp+LOCAL_1]
387F:2558  2B C1				sub	ax,cx
387F:255A  33 D2				xor	dx,dx			; Zero register
387F:255C  F7 76 06				div	word ptr [bp+PARAMETER_2]	; ax,dxrem=dx:ax/data
387F:255F  EB 03				jmp	short loc_244		; (2564)
387F:2561			loc_243:					;  xref 387F:2553
387F:2561  8B 46 08				mov	ax,[bp+PARAMETER_3]
387F:2564			loc_244:					;  xref 387F:24F8, 255F
387F:2564  5F					pop	di
387F:2565  5E					pop	si
387F:2566  8B E5				mov	sp,bp
387F:2568  5D					pop	bp
387F:2569  C3					retn
				sub_63		endp


				;ﬂﬂﬂﬂﬂﬂﬂﬂﬂﬂﬂﬂﬂﬂﬂﬂﬂﬂﬂﬂﬂﬂﬂﬂﬂﬂﬂﬂﬂﬂﬂﬂﬂﬂﬂﬂﬂﬂﬂﬂﬂﬂﬂﬂﬂﬂﬂﬂﬂﬂﬂﬂﬂﬂﬂﬂﬂﬂﬂﬂﬂﬂﬂﬂﬂﬂﬂﬂﬂﬂﬂﬂﬂﬂ
				;                              SUBROUTINE
				;
				;         Called from:   387F:059D, 0B97, 0C5C, 1C9C
				;‹‹‹‹‹‹‹‹‹‹‹‹‹‹‹‹‹‹‹‹‹‹‹‹‹‹‹‹‹‹‹‹‹‹‹‹‹‹‹‹‹‹‹‹‹‹‹‹‹‹‹‹‹‹‹‹‹‹‹‹‹‹‹‹‹‹‹‹‹‹‹‹‹‹

387F:256A			sub_64		proc	near

				PARAMETER_1	=	4			; bp+4
				PARAMETER_2	=	6			; bp+6
				LOCAL_2		=	-4			; bp+0FFFCh
				LOCAL_1		=	-2			; bp+0FFFEh

387F:256A  55					push	bp
387F:256B  8B EC				mov	bp,sp
387F:256D  83 EC 04				sub	sp,4
           ml.lst          Copyright (C) 1986-1991 Phar Lap	Sourcer	v8.01   7-Sep-2022 10:02 am   Page 82

387F:2570  57					push	di
387F:2571  56					push	si
387F:2572  BE 0FD4				mov	si,0FD4h
387F:2575 ˙56					push	si			; PARAMETER_1
387F:2576  E8 0C21				call	sub_99			; (319A)
387F:2579  83 C4 02				add	sp,2
387F:257C  8B F8				mov	di,ax
387F:257E  8D 46 06				lea	ax,[bp+PARAMETER_2]	; Load effective addr
387F:2581  50					push	ax
387F:2582  FF 76 04				push	word ptr [bp+PARAMETER_1]
387F:2585  B8 0FD4				mov	ax,0FD4h
387F:2588  50					push	ax
387F:2589  E8 0D92				call	sub_103			; (331E)
387F:258C  83 C4 06				add	sp,6
387F:258F  89 46 FC				mov	[bp+LOCAL_2],ax
387F:2592  B8 0FD4				mov	ax,0FD4h
387F:2595 ˙50					push	ax			; PARAMETER_2
387F:2596  57					push	di			; PARAMETER_1
387F:2597  E8 0C71				call	sub_100			; (320B)
387F:259A  83 C4 04				add	sp,4
387F:259D  8B 46 FC				mov	ax,[bp+LOCAL_2]
387F:25A0  5E					pop	si
387F:25A1  5F					pop	di
387F:25A2  8B E5				mov	sp,bp
387F:25A4  5D					pop	bp
387F:25A5  C3					retn
				sub_64		endp


				;ﬂﬂﬂﬂﬂﬂﬂﬂﬂﬂﬂﬂﬂﬂﬂﬂﬂﬂﬂﬂﬂﬂﬂﬂﬂﬂﬂﬂﬂﬂﬂﬂﬂﬂﬂﬂﬂﬂﬂﬂﬂﬂﬂﬂﬂﬂﬂﬂﬂﬂﬂﬂﬂﬂﬂﬂﬂﬂﬂﬂﬂﬂﬂﬂﬂﬂﬂﬂﬂﬂﬂﬂﬂﬂ
				;                              SUBROUTINE
				;
				;         Called from:   387F:0849, 08B3, 15F4, 31F8, 3DDD, 3EA6, 3EC9
				;                             451F, 4AB4
				;‹‹‹‹‹‹‹‹‹‹‹‹‹‹‹‹‹‹‹‹‹‹‹‹‹‹‹‹‹‹‹‹‹‹‹‹‹‹‹‹‹‹‹‹‹‹‹‹‹‹‹‹‹‹‹‹‹‹‹‹‹‹‹‹‹‹‹‹‹‹‹‹‹‹

387F:25A6			sub_65		proc	near
387F:25A6  E9 1424				jmp	loc_552			; (39CD)
				sub_65		endp

387F:25A9  00					db	0

				;ﬂﬂﬂﬂﬂﬂﬂﬂﬂﬂﬂﬂﬂﬂﬂﬂﬂﬂﬂﬂﬂﬂﬂﬂﬂﬂﬂﬂﬂﬂﬂﬂﬂﬂﬂﬂﬂﬂﬂﬂﬂﬂﬂﬂﬂﬂﬂﬂﬂﬂﬂﬂﬂﬂﬂﬂﬂﬂﬂﬂﬂﬂﬂﬂﬂﬂﬂﬂﬂﬂﬂﬂﬂﬂ
				;                              SUBROUTINE
				;
				;         Called from:   387F:1684, 309F, 3C65, 3C94, 3E4A, 4669, 4B6E
				;‹‹‹‹‹‹‹‹‹‹‹‹‹‹‹‹‹‹‹‹‹‹‹‹‹‹‹‹‹‹‹‹‹‹‹‹‹‹‹‹‹‹‹‹‹‹‹‹‹‹‹‹‹‹‹‹‹‹‹‹‹‹‹‹‹‹‹‹‹‹‹‹‹‹

387F:25AA			sub_66		proc	near
387F:25AA  E9 13FF				jmp	loc_550			; (39AC)
				sub_66		endp

387F:25AD  00					db	0

				;ﬂﬂﬂﬂﬂﬂﬂﬂﬂﬂﬂﬂﬂﬂﬂﬂﬂﬂﬂﬂﬂﬂﬂﬂﬂﬂﬂﬂﬂﬂﬂﬂﬂﬂﬂﬂﬂﬂﬂﬂﬂﬂﬂﬂﬂﬂﬂﬂﬂﬂﬂﬂﬂﬂﬂﬂﬂﬂﬂﬂﬂﬂﬂﬂﬂﬂﬂﬂﬂﬂﬂﬂﬂﬂ
				;                              SUBROUTINE
				;
           ml.lst          Copyright (C) 1986-1991 Phar Lap	Sourcer	v8.01   7-Sep-2022 10:02 am   Page 83

				;         Called from:   387F:0551, 0A11, 2415, 4AFE, 4B23
				;‹‹‹‹‹‹‹‹‹‹‹‹‹‹‹‹‹‹‹‹‹‹‹‹‹‹‹‹‹‹‹‹‹‹‹‹‹‹‹‹‹‹‹‹‹‹‹‹‹‹‹‹‹‹‹‹‹‹‹‹‹‹‹‹‹‹‹‹‹‹‹‹‹‹

387F:25AE			sub_67		proc	near

				PARAMETER_1	=	4			; bp+4
				PARAMETER_2	=	6			; bp+6

387F:25AE  55					push	bp
387F:25AF  8B EC				mov	bp,sp
387F:25B1  8B D7				mov	dx,di
387F:25B3  8B DE				mov	bx,si
387F:25B5  8C D8				mov	ax,ds
387F:25B7  8E C0				mov	es,ax
387F:25B9  8B 7E 04				mov	di,[bp+PARAMETER_1]
387F:25BC  33 C0				xor	ax,ax			; Zero register
387F:25BE  B9 FFFF				mov	cx,0FFFFh
387F:25C1  F2/ AE				repne	scasb			; Rep zf=0+cx >0 Scan es:[di] for al
387F:25C3  8D 75 FF				lea	si,[di-1]		; Load effective addr
387F:25C6  8B 7E 06				mov	di,[bp+PARAMETER_2]
387F:25C9  B9 FFFF				mov	cx,0FFFFh
387F:25CC  F2/ AE				repne	scasb			; Rep zf=0+cx >0 Scan es:[di] for al
387F:25CE  F7 D1				not	cx
387F:25D0  2B F9				sub	di,cx
387F:25D2  87 FE				xchg	di,si
387F:25D4  8B 46 04				mov	ax,[bp+PARAMETER_1]
387F:25D7  F7 C6 0001				test	si,1
387F:25DB  74 02				jz	loc_245			; Jump if zero
387F:25DD  A4					movsb				; Mov [si] to es:[di]
387F:25DE  49					dec	cx
387F:25DF			loc_245:					;  xref 387F:25DB
387F:25DF  D1 E9				shr	cx,1			; Shift w/zeros fill
387F:25E1  F3/ A5				rep	movsw			; Rep when cx >0 Mov [si] to es:[di]
387F:25E3  13 C9				adc	cx,cx
387F:25E5  F3/ A4				rep	movsb			; Rep when cx >0 Mov [si] to es:[di]
387F:25E7  8B F3				mov	si,bx
387F:25E9  8B FA				mov	di,dx
387F:25EB  5D					pop	bp
387F:25EC  C3					retn
				sub_67		endp

387F:25ED  00					db	0

				;ﬂﬂﬂﬂﬂﬂﬂﬂﬂﬂﬂﬂﬂﬂﬂﬂﬂﬂﬂﬂﬂﬂﬂﬂﬂﬂﬂﬂﬂﬂﬂﬂﬂﬂﬂﬂﬂﬂﬂﬂﬂﬂﬂﬂﬂﬂﬂﬂﬂﬂﬂﬂﬂﬂﬂﬂﬂﬂﬂﬂﬂﬂﬂﬂﬂﬂﬂﬂﬂﬂﬂﬂﬂﬂ
				;                              SUBROUTINE
				;
				;         Called from:   387F:0520, 0AA8, 0B57, 23FB, 3DF0, 3E23, 4568
				;                             4592, 45E5, 4602, 4612, 4682
				;‹‹‹‹‹‹‹‹‹‹‹‹‹‹‹‹‹‹‹‹‹‹‹‹‹‹‹‹‹‹‹‹‹‹‹‹‹‹‹‹‹‹‹‹‹‹‹‹‹‹‹‹‹‹‹‹‹‹‹‹‹‹‹‹‹‹‹‹‹‹‹‹‹‹

387F:25EE			sub_68		proc	near

				PARAMETER_1	=	4			; bp+4
				PARAMETER_2	=	6			; bp+6

387F:25EE  55					push	bp
387F:25EF  8B EC				mov	bp,sp
           ml.lst          Copyright (C) 1986-1991 Phar Lap	Sourcer	v8.01   7-Sep-2022 10:02 am   Page 84

387F:25F1  8B D7				mov	dx,di
387F:25F3  8B DE				mov	bx,si
387F:25F5  8B 76 06				mov	si,[bp+PARAMETER_2]
387F:25F8  8B FE				mov	di,si
387F:25FA  8C D8				mov	ax,ds
387F:25FC  8E C0				mov	es,ax
387F:25FE  33 C0				xor	ax,ax			; Zero register
387F:2600  B9 FFFF				mov	cx,0FFFFh
387F:2603  F2/ AE				repne	scasb			; Rep zf=0+cx >0 Scan es:[di] for al
387F:2605  F7 D1				not	cx
387F:2607  8B 7E 04				mov	di,[bp+PARAMETER_1]
387F:260A  8B C7				mov	ax,di
387F:260C  A8 01				test	al,1
387F:260E  74 02				jz	loc_246			; Jump if zero
387F:2610  A4					movsb				; Mov [si] to es:[di]
387F:2611  49					dec	cx
387F:2612			loc_246:					;  xref 387F:260E
387F:2612  D1 E9				shr	cx,1			; Shift w/zeros fill
387F:2614  F3/ A5				rep	movsw			; Rep when cx >0 Mov [si] to es:[di]
387F:2616  13 C9				adc	cx,cx
387F:2618  F3/ A4				rep	movsb			; Rep when cx >0 Mov [si] to es:[di]
387F:261A  8B F3				mov	si,bx
387F:261C  8B FA				mov	di,dx
387F:261E  5D					pop	bp
387F:261F  C3					retn
				sub_68		endp


				;ﬂﬂﬂﬂﬂﬂﬂﬂﬂﬂﬂﬂﬂﬂﬂﬂﬂﬂﬂﬂﬂﬂﬂﬂﬂﬂﬂﬂﬂﬂﬂﬂﬂﬂﬂﬂﬂﬂﬂﬂﬂﬂﬂﬂﬂﬂﬂﬂﬂﬂﬂﬂﬂﬂﬂﬂﬂﬂﬂﬂﬂﬂﬂﬂﬂﬂﬂﬂﬂﬂﬂﬂﬂﬂ
				;                              SUBROUTINE
				;
				;         Called from:   387F:0709, 0823, 082F, 083B, 0A63, 0B38, 0D11
				;                             2652, 265E, 3D46, 3DD3, 3DF7, 448C, 44E6
				;                             4648, 4B05, 4B11
				;‹‹‹‹‹‹‹‹‹‹‹‹‹‹‹‹‹‹‹‹‹‹‹‹‹‹‹‹‹‹‹‹‹‹‹‹‹‹‹‹‹‹‹‹‹‹‹‹‹‹‹‹‹‹‹‹‹‹‹‹‹‹‹‹‹‹‹‹‹‹‹‹‹‹

387F:2620			sub_69		proc	near

				PARAMETER_1	=	4			; bp+4

387F:2620  55					push	bp
387F:2621  8B EC				mov	bp,sp
387F:2623  8B D7				mov	dx,di
387F:2625  8C D8				mov	ax,ds
387F:2627  8E C0				mov	es,ax
387F:2629  8B 7E 04				mov	di,[bp+PARAMETER_1]
387F:262C  33 C0				xor	ax,ax			; Zero register
387F:262E  B9 FFFF				mov	cx,0FFFFh
387F:2631  F2/ AE				repne	scasb			; Rep zf=0+cx >0 Scan es:[di] for al
387F:2633  F7 D1				not	cx
387F:2635  49					dec	cx
387F:2636  91					xchg	cx,ax
387F:2637  8B FA				mov	di,dx
387F:2639  5D					pop	bp
387F:263A  C3					retn
				sub_69		endp

           ml.lst          Copyright (C) 1986-1991 Phar Lap	Sourcer	v8.01   7-Sep-2022 10:02 am   Page 85

387F:263B  00					db	0

				;ﬂﬂﬂﬂﬂﬂﬂﬂﬂﬂﬂﬂﬂﬂﬂﬂﬂﬂﬂﬂﬂﬂﬂﬂﬂﬂﬂﬂﬂﬂﬂﬂﬂﬂﬂﬂﬂﬂﬂﬂﬂﬂﬂﬂﬂﬂﬂﬂﬂﬂﬂﬂﬂﬂﬂﬂﬂﬂﬂﬂﬂﬂﬂﬂﬂﬂﬂﬂﬂﬂﬂﬂﬂﬂ
				;                              SUBROUTINE
				;
				;         Called from:   387F:050D, 05B0, 0A1B, 3C0C, 4AA1
				;‹‹‹‹‹‹‹‹‹‹‹‹‹‹‹‹‹‹‹‹‹‹‹‹‹‹‹‹‹‹‹‹‹‹‹‹‹‹‹‹‹‹‹‹‹‹‹‹‹‹‹‹‹‹‹‹‹‹‹‹‹‹‹‹‹‹‹‹‹‹‹‹‹‹

387F:263C			sub_70		proc	near

				PARAMETER_1	=	4			; bp+4

387F:263C  55					push	bp
387F:263D  8B EC				mov	bp,sp
387F:263F  57					push	di
387F:2640  56					push	si
387F:2641  8B 36 0E1F				mov	si,data_137		; (3D48:0E1F=0)
387F:2645  0B F6				or	si,si			; Zero ?
387F:2647  74 44				jz	loc_250			; Jump if zero
387F:2649  83 7E 04 00				cmp	word ptr [bp+PARAMETER_1],0
387F:264D  74 3E				je	loc_250			; Jump if equal
387F:264F ˙FF 76 04				push	word ptr [bp+PARAMETER_1]	; PARAMETER_1
387F:2652  E8 FFCB				call	sub_69			; (2620)
387F:2655  83 C4 02				add	sp,2
387F:2658  8B F8				mov	di,ax
387F:265A  EB 2C				jmp	short loc_249		; (2688)
387F:265C			loc_247:					;  xref 387F:268B
387F:265C ˙FF 34				push	word ptr [si]		; PARAMETER_1
387F:265E  E8 FFBF				call	sub_69			; (2620)
387F:2661  83 C4 02				add	sp,2
387F:2664  3B C7				cmp	ax,di
387F:2666  7E 1E				jle	loc_248			; Jump if < or =
387F:2668  8B 1C				mov	bx,[si]
387F:266A  80 39 3D				cmp	byte ptr [bx+di],3Dh	; '='
387F:266D  75 17				jne	loc_248			; Jump if not equal
387F:266F ˙57					push	di			; PARAMETER_3
387F:2670  FF 76 04				push	word ptr [bp+PARAMETER_1]	; PARAMETER_2
387F:2673  53					push	bx			; PARAMETER_1
387F:2674  E8 13A7				call	sub_118			; (3A1E)
387F:2677  83 C4 06				add	sp,6
387F:267A  0B C0				or	ax,ax			; Zero ?
387F:267C  75 08				jnz	loc_248			; Jump if not zero
387F:267E  8B 04				mov	ax,[si]
387F:2680  03 C7				add	ax,di
387F:2682  40					inc	ax
387F:2683  EB 0A				jmp	short loc_251		; (268F)
387F:2685  90					db	90h
387F:2686			loc_248:					;  xref 387F:2666, 266D, 267C
387F:2686  46					inc	si
387F:2687  46					inc	si
387F:2688			loc_249:					;  xref 387F:265A
387F:2688  83 3C 00				cmp	word ptr [si],0
387F:268B  75 CF				jne	loc_247			; Jump if not equal
387F:268D			loc_250:					;  xref 387F:2647, 264D
387F:268D  2B C0				sub	ax,ax
387F:268F			loc_251:					;  xref 387F:2683
387F:268F  5E					pop	si
           ml.lst          Copyright (C) 1986-1991 Phar Lap	Sourcer	v8.01   7-Sep-2022 10:02 am   Page 86

387F:2690  5F					pop	di
387F:2691  8B E5				mov	sp,bp
387F:2693  5D					pop	bp
387F:2694  C3					retn
				sub_70		endp

387F:2695  90					db	90h

				;ﬂﬂﬂﬂﬂﬂﬂﬂﬂﬂﬂﬂﬂﬂﬂﬂﬂﬂﬂﬂﬂﬂﬂﬂﬂﬂﬂﬂﬂﬂﬂﬂﬂﬂﬂﬂﬂﬂﬂﬂﬂﬂﬂﬂﬂﬂﬂﬂﬂﬂﬂﬂﬂﬂﬂﬂﬂﬂﬂﬂﬂﬂﬂﬂﬂﬂﬂﬂﬂﬂﬂﬂﬂﬂ
				;                              SUBROUTINE
				;
				;         Called from:   387F:0892
				;‹‹‹‹‹‹‹‹‹‹‹‹‹‹‹‹‹‹‹‹‹‹‹‹‹‹‹‹‹‹‹‹‹‹‹‹‹‹‹‹‹‹‹‹‹‹‹‹‹‹‹‹‹‹‹‹‹‹‹‹‹‹‹‹‹‹‹‹‹‹‹‹‹‹

387F:2696			sub_71		proc	near

				PARAMETER_1	=	4			; bp+4
				LOCAL_2		=	-4			; bp+0FFFCh
				LOCAL_1		=	-2			; bp+0FFFEh

387F:2696  55					push	bp
387F:2697  8B EC				mov	bp,sp
387F:2699  83 EC 04				sub	sp,4
387F:269C  57					push	di
387F:269D  56					push	si
387F:269E  83 7E 04 00				cmp	word ptr [bp+PARAMETER_1],0
387F:26A2  75 06				jne	loc_253			; Jump if not equal
387F:26A4			loc_252:					;  xref 387F:26C2, 2747
387F:26A4 ˙B8 FFFF				mov	ax,0FFFFh
387F:26A7  E9 00B6				jmp	loc_265			; (2760)
387F:26AA			loc_253:					;  xref 387F:26A2
387F:26AA  8B 46 04				mov	ax,[bp+PARAMETER_1]
387F:26AD  89 46 FE				mov	[bp+LOCAL_1],ax
387F:26B0  EB 03				jmp	short loc_255		; (26B5)
387F:26B2			loc_254:					;  xref 387F:26C0
387F:26B2  FF 46 FE				inc	word ptr [bp+LOCAL_1]
387F:26B5			loc_255:					;  xref 387F:26B0
387F:26B5  8B 5E FE				mov	bx,[bp+LOCAL_1]
387F:26B8  80 3F 3D				cmp	byte ptr [bx],3Dh	; '='
387F:26BB  74 07				je	loc_256			; Jump if equal
387F:26BD  80 3F 00				cmp	byte ptr [bx],0
387F:26C0  75 F0				jne	loc_254			; Jump if not equal
387F:26C2  EB E0				jmp	short loc_252		; (26A4)
387F:26C4			loc_256:					;  xref 387F:26BB
387F:26C4  80 7F 01 01				cmp	byte ptr [bx+1],1
387F:26C8  1B C0				sbb	ax,ax
387F:26CA  F7 D8				neg	ax
387F:26CC  89 46 FC				mov	[bp+LOCAL_2],ax
387F:26CF  8B 36 0E1F				mov	si,data_137		; (3D48:0E1F=0)
387F:26D3  2B 5E 04				sub	bx,[bp+PARAMETER_1]
387F:26D6 ˙53					push	bx			; PARAMETER_2
387F:26D7  FF 76 04				push	word ptr [bp+PARAMETER_1]	; PARAMETER_1
387F:26DA  E8 0089				call	sub_72			; (2766)
387F:26DD  83 C4 04				add	sp,4
387F:26E0  8B F8				mov	di,ax
387F:26E2  0B FF				or	di,di			; Zero ?
387F:26E4  7C 40				jl	loc_260			; Jump if <
           ml.lst          Copyright (C) 1986-1991 Phar Lap	Sourcer	v8.01   7-Sep-2022 10:02 am   Page 87

387F:26E6  83 3C 00				cmp	word ptr [si],0
387F:26E9  74 3B				je	loc_260			; Jump if equal
387F:26EB  83 7E FC 00				cmp	word ptr [bp+LOCAL_2],0
387F:26EF  74 29				je	loc_259			; Jump if equal
387F:26F1  EB 09				jmp	short loc_258		; (26FC)
387F:26F3  90					db	90h
387F:26F4			loc_257:					;  xref 387F:2703
387F:26F4  03 DE				add	bx,si
387F:26F6  8B 47 02				mov	ax,[bx+2]
387F:26F9  89 07				mov	[bx],ax
387F:26FB  47					inc	di
387F:26FC			loc_258:					;  xref 387F:26F1
387F:26FC  8B DF				mov	bx,di
387F:26FE  D1 E3				shl	bx,1			; Shift w/zeros fill
387F:2700  83 38 00				cmp	word ptr [bx+si],0
387F:2703  75 EF				jne	loc_257			; Jump if not equal
387F:2705  8B C7				mov	ax,di
387F:2707  D1 E0				shl	ax,1			; Shift w/zeros fill
387F:2709  50					push	ax
387F:270A  56					push	si
387F:270B  E8 14D6				call	sub_121			; (3BE4)
387F:270E  83 C4 04				add	sp,4
387F:2711  8B F0				mov	si,ax
387F:2713  0B F6				or	si,si			; Zero ?
387F:2715  74 47				jz	loc_264			; Jump if zero
387F:2717  EB 41				jmp	short loc_263		; (275A)
387F:2719  90					db	90h
387F:271A			loc_259:					;  xref 387F:26EF
387F:271A  8B 46 04				mov	ax,[bp+PARAMETER_1]
387F:271D  8B DF				mov	bx,di
387F:271F  D1 E3				shl	bx,1			; Shift w/zeros fill
387F:2721  89 00				mov	[bx+si],ax
387F:2723  EB 39				jmp	short loc_264		; (275E)
387F:2725  90					db	90h
387F:2726			loc_260:					;  xref 387F:26E4, 26E9
387F:2726  83 7E FC 00				cmp	word ptr [bp+LOCAL_2],0
387F:272A  75 32				jne	loc_264			; Jump if not equal
387F:272C  0B FF				or	di,di			; Zero ?
387F:272E  7D 04				jge	loc_261			; Jump if > or =
387F:2730  F7 D8				neg	ax
387F:2732  8B F8				mov	di,ax
387F:2734			loc_261:					;  xref 387F:272E
387F:2734  8D 45 02				lea	ax,[di+2]		; Load effective addr
387F:2737  D1 E0				shl	ax,1			; Shift w/zeros fill
387F:2739  50					push	ax
387F:273A  56					push	si
387F:273B  E8 14A6				call	sub_121			; (3BE4)
387F:273E  83 C4 04				add	sp,4
387F:2741  8B F0				mov	si,ax
387F:2743  0B F6				or	si,si			; Zero ?
387F:2745  75 03				jnz	loc_262			; Jump if not zero
387F:2747  E9 FF5A				jmp	loc_252			; (26A4)
387F:274A			loc_262:					;  xref 387F:2745
387F:274A  8B 46 04				mov	ax,[bp+PARAMETER_1]
387F:274D  8B DF				mov	bx,di
387F:274F  D1 E3				shl	bx,1			; Shift w/zeros fill
387F:2751  89 00				mov	[bx+si],ax
           ml.lst          Copyright (C) 1986-1991 Phar Lap	Sourcer	v8.01   7-Sep-2022 10:02 am   Page 88

387F:2753  03 DE				add	bx,si
387F:2755  C7 47 02 0000			mov	word ptr [bx+2],0
387F:275A			loc_263:					;  xref 387F:2717
387F:275A  89 36 0E1F				mov	data_137,si		; (3D48:0E1F=0)
387F:275E			loc_264:					;  xref 387F:2715, 2723, 272A
387F:275E  2B C0				sub	ax,ax
387F:2760			loc_265:					;  xref 387F:26A7
387F:2760  5E					pop	si
387F:2761  5F					pop	di
387F:2762  8B E5				mov	sp,bp
387F:2764  5D					pop	bp
387F:2765  C3					retn
				sub_71		endp


				;ﬂﬂﬂﬂﬂﬂﬂﬂﬂﬂﬂﬂﬂﬂﬂﬂﬂﬂﬂﬂﬂﬂﬂﬂﬂﬂﬂﬂﬂﬂﬂﬂﬂﬂﬂﬂﬂﬂﬂﬂﬂﬂﬂﬂﬂﬂﬂﬂﬂﬂﬂﬂﬂﬂﬂﬂﬂﬂﬂﬂﬂﬂﬂﬂﬂﬂﬂﬂﬂﬂﬂﬂﬂﬂ
				;                              SUBROUTINE
				;
				;         Called from:   387F:26DA
				;‹‹‹‹‹‹‹‹‹‹‹‹‹‹‹‹‹‹‹‹‹‹‹‹‹‹‹‹‹‹‹‹‹‹‹‹‹‹‹‹‹‹‹‹‹‹‹‹‹‹‹‹‹‹‹‹‹‹‹‹‹‹‹‹‹‹‹‹‹‹‹‹‹‹

387F:2766			sub_72		proc	near

				PARAMETER_1	=	4			; bp+4
				PARAMETER_2	=	6			; bp+6
				LOCAL_4		=	-8			; bp+0FFF8h
				LOCAL_3		=	-6			; bp+0FFFAh
				LOCAL_2		=	-4			; bp+0FFFCh
				LOCAL_1		=	-2			; bp+0FFFEh

387F:2766  55					push	bp
387F:2767  8B EC				mov	bp,sp
387F:2769  83 EC 08				sub	sp,8
387F:276C  57					push	di
387F:276D  56					push	si
387F:276E  A1 0E1F				mov	ax,data_137		; (3D48:0E1F=0)
387F:2771  89 46 FE				mov	[bp+LOCAL_1],ax
387F:2774  EB 3C				jmp	short loc_272		; (27B2)
387F:2776			loc_266:					;  xref 387F:27B9
387F:2776  8B 76 04				mov	si,[bp+PARAMETER_1]
387F:2779  8B 46 06				mov	ax,[bp+PARAMETER_2]
387F:277C  89 46 FC				mov	[bp+LOCAL_2],ax
387F:277F  EB 0B				jmp	short loc_268		; (278C)
387F:2781  90					db	90h
387F:2782			loc_267:					;  xref 387F:2790
387F:2782  47					inc	di
387F:2783  AC					lodsb				; String [si] to al
387F:2784  38 45 FF				cmp	[di-1],al
387F:2787  75 09				jne	loc_269			; Jump if not equal
387F:2789  FF 4E FC				dec	word ptr [bp+LOCAL_2]
387F:278C			loc_268:					;  xref 387F:277F
387F:278C  83 7E FC 00				cmp	word ptr [bp+LOCAL_2],0
387F:2790  75 F0				jne	loc_267			; Jump if not equal
387F:2792			loc_269:					;  xref 387F:2787
387F:2792  83 7E FC 00				cmp	word ptr [bp+LOCAL_2],0
387F:2796  75 16				jne	loc_271			; Jump if not equal
387F:2798  80 3D 3D				cmp	byte ptr [di],3Dh	; '='
           ml.lst          Copyright (C) 1986-1991 Phar Lap	Sourcer	v8.01   7-Sep-2022 10:02 am   Page 89

387F:279B  74 05				je	loc_270			; Jump if equal
387F:279D  80 3D 00				cmp	byte ptr [di],0
387F:27A0  75 0C				jne	loc_271			; Jump if not equal
387F:27A2			loc_270:					;  xref 387F:279B
387F:27A2  8B 46 FE				mov	ax,[bp+LOCAL_1]
387F:27A5  2B 06 0E1F				sub	ax,data_137		; (3D48:0E1F=0)
387F:27A9  D1 F8				sar	ax,1			; Shift w/sign fill
387F:27AB  EB 18				jmp	short loc_273		; (27C5)
387F:27AD  90					db	90h
387F:27AE			loc_271:					;  xref 387F:2796, 27A0
387F:27AE  83 46 FE 02				add	word ptr [bp+LOCAL_1],2
387F:27B2			loc_272:					;  xref 387F:2774
387F:27B2  8B 5E FE				mov	bx,[bp+LOCAL_1]
387F:27B5  8B 3F				mov	di,[bx]
387F:27B7  0B FF				or	di,di			; Zero ?
387F:27B9  75 BB				jnz	loc_266			; Jump if not zero
387F:27BB  8B C3				mov	ax,bx
387F:27BD  2B 06 0E1F				sub	ax,data_137		; (3D48:0E1F=0)
387F:27C1  D1 F8				sar	ax,1			; Shift w/sign fill
387F:27C3  F7 D8				neg	ax
387F:27C5			loc_273:					;  xref 387F:27AB
387F:27C5  5E					pop	si
387F:27C6  5F					pop	di
387F:27C7  8B E5				mov	sp,bp
387F:27C9  5D					pop	bp
387F:27CA  C3					retn
				sub_72		endp

387F:27CB  90					db	90h

				;ﬂﬂﬂﬂﬂﬂﬂﬂﬂﬂﬂﬂﬂﬂﬂﬂﬂﬂﬂﬂﬂﬂﬂﬂﬂﬂﬂﬂﬂﬂﬂﬂﬂﬂﬂﬂﬂﬂﬂﬂﬂﬂﬂﬂﬂﬂﬂﬂﬂﬂﬂﬂﬂﬂﬂﬂﬂﬂﬂﬂﬂﬂﬂﬂﬂﬂﬂﬂﬂﬂﬂﬂﬂﬂ
				;                              SUBROUTINE
				;
				;         Called from:   387F:1C5A
				;‹‹‹‹‹‹‹‹‹‹‹‹‹‹‹‹‹‹‹‹‹‹‹‹‹‹‹‹‹‹‹‹‹‹‹‹‹‹‹‹‹‹‹‹‹‹‹‹‹‹‹‹‹‹‹‹‹‹‹‹‹‹‹‹‹‹‹‹‹‹‹‹‹‹

387F:27CC			sub_73		proc	near

				PARAMETER_1	=	4			; bp+4
				PARAMETER_2	=	6			; bp+6
				PARAMETER_3	=	8			; bp+8
				PARAMETER_4	=	0Ah			; bp+0Ah

387F:27CC  55					push	bp
387F:27CD  8B EC				mov	bp,sp
387F:27CF  56					push	si
387F:27D0  8B 76 04				mov	si,[bp+PARAMETER_1]
387F:27D3  F6 44 06 83				test	byte ptr [si+6],83h
387F:27D7  74 0C				jz	loc_274			; Jump if zero
387F:27D9  83 7E 0A 02				cmp	word ptr [bp+PARAMETER_4],2
387F:27DD  7F 06				jg	loc_274			; Jump if >
387F:27DF  83 7E 0A 00				cmp	word ptr [bp+PARAMETER_4],0
387F:27E3  7D 09				jge	loc_275			; Jump if > or =
387F:27E5			loc_274:					;  xref 387F:27D7, 27DD
387F:27E5  C7 06 0DF8 0016			mov	data_126,16h		; (3D48:0DF8=0)
387F:27EB  EB 4C				jmp	short loc_278		; (2839)
387F:27ED  90					db	90h
           ml.lst          Copyright (C) 1986-1991 Phar Lap	Sourcer	v8.01   7-Sep-2022 10:02 am   Page 90

387F:27EE			loc_275:					;  xref 387F:27E3
387F:27EE  80 64 06 EF				and	byte ptr [si+6],0EFh
387F:27F2  83 7E 0A 01				cmp	word ptr [bp+PARAMETER_4],1
387F:27F6  75 12				jne	loc_276			; Jump if not equal
387F:27F8 ˙56					push	si			; PARAMETER_1
387F:27F9  E8 1278				call	sub_120			; (3A74)
387F:27FC  83 C4 02				add	sp,2
387F:27FF  01 46 06				add	[bp+PARAMETER_2],ax
387F:2802  11 56 08				adc	[bp+PARAMETER_3],dx
387F:2805  C7 46 0A 0000			mov	word ptr [bp+PARAMETER_4],0
387F:280A			loc_276:					;  xref 387F:27F6
387F:280A ˙56					push	si			; PARAMETER_1
387F:280B  E8 0A3C				call	sub_101			; (324A)
387F:280E  83 C4 02				add	sp,2
387F:2811  F6 44 06 80				test	byte ptr [si+6],80h
387F:2815  74 04				jz	loc_277			; Jump if zero
387F:2817  80 64 06 FC				and	byte ptr [si+6],0FCh
387F:281B			loc_277:					;  xref 387F:2815
387F:281B  FF 76 0A				push	word ptr [bp+PARAMETER_4]
387F:281E  FF 76 08				push	word ptr [bp+PARAMETER_3]
387F:2821  FF 76 06				push	word ptr [bp+PARAMETER_2]
387F:2824  8A 44 07				mov	al,[si+7]
387F:2827  2A E4				sub	ah,ah
387F:2829  50					push	ax
387F:282A  E8 101B				call	sub_113			; (3848)
387F:282D  83 C4 08				add	sp,8
387F:2830  3D FFFF				cmp	ax,0FFFFh
387F:2833  75 09				jne	loc_279			; Jump if not equal
387F:2835  3B D0				cmp	dx,ax
387F:2837  75 05				jne	loc_279			; Jump if not equal
387F:2839			loc_278:					;  xref 387F:27EB
387F:2839  B8 FFFF				mov	ax,0FFFFh
387F:283C  EB 02				jmp	short loc_280		; (2840)
387F:283E			loc_279:					;  xref 387F:2833, 2837
387F:283E  2B C0				sub	ax,ax
387F:2840			loc_280:					;  xref 387F:283C
387F:2840  5E					pop	si
387F:2841  8B E5				mov	sp,bp
387F:2843  5D					pop	bp
387F:2844  C3					retn
				sub_73		endp

387F:2845  90					db	90h

				;ﬂﬂﬂﬂﬂﬂﬂﬂﬂﬂﬂﬂﬂﬂﬂﬂﬂﬂﬂﬂﬂﬂﬂﬂﬂﬂﬂﬂﬂﬂﬂﬂﬂﬂﬂﬂﬂﬂﬂﬂﬂﬂﬂﬂﬂﬂﬂﬂﬂﬂﬂﬂﬂﬂﬂﬂﬂﬂﬂﬂﬂﬂﬂﬂﬂﬂﬂﬂﬂﬂﬂﬂﬂﬂ
				;                              SUBROUTINE
				;
				;         Called from:   387F:0818, 0BDF
				;‹‹‹‹‹‹‹‹‹‹‹‹‹‹‹‹‹‹‹‹‹‹‹‹‹‹‹‹‹‹‹‹‹‹‹‹‹‹‹‹‹‹‹‹‹‹‹‹‹‹‹‹‹‹‹‹‹‹‹‹‹‹‹‹‹‹‹‹‹‹‹‹‹‹

387F:2846			sub_74		proc	near

				PARAMETER_1	=	4			; bp+4
				PARAMETER_2	=	6			; bp+6
				PARAMETER_3	=	8			; bp+8
				LOCAL_1		=	-2			; bp+0FFFEh

           ml.lst          Copyright (C) 1986-1991 Phar Lap	Sourcer	v8.01   7-Sep-2022 10:02 am   Page 91

387F:2846  55					push	bp
387F:2847  8B EC				mov	bp,sp
387F:2849  83 EC 02				sub	sp,2
387F:284C  57					push	di
387F:284D  56					push	si
387F:284E  C6 06 137E 42			mov	byte ptr data_207,42h	; (3D48:137E=0) 'B'
387F:2853  8B 46 04				mov	ax,[bp+PARAMETER_1]
387F:2856  A3 137C				mov	data_206,ax		; (3D48:137C=0)
387F:2859 ˙BE 1378				mov	si,offset data_204	; (3D48:1378=0)
387F:285C  89 04				mov	[si],ax
387F:285E  C7 06 137A 7FFF			mov	data_205,7FFFh		; (3D48:137A=0)
387F:2864  8D 46 08				lea	ax,[bp+PARAMETER_3]	; Load effective addr
387F:2867  50					push	ax
387F:2868  FF 76 06				push	word ptr [bp+PARAMETER_2]
387F:286B  8B C6				mov	ax,si
387F:286D  50					push	ax
387F:286E  E8 0AAD				call	sub_103			; (331E)
387F:2871  83 C4 06				add	sp,6
387F:2874  8B F8				mov	di,ax
387F:2876  FF 0E 137A				dec	data_205		; (3D48:137A=0)
387F:287A  78 0E				js	loc_281			; Jump if sign=1
387F:287C  8B 1E 1378				mov	bx,data_204		; (3D48:1378=0)
387F:2880  FF 06 1378				inc	data_204		; (3D48:1378=0)
387F:2884  C6 07 00				mov	byte ptr [bx],0
387F:2887  EB 0B				jmp	short loc_282		; (2894)
							                        ;* No entry point to code
387F:2889  90					nop
387F:288A			loc_281:					;  xref 387F:287A
387F:288A ˙56					push	si			; PARAMETER_2
387F:288B  2B C0				sub	ax,ax
387F:288D  50					push	ax			; PARAMETER_1
387F:288E  E8 0719				call	sub_96			; (2FAA)
387F:2891  83 C4 04				add	sp,4
387F:2894			loc_282:					;  xref 387F:2887
387F:2894  8B C7				mov	ax,di
387F:2896  5E					pop	si
387F:2897  5F					pop	di
387F:2898  8B E5				mov	sp,bp
387F:289A  5D					pop	bp
387F:289B  C3					retn
				sub_74		endp


				;ﬂﬂﬂﬂﬂﬂﬂﬂﬂﬂﬂﬂﬂﬂﬂﬂﬂﬂﬂﬂﬂﬂﬂﬂﬂﬂﬂﬂﬂﬂﬂﬂﬂﬂﬂﬂﬂﬂﬂﬂﬂﬂﬂﬂﬂﬂﬂﬂﬂﬂﬂﬂﬂﬂﬂﬂﬂﬂﬂﬂﬂﬂﬂﬂﬂﬂﬂﬂﬂﬂﬂﬂﬂﬂ
				;                              SUBROUTINE
				;
				;         Called from:   387F:1CA8
				;‹‹‹‹‹‹‹‹‹‹‹‹‹‹‹‹‹‹‹‹‹‹‹‹‹‹‹‹‹‹‹‹‹‹‹‹‹‹‹‹‹‹‹‹‹‹‹‹‹‹‹‹‹‹‹‹‹‹‹‹‹‹‹‹‹‹‹‹‹‹‹‹‹‹

387F:289C			sub_75		proc	near

				PARAMETER_1	=	4			; bp+4
				PARAMETER_2	=	6			; bp+6
				LOCAL_1		=	-2			; bp+0FFFEh

387F:289C  55					push	bp
387F:289D  8B EC				mov	bp,sp
           ml.lst          Copyright (C) 1986-1991 Phar Lap	Sourcer	v8.01   7-Sep-2022 10:02 am   Page 92

387F:289F  83 EC 02				sub	sp,2
387F:28A2  57					push	di
387F:28A3  56					push	si
387F:28A4  BE 0FD4				mov	si,0FD4h
387F:28A7 ˙56					push	si			; PARAMETER_1
387F:28A8  E8 08EF				call	sub_99			; (319A)
387F:28AB  83 C4 02				add	sp,2
387F:28AE  8B F8				mov	di,ax
387F:28B0  FF 76 06				push	word ptr [bp+PARAMETER_2]
387F:28B3  FF 76 04				push	word ptr [bp+PARAMETER_1]
387F:28B6  B8 0FD4				mov	ax,0FD4h
387F:28B9  50					push	ax
387F:28BA  E8 0A61				call	sub_103			; (331E)
387F:28BD  83 C4 06				add	sp,6
387F:28C0  89 46 FE				mov	[bp+LOCAL_1],ax
387F:28C3  B8 0FD4				mov	ax,0FD4h
387F:28C6 ˙50					push	ax			; PARAMETER_2
387F:28C7  57					push	di			; PARAMETER_1
387F:28C8  E8 0940				call	sub_100			; (320B)
387F:28CB  83 C4 04				add	sp,4
387F:28CE  8B 46 FE				mov	ax,[bp+LOCAL_1]
387F:28D1  5E					pop	si
387F:28D2  5F					pop	di
387F:28D3  8B E5				mov	sp,bp
387F:28D5  5D					pop	bp
387F:28D6  C3					retn
				sub_75		endp

387F:28D7  90					db	90h

				;ﬂﬂﬂﬂﬂﬂﬂﬂﬂﬂﬂﬂﬂﬂﬂﬂﬂﬂﬂﬂﬂﬂﬂﬂﬂﬂﬂﬂﬂﬂﬂﬂﬂﬂﬂﬂﬂﬂﬂﬂﬂﬂﬂﬂﬂﬂﬂﬂﬂﬂﬂﬂﬂﬂﬂﬂﬂﬂﬂﬂﬂﬂﬂﬂﬂﬂﬂﬂﬂﬂﬂﬂﬂﬂ
				;                              SUBROUTINE
				;
				;         Called from:   387F:0B26, 1CE3, 3DA3, 456F, 4599, 4609, 4619
				;                             4689, 4A6B, 4A7F
				;‹‹‹‹‹‹‹‹‹‹‹‹‹‹‹‹‹‹‹‹‹‹‹‹‹‹‹‹‹‹‹‹‹‹‹‹‹‹‹‹‹‹‹‹‹‹‹‹‹‹‹‹‹‹‹‹‹‹‹‹‹‹‹‹‹‹‹‹‹‹‹‹‹‹

387F:28D8			sub_76		proc	near

				PARAMETER_1	=	4			; bp+4
				PARAMETER_2	=	6			; bp+6

387F:28D8  55					push	bp
387F:28D9  8B EC				mov	bp,sp
387F:28DB  57					push	di
387F:28DC  8B 7E 04				mov	di,[bp+PARAMETER_1]
387F:28DF  1E					push	ds
387F:28E0  07					pop	es
387F:28E1  8B DF				mov	bx,di
387F:28E3  33 C0				xor	ax,ax			; Zero register
387F:28E5  B9 FFFF				mov	cx,0FFFFh
387F:28E8  F2/ AE				repne	scasb			; Rep zf=0+cx >0 Scan es:[di] for al
387F:28EA  41					inc	cx
387F:28EB  F7 D9				neg	cx
387F:28ED  8A 46 06				mov	al,[bp+PARAMETER_2]
387F:28F0  8B FB				mov	di,bx
387F:28F2  F2/ AE				repne	scasb			; Rep zf=0+cx >0 Scan es:[di] for al
           ml.lst          Copyright (C) 1986-1991 Phar Lap	Sourcer	v8.01   7-Sep-2022 10:02 am   Page 93

387F:28F4  4F					dec	di
387F:28F5  38 05				cmp	[di],al
387F:28F7  74 02				je	loc_283			; Jump if equal
387F:28F9  33 FF				xor	di,di			; Zero register
387F:28FB			loc_283:					;  xref 387F:28F7
387F:28FB  8B C7				mov	ax,di
387F:28FD  5F					pop	di
387F:28FE  8B E5				mov	sp,bp
387F:2900  5D					pop	bp
387F:2901  C3					retn
				sub_76		endp


				;ﬂﬂﬂﬂﬂﬂﬂﬂﬂﬂﬂﬂﬂﬂﬂﬂﬂﬂﬂﬂﬂﬂﬂﬂﬂﬂﬂﬂﬂﬂﬂﬂﬂﬂﬂﬂﬂﬂﬂﬂﬂﬂﬂﬂﬂﬂﬂﬂﬂﬂﬂﬂﬂﬂﬂﬂﬂﬂﬂﬂﬂﬂﬂﬂﬂﬂﬂﬂﬂﬂﬂﬂﬂﬂ
				;                              SUBROUTINE
				;
				;         Called from:   387F:058F, 3DB5
				;‹‹‹‹‹‹‹‹‹‹‹‹‹‹‹‹‹‹‹‹‹‹‹‹‹‹‹‹‹‹‹‹‹‹‹‹‹‹‹‹‹‹‹‹‹‹‹‹‹‹‹‹‹‹‹‹‹‹‹‹‹‹‹‹‹‹‹‹‹‹‹‹‹‹

387F:2902			sub_77		proc	near

				PARAMETER_1	=	4			; bp+4
				PARAMETER_2	=	6			; bp+6

387F:2902  55					push	bp
387F:2903  8B EC				mov	bp,sp
387F:2905  8B D6				mov	dx,si
387F:2907  8B 76 06				mov	si,[bp+PARAMETER_2]
387F:290A  8B 5E 04				mov	bx,[bp+PARAMETER_1]
387F:290D  B0 FF				mov	al,0FFh
387F:290F			loc_284:					;  xref 387F:2919, 2939
387F:290F  0A C0				or	al,al			; Zero ?
387F:2911  74 2C				jz	loc_285			; Jump if zero
387F:2913  AC					lodsb				; String [si] to al
387F:2914  8A 27				mov	ah,[bx]
387F:2916  43					inc	bx
387F:2917  3A E0				cmp	ah,al
387F:2919  74 F4				je	loc_284			; Jump if equal
387F:291B  2C 41				sub	al,41h			; 'A'
387F:291D  3C 1A				cmp	al,1Ah
387F:291F  1A C9				sbb	cl,cl
387F:2921  80 E1 20				and	cl,20h			; ' '
387F:2924  02 C1				add	al,cl
387F:2926  04 41				add	al,41h			; 'A'
387F:2928  86 E0				xchg	ah,al
387F:292A  2C 41				sub	al,41h			; 'A'
387F:292C  3C 1A				cmp	al,1Ah
387F:292E  1A C9				sbb	cl,cl
387F:2930  80 E1 20				and	cl,20h			; ' '
387F:2933  02 C1				add	al,cl
387F:2935  04 41				add	al,41h			; 'A'
387F:2937  3A C4				cmp	al,ah
387F:2939  74 D4				je	loc_284			; Jump if equal
387F:293B  1A C0				sbb	al,al
387F:293D  1C FF				sbb	al,0FFh
387F:293F			loc_285:					;  xref 387F:2911
387F:293F  98					cbw				; Convrt byte to word
           ml.lst          Copyright (C) 1986-1991 Phar Lap	Sourcer	v8.01   7-Sep-2022 10:02 am   Page 94

387F:2940  8B F2				mov	si,dx
387F:2942  5D					pop	bp
387F:2943  C3					retn
				sub_77		endp


				;ﬂﬂﬂﬂﬂﬂﬂﬂﬂﬂﬂﬂﬂﬂﬂﬂﬂﬂﬂﬂﬂﬂﬂﬂﬂﬂﬂﬂﬂﬂﬂﬂﬂﬂﬂﬂﬂﬂﬂﬂﬂﬂﬂﬂﬂﬂﬂﬂﬂﬂﬂﬂﬂﬂﬂﬂﬂﬂﬂﬂﬂﬂﬂﬂﬂﬂﬂﬂﬂﬂﬂﬂﬂﬂ
				;                              SUBROUTINE
				;
				;         Called from:   387F:0976, 0998, 0B88, 0C4E
				;‹‹‹‹‹‹‹‹‹‹‹‹‹‹‹‹‹‹‹‹‹‹‹‹‹‹‹‹‹‹‹‹‹‹‹‹‹‹‹‹‹‹‹‹‹‹‹‹‹‹‹‹‹‹‹‹‹‹‹‹‹‹‹‹‹‹‹‹‹‹‹‹‹‹

387F:2944			sub_78		proc	near

				PARAMETER_1	=	4			; bp+4

387F:2944  55					push	bp
387F:2945  8B EC				mov	bp,sp
387F:2947  8B 5E 04				mov	bx,[bp+PARAMETER_1]
387F:294A  8B D3				mov	dx,bx
387F:294C  EB 0B				jmp	short loc_288		; (2959)
387F:294E			loc_286:					;  xref 387F:295D
387F:294E  2C 61				sub	al,61h			; 'a'
387F:2950  3C 1A				cmp	al,1Ah
387F:2952  73 04				jae	loc_287			; Jump if above or =
387F:2954  04 41				add	al,41h			; 'A'
387F:2956  88 07				mov	[bx],al
387F:2958			loc_287:					;  xref 387F:2952
387F:2958  43					inc	bx
387F:2959			loc_288:					;  xref 387F:294C
387F:2959  8A 07				mov	al,[bx]
387F:295B  0A C0				or	al,al			; Zero ?
387F:295D  75 EF				jnz	loc_286			; Jump if not zero
387F:295F  92					xchg	dx,ax
387F:2960  5D					pop	bp
387F:2961  C3					retn
				sub_78		endp


				;ﬂﬂﬂﬂﬂﬂﬂﬂﬂﬂﬂﬂﬂﬂﬂﬂﬂﬂﬂﬂﬂﬂﬂﬂﬂﬂﬂﬂﬂﬂﬂﬂﬂﬂﬂﬂﬂﬂﬂﬂﬂﬂﬂﬂﬂﬂﬂﬂﬂﬂﬂﬂﬂﬂﬂﬂﬂﬂﬂﬂﬂﬂﬂﬂﬂﬂﬂﬂﬂﬂﬂﬂﬂﬂ
				;                              SUBROUTINE
				;
				;         Called from:   387F:0A7A, 24E4
				;‹‹‹‹‹‹‹‹‹‹‹‹‹‹‹‹‹‹‹‹‹‹‹‹‹‹‹‹‹‹‹‹‹‹‹‹‹‹‹‹‹‹‹‹‹‹‹‹‹‹‹‹‹‹‹‹‹‹‹‹‹‹‹‹‹‹‹‹‹‹‹‹‹‹

387F:2962			sub_79		proc	near

				PARAMETER_1	=	4			; bp+4
				PARAMETER_2	=	6			; bp+6
				PARAMETER_3	=	8			; bp+8

387F:2962  55					push	bp
387F:2963  8B EC				mov	bp,sp
387F:2965  8B D7				mov	dx,di
387F:2967  8B DE				mov	bx,si
387F:2969  8C D8				mov	ax,ds
387F:296B  8E C0				mov	es,ax
           ml.lst          Copyright (C) 1986-1991 Phar Lap	Sourcer	v8.01   7-Sep-2022 10:02 am   Page 95

387F:296D  8B 76 06				mov	si,[bp+PARAMETER_2]
387F:2970  8B 7E 04				mov	di,[bp+PARAMETER_1]
387F:2973  8B C7				mov	ax,di
387F:2975  8B 4E 08				mov	cx,[bp+PARAMETER_3]
387F:2978  E3 0E				jcxz	loc_290			; Jump if cx=0
387F:297A  A8 01				test	al,1
387F:297C  74 02				jz	loc_289			; Jump if zero
387F:297E  A4					movsb				; Mov [si] to es:[di]
387F:297F  49					dec	cx
387F:2980			loc_289:					;  xref 387F:297C
387F:2980  D1 E9				shr	cx,1			; Shift w/zeros fill
387F:2982  F3/ A5				rep	movsw			; Rep when cx >0 Mov [si] to es:[di]
387F:2984  13 C9				adc	cx,cx
387F:2986  F3/ A4				rep	movsb			; Rep when cx >0 Mov [si] to es:[di]
387F:2988			loc_290:					;  xref 387F:2978
387F:2988  8B F3				mov	si,bx
387F:298A  8B FA				mov	di,dx
387F:298C  5D					pop	bp
387F:298D  C3					retn
				sub_79		endp


				;ﬂﬂﬂﬂﬂﬂﬂﬂﬂﬂﬂﬂﬂﬂﬂﬂﬂﬂﬂﬂﬂﬂﬂﬂﬂﬂﬂﬂﬂﬂﬂﬂﬂﬂﬂﬂﬂﬂﬂﬂﬂﬂﬂﬂﬂﬂﬂﬂﬂﬂﬂﬂﬂﬂﬂﬂﬂﬂﬂﬂﬂﬂﬂﬂﬂﬂﬂﬂﬂﬂﬂﬂﬂﬂ
				;                              SUBROUTINE
				;
				;         Called from:   387F:0DD9
				;‹‹‹‹‹‹‹‹‹‹‹‹‹‹‹‹‹‹‹‹‹‹‹‹‹‹‹‹‹‹‹‹‹‹‹‹‹‹‹‹‹‹‹‹‹‹‹‹‹‹‹‹‹‹‹‹‹‹‹‹‹‹‹‹‹‹‹‹‹‹‹‹‹‹

387F:298E			sub_80		proc	near

				PARAMETER_1	=	4			; bp+4
				PARAMETER_2	=	6			; bp+6
				PARAMETER_3	=	8			; bp+8

387F:298E  55					push	bp
387F:298F  8B EC				mov	bp,sp
387F:2991  8B D7				mov	dx,di
387F:2993  8C D8				mov	ax,ds
387F:2995  8E C0				mov	es,ax
387F:2997  8B 7E 04				mov	di,[bp+PARAMETER_1]
387F:299A  8B DF				mov	bx,di
387F:299C  8B 4E 08				mov	cx,[bp+PARAMETER_3]
387F:299F  E3 15				jcxz	loc_292			; Jump if cx=0
387F:29A1  8A 46 06				mov	al,[bp+PARAMETER_2]
387F:29A4  8A E0				mov	ah,al
387F:29A6  F7 C7 0001				test	di,1
387F:29AA  74 02				jz	loc_291			; Jump if zero
387F:29AC  AA					stosb				; Store al to es:[di]
387F:29AD  49					dec	cx
387F:29AE			loc_291:					;  xref 387F:29AA
387F:29AE  D1 E9				shr	cx,1			; Shift w/zeros fill
387F:29B0  F3/ AB				rep	stosw			; Rep when cx >0 Store ax to es:[di]
387F:29B2  13 C9				adc	cx,cx
387F:29B4  F3/ AA				rep	stosb			; Rep when cx >0 Store al to es:[di]
387F:29B6			loc_292:					;  xref 387F:299F
387F:29B6  8B FA				mov	di,dx
387F:29B8  93					xchg	bx,ax
           ml.lst          Copyright (C) 1986-1991 Phar Lap	Sourcer	v8.01   7-Sep-2022 10:02 am   Page 96

387F:29B9  5D					pop	bp
387F:29BA  C3					retn
				sub_80		endp

387F:29BB  00					db	0

				;ﬂﬂﬂﬂﬂﬂﬂﬂﬂﬂﬂﬂﬂﬂﬂﬂﬂﬂﬂﬂﬂﬂﬂﬂﬂﬂﬂﬂﬂﬂﬂﬂﬂﬂﬂﬂﬂﬂﬂﬂﬂﬂﬂﬂﬂﬂﬂﬂﬂﬂﬂﬂﬂﬂﬂﬂﬂﬂﬂﬂﬂﬂﬂﬂﬂﬂﬂﬂﬂﬂﬂﬂﬂﬂ
				;                              SUBROUTINE
				;
				;         Called from:   387F:053D, 0580, 07F0, 0913, 0A01
				;‹‹‹‹‹‹‹‹‹‹‹‹‹‹‹‹‹‹‹‹‹‹‹‹‹‹‹‹‹‹‹‹‹‹‹‹‹‹‹‹‹‹‹‹‹‹‹‹‹‹‹‹‹‹‹‹‹‹‹‹‹‹‹‹‹‹‹‹‹‹‹‹‹‹

387F:29BC			sub_81		proc	near

				PARAMETER_1	=	4			; bp+4
				PARAMETER_2	=	6			; bp+6
				PARAMETER_3	=	8			; bp+8
				PARAMETER_4	=	0Ah			; bp+0Ah
				PARAMETER_5	=	0Ch			; bp+0Ch
				LOCAL_3		=	-6			; bp+0FFFAh
				LOCAL_2		=	-4			; bp+0FFFCh
				LOCAL_1		=	-2			; bp+0FFFEh

387F:29BC  55					push	bp
387F:29BD  8B EC				mov	bp,sp
387F:29BF  83 EC 06				sub	sp,6
387F:29C2  57					push	di
387F:29C3  56					push	si
387F:29C4  8B 76 04				mov	si,[bp+PARAMETER_1]
387F:29C7  2B C0				sub	ax,ax
387F:29C9  89 46 FC				mov	[bp+LOCAL_2],ax
387F:29CC  89 46 FE				mov	[bp+LOCAL_1],ax
387F:29CF  80 7C 01 3A				cmp	byte ptr [si+1],3Ah	; ':'
387F:29D3  75 1F				jne	loc_294			; Jump if not equal
387F:29D5  39 46 06				cmp	[bp+PARAMETER_2],ax
387F:29D8  74 15				je	loc_293			; Jump if equal
387F:29DA  B8 0002				mov	ax,2
387F:29DD ˙50					push	ax			; PARAMETER_3
387F:29DE  56					push	si			; PARAMETER_2
387F:29DF  FF 76 06				push	word ptr [bp+PARAMETER_2]	; PARAMETER_1
387F:29E2  E8 1011				call	sub_117			; (39F6)
387F:29E5  83 C4 06				add	sp,6
387F:29E8  8B 5E 06				mov	bx,[bp+PARAMETER_2]
387F:29EB  C6 47 02 00				mov	byte ptr [bx+2],0
387F:29EF			loc_293:					;  xref 387F:29D8
387F:29EF  46					inc	si
387F:29F0  46					inc	si
387F:29F1  EB 0C				jmp	short loc_295		; (29FF)
387F:29F3  90					db	90h
387F:29F4			loc_294:					;  xref 387F:29D3
387F:29F4  39 46 06				cmp	[bp+PARAMETER_2],ax
387F:29F7  74 06				je	loc_295			; Jump if equal
387F:29F9  8B 5E 06				mov	bx,[bp+PARAMETER_2]
387F:29FC  C6 07 00				mov	byte ptr [bx],0
387F:29FF			loc_295:					;  xref 387F:29F1, 29F7
387F:29FF  C7 46 FC 0000			mov	word ptr [bp+LOCAL_2],0
387F:2A04  8B FE				mov	di,si
           ml.lst          Copyright (C) 1986-1991 Phar Lap	Sourcer	v8.01   7-Sep-2022 10:02 am   Page 97

387F:2A06  EB 09				jmp	short loc_298		; (2A11)
387F:2A08			loc_296:					;  xref 387F:2A1E
387F:2A08  80 3D 2E				cmp	byte ptr [di],2Eh	; '.'
387F:2A0B  75 03				jne	loc_297			; Jump if not equal
387F:2A0D  89 7E FE				mov	[bp+LOCAL_1],di
387F:2A10			loc_297:					;  xref 387F:2A0B, 2A26
387F:2A10 ˙47					inc	di
387F:2A11			loc_298:					;  xref 387F:2A06
387F:2A11  80 3D 00				cmp	byte ptr [di],0
387F:2A14  74 12				je	loc_300			; Jump if equal
387F:2A16  80 3D 2F				cmp	byte ptr [di],2Fh	; '/'
387F:2A19  74 05				je	loc_299			; Jump if equal
387F:2A1B  80 3D 5C				cmp	byte ptr [di],5Ch	; '\'
387F:2A1E  75 E8				jne	loc_296			; Jump if not equal
387F:2A20			loc_299:					;  xref 387F:2A19
387F:2A20  8D 45 01				lea	ax,[di+1]		; Load effective addr
387F:2A23  89 46 FC				mov	[bp+LOCAL_2],ax
387F:2A26  EB E8				jmp	short loc_297		; (2A10)
387F:2A28			loc_300:					;  xref 387F:2A14
387F:2A28  83 7E FC 00				cmp	word ptr [bp+LOCAL_2],0
387F:2A2C  74 30				je	loc_303			; Jump if equal
387F:2A2E  83 7E 08 00				cmp	word ptr [bp+PARAMETER_3],0
387F:2A32  74 24				je	loc_302			; Jump if equal
387F:2A34  8B 46 FC				mov	ax,[bp+LOCAL_2]
387F:2A37  2B C6				sub	ax,si
387F:2A39  3D 00FF				cmp	ax,0FFh
387F:2A3C  7E 03				jle	loc_301			; Jump if < or =
387F:2A3E  B8 00FF				mov	ax,0FFh
387F:2A41			loc_301:					;  xref 387F:2A3C
387F:2A41  89 46 FA				mov	[bp+LOCAL_3],ax
387F:2A44 ˙50					push	ax			; PARAMETER_3
387F:2A45  56					push	si			; PARAMETER_2
387F:2A46  FF 76 08				push	word ptr [bp+PARAMETER_3]	; PARAMETER_1
387F:2A49  E8 0FAA				call	sub_117			; (39F6)
387F:2A4C  83 C4 06				add	sp,6
387F:2A4F  8B 5E FA				mov	bx,[bp+LOCAL_3]
387F:2A52  03 5E 08				add	bx,[bp+PARAMETER_3]
387F:2A55  C6 07 00				mov	byte ptr [bx],0
387F:2A58			loc_302:					;  xref 387F:2A32
387F:2A58  8B 76 FC				mov	si,[bp+LOCAL_2]
387F:2A5B  EB 0D				jmp	short loc_304		; (2A6A)
387F:2A5D  90					db	90h
387F:2A5E			loc_303:					;  xref 387F:2A2C
387F:2A5E  83 7E 08 00				cmp	word ptr [bp+PARAMETER_3],0
387F:2A62  74 06				je	loc_304			; Jump if equal
387F:2A64  8B 5E 08				mov	bx,[bp+PARAMETER_3]
387F:2A67  C6 07 00				mov	byte ptr [bx],0
387F:2A6A			loc_304:					;  xref 387F:2A5B, 2A62
387F:2A6A  83 7E FE 00				cmp	word ptr [bp+LOCAL_1],0
387F:2A6E  74 5A				je	loc_308			; Jump if equal
387F:2A70  39 76 FE				cmp	[bp+LOCAL_1],si
387F:2A73  72 55				jb	loc_308			; Jump if below
387F:2A75  83 7E 0A 00				cmp	word ptr [bp+PARAMETER_4],0
387F:2A79  74 24				je	loc_306			; Jump if equal
387F:2A7B  8B 46 FE				mov	ax,[bp+LOCAL_1]
387F:2A7E  2B C6				sub	ax,si
387F:2A80  3D 00FF				cmp	ax,0FFh
           ml.lst          Copyright (C) 1986-1991 Phar Lap	Sourcer	v8.01   7-Sep-2022 10:02 am   Page 98

387F:2A83  7E 03				jle	loc_305			; Jump if < or =
387F:2A85  B8 00FF				mov	ax,0FFh
387F:2A88			loc_305:					;  xref 387F:2A83
387F:2A88  89 46 FA				mov	[bp+LOCAL_3],ax
387F:2A8B ˙50					push	ax			; PARAMETER_3
387F:2A8C  56					push	si			; PARAMETER_2
387F:2A8D  FF 76 0A				push	word ptr [bp+PARAMETER_4]	; PARAMETER_1
387F:2A90  E8 0F63				call	sub_117			; (39F6)
387F:2A93  83 C4 06				add	sp,6
387F:2A96  8B 5E FA				mov	bx,[bp+LOCAL_3]
387F:2A99  03 5E 0A				add	bx,[bp+PARAMETER_4]
387F:2A9C  C6 07 00				mov	byte ptr [bx],0
387F:2A9F			loc_306:					;  xref 387F:2A79
387F:2A9F  83 7E 0C 00				cmp	word ptr [bp+PARAMETER_5],0
387F:2AA3  74 5A				je	loc_312			; Jump if equal
387F:2AA5  8B C7				mov	ax,di
387F:2AA7  2B 46 FE				sub	ax,[bp+LOCAL_1]
387F:2AAA  3D 00FF				cmp	ax,0FFh
387F:2AAD  7E 03				jle	loc_307			; Jump if < or =
387F:2AAF  B8 00FF				mov	ax,0FFh
387F:2AB2			loc_307:					;  xref 387F:2AAD
387F:2AB2  89 46 FA				mov	[bp+LOCAL_3],ax
387F:2AB5 ˙50					push	ax			; PARAMETER_3
387F:2AB6  FF 76 FE				push	word ptr [bp+LOCAL_1]	; PARAMETER_2
387F:2AB9  FF 76 0C				push	word ptr [bp+PARAMETER_5]	; PARAMETER_1
387F:2ABC  E8 0F37				call	sub_117			; (39F6)
387F:2ABF  83 C4 06				add	sp,6
387F:2AC2  8B 5E FA				mov	bx,[bp+LOCAL_3]
387F:2AC5  03 5E 0C				add	bx,[bp+PARAMETER_5]
387F:2AC8  EB 32				jmp	short loc_311		; (2AFC)
387F:2ACA			loc_308:					;  xref 387F:2A6E, 2A73
387F:2ACA  83 7E 0A 00				cmp	word ptr [bp+PARAMETER_4],0
387F:2ACE  74 23				je	loc_310			; Jump if equal
387F:2AD0  8B C7				mov	ax,di
387F:2AD2  2B C6				sub	ax,si
387F:2AD4  3D 00FF				cmp	ax,0FFh
387F:2AD7  7E 03				jle	loc_309			; Jump if < or =
387F:2AD9  B8 00FF				mov	ax,0FFh
387F:2ADC			loc_309:					;  xref 387F:2AD7
387F:2ADC  89 46 FA				mov	[bp+LOCAL_3],ax
387F:2ADF ˙50					push	ax			; PARAMETER_3
387F:2AE0  56					push	si			; PARAMETER_2
387F:2AE1  FF 76 0A				push	word ptr [bp+PARAMETER_4]	; PARAMETER_1
387F:2AE4  E8 0F0F				call	sub_117			; (39F6)
387F:2AE7  83 C4 06				add	sp,6
387F:2AEA  8B 5E FA				mov	bx,[bp+LOCAL_3]
387F:2AED  03 5E 0A				add	bx,[bp+PARAMETER_4]
387F:2AF0  C6 07 00				mov	byte ptr [bx],0
387F:2AF3			loc_310:					;  xref 387F:2ACE
387F:2AF3  83 7E 0C 00				cmp	word ptr [bp+PARAMETER_5],0
387F:2AF7  74 06				je	loc_312			; Jump if equal
387F:2AF9  8B 5E 0C				mov	bx,[bp+PARAMETER_5]
387F:2AFC			loc_311:					;  xref 387F:2AC8
387F:2AFC  C6 07 00				mov	byte ptr [bx],0
387F:2AFF			loc_312:					;  xref 387F:2AA3, 2AF7
387F:2AFF  5E					pop	si
387F:2B00  5F					pop	di
           ml.lst          Copyright (C) 1986-1991 Phar Lap	Sourcer	v8.01   7-Sep-2022 10:02 am   Page 99

387F:2B01  8B E5				mov	sp,bp
387F:2B03  5D					pop	bp
387F:2B04  C3					retn
				sub_81		endp

387F:2B05  90					db	90h

				;ﬂﬂﬂﬂﬂﬂﬂﬂﬂﬂﬂﬂﬂﬂﬂﬂﬂﬂﬂﬂﬂﬂﬂﬂﬂﬂﬂﬂﬂﬂﬂﬂﬂﬂﬂﬂﬂﬂﬂﬂﬂﬂﬂﬂﬂﬂﬂﬂﬂﬂﬂﬂﬂﬂﬂﬂﬂﬂﬂﬂﬂﬂﬂﬂﬂﬂﬂﬂﬂﬂﬂﬂﬂﬂ
				;                              SUBROUTINE
				;
				;         Called from:   387F:0940
				;‹‹‹‹‹‹‹‹‹‹‹‹‹‹‹‹‹‹‹‹‹‹‹‹‹‹‹‹‹‹‹‹‹‹‹‹‹‹‹‹‹‹‹‹‹‹‹‹‹‹‹‹‹‹‹‹‹‹‹‹‹‹‹‹‹‹‹‹‹‹‹‹‹‹

387F:2B06			sub_82		proc	near

				PARAMETER_1	=	4			; bp+4
				PARAMETER_2	=	6			; bp+6
				PARAMETER_3	=	8			; bp+8
				PARAMETER_4	=	0Ah			; bp+0Ah
				PARAMETER_5	=	0Ch			; bp+0Ch
				LOCAL_1		=	-2			; bp+0FFFEh

387F:2B06  55					push	bp
387F:2B07  8B EC				mov	bp,sp
387F:2B09  83 EC 02				sub	sp,2
387F:2B0C  57					push	di
387F:2B0D  56					push	si
387F:2B0E  8B 76 04				mov	si,[bp+PARAMETER_1]
387F:2B11  83 7E 06 00				cmp	word ptr [bp+PARAMETER_2],0
387F:2B15  74 11				je	loc_313			; Jump if equal
387F:2B17  8B 5E 06				mov	bx,[bp+PARAMETER_2]
387F:2B1A  80 3F 00				cmp	byte ptr [bx],0
387F:2B1D  74 09				je	loc_313			; Jump if equal
387F:2B1F  8A 07				mov	al,[bx]
387F:2B21  88 04				mov	[si],al
387F:2B23  46					inc	si
387F:2B24  C6 04 3A				mov	byte ptr [si],3Ah	; ':'
387F:2B27  46					inc	si
387F:2B28			loc_313:					;  xref 387F:2B15, 2B1D
387F:2B28  8B 7E 08				mov	di,[bp+PARAMETER_3]
387F:2B2B  0B FF				or	di,di			; Zero ?
387F:2B2D  74 20				jz	loc_315			; Jump if zero
387F:2B2F  80 3D 00				cmp	byte ptr [di],0
387F:2B32  74 1B				je	loc_315			; Jump if equal
387F:2B34			loc_314:					;  xref 387F:2B3D
387F:2B34  8A 05				mov	al,[di]
387F:2B36  47					inc	di
387F:2B37  88 04				mov	[si],al
387F:2B39  46					inc	si
387F:2B3A  80 3D 00				cmp	byte ptr [di],0
387F:2B3D  75 F5				jne	loc_314			; Jump if not equal
387F:2B3F  80 7D FF 2F				cmp	byte ptr [di-1],2Fh	; '/'
387F:2B43  74 0A				je	loc_315			; Jump if equal
387F:2B45  80 7D FF 5C				cmp	byte ptr [di-1],5Ch	; '\'
387F:2B49  74 04				je	loc_315			; Jump if equal
387F:2B4B  C6 04 5C				mov	byte ptr [si],5Ch	; '\'
387F:2B4E  46					inc	si
           ml.lst          Copyright (C) 1986-1991 Phar Lap	Sourcer	v8.01   7-Sep-2022 10:02 am   Page 100

387F:2B4F			loc_315:					;  xref 387F:2B2D, 2B32, 2B43, 2B49
387F:2B4F  8B 7E 0A				mov	di,[bp+PARAMETER_4]
387F:2B52  0B FF				or	di,di			; Zero ?
387F:2B54  74 0D				jz	loc_318			; Jump if zero
387F:2B56  EB 06				jmp	short loc_317		; (2B5E)
387F:2B58			loc_316:					;  xref 387F:2B61
387F:2B58  8A 05				mov	al,[di]
387F:2B5A  88 04				mov	[si],al
387F:2B5C  47					inc	di
387F:2B5D  46					inc	si
387F:2B5E			loc_317:					;  xref 387F:2B56
387F:2B5E  80 3D 00				cmp	byte ptr [di],0
387F:2B61  75 F5				jne	loc_316			; Jump if not equal
387F:2B63			loc_318:					;  xref 387F:2B54
387F:2B63  8B 7E 0C				mov	di,[bp+PARAMETER_5]
387F:2B66  0B FF				or	di,di			; Zero ?
387F:2B68  74 1A				jz	loc_320			; Jump if zero
387F:2B6A  80 3D 00				cmp	byte ptr [di],0
387F:2B6D  74 09				je	loc_319			; Jump if equal
387F:2B6F  80 3D 2E				cmp	byte ptr [di],2Eh	; '.'
387F:2B72  74 04				je	loc_319			; Jump if equal
387F:2B74  C6 04 2E				mov	byte ptr [si],2Eh	; '.'
387F:2B77  46					inc	si
387F:2B78			loc_319:					;  xref 387F:2B6D, 2B72, 2B82
387F:2B78 ˙8A 05				mov	al,[di]
387F:2B7A  47					inc	di
387F:2B7B  88 04				mov	[si],al
387F:2B7D  46					inc	si
387F:2B7E  0A C0				or	al,al			; Zero ?
387F:2B80  74 05				jz	loc_321			; Jump if zero
387F:2B82  EB F4				jmp	short loc_319		; (2B78)
387F:2B84			loc_320:					;  xref 387F:2B68
387F:2B84  C6 04 00				mov	byte ptr [si],0
387F:2B87			loc_321:					;  xref 387F:2B80
387F:2B87  5E					pop	si
387F:2B88  5F					pop	di
387F:2B89  8B E5				mov	sp,bp
387F:2B8B  5D					pop	bp
387F:2B8C  C3					retn
				sub_82		endp

387F:2B8D  90					db	90h

				;ﬂﬂﬂﬂﬂﬂﬂﬂﬂﬂﬂﬂﬂﬂﬂﬂﬂﬂﬂﬂﬂﬂﬂﬂﬂﬂﬂﬂﬂﬂﬂﬂﬂﬂﬂﬂﬂﬂﬂﬂﬂﬂﬂﬂﬂﬂﬂﬂﬂﬂﬂﬂﬂﬂﬂﬂﬂﬂﬂﬂﬂﬂﬂﬂﬂﬂﬂﬂﬂﬂﬂﬂﬂﬂ
				;                              SUBROUTINE
				;
				;         Called from:   387F:0953
				;‹‹‹‹‹‹‹‹‹‹‹‹‹‹‹‹‹‹‹‹‹‹‹‹‹‹‹‹‹‹‹‹‹‹‹‹‹‹‹‹‹‹‹‹‹‹‹‹‹‹‹‹‹‹‹‹‹‹‹‹‹‹‹‹‹‹‹‹‹‹‹‹‹‹

387F:2B8E			sub_83		proc	near

				PARAMETER_1	=	4			; bp+4
				PARAMETER_2	=	6			; bp+6

387F:2B8E  55					push	bp
387F:2B8F  8B EC				mov	bp,sp
387F:2B91 ˙FF 36 0E1F				push	data_137		; PARAMETER_3 (3D48:0E1F=0)
           ml.lst          Copyright (C) 1986-1991 Phar Lap	Sourcer	v8.01   7-Sep-2022 10:02 am   Page 101

387F:2B95  8D 46 06				lea	ax,[bp+PARAMETER_2]	; Load effective addr
387F:2B98  50					push	ax			; PARAMETER_2
387F:2B99  FF 76 04				push	word ptr [bp+PARAMETER_1]	; PARAMETER_1
387F:2B9C  E8 11C3				call	sub_123			; (3D62)
387F:2B9F  8B E5				mov	sp,bp
387F:2BA1  5D					pop	bp
387F:2BA2  C3					retn
				sub_83		endp

387F:2BA3  90					db	90h

				;ﬂﬂﬂﬂﬂﬂﬂﬂﬂﬂﬂﬂﬂﬂﬂﬂﬂﬂﬂﬂﬂﬂﬂﬂﬂﬂﬂﬂﬂﬂﬂﬂﬂﬂﬂﬂﬂﬂﬂﬂﬂﬂﬂﬂﬂﬂﬂﬂﬂﬂﬂﬂﬂﬂﬂﬂﬂﬂﬂﬂﬂﬂﬂﬂﬂﬂﬂﬂﬂﬂﬂﬂﬂﬂ
				;                              SUBROUTINE
				;
				;         Called from:   387F:0965
				;‹‹‹‹‹‹‹‹‹‹‹‹‹‹‹‹‹‹‹‹‹‹‹‹‹‹‹‹‹‹‹‹‹‹‹‹‹‹‹‹‹‹‹‹‹‹‹‹‹‹‹‹‹‹‹‹‹‹‹‹‹‹‹‹‹‹‹‹‹‹‹‹‹‹

387F:2BA4			sub_84		proc	near

				PARAMETER_1	=	4			; bp+4
				PARAMETER_2	=	6			; bp+6

387F:2BA4  55					push	bp
387F:2BA5  8B EC				mov	bp,sp
387F:2BA7  8D 46 06				lea	ax,[bp+PARAMETER_2]	; Load effective addr
387F:2BAA ˙50					push	ax			; PARAMETER_2
387F:2BAB  FF 76 04				push	word ptr [bp+PARAMETER_1]	; PARAMETER_1
387F:2BAE  E8 12A9				call	sub_124			; (3E5A)
387F:2BB1  8B E5				mov	sp,bp
387F:2BB3  5D					pop	bp
387F:2BB4  C3					retn
				sub_84		endp

387F:2BB5  90					db	90h

				;ﬂﬂﬂﬂﬂﬂﬂﬂﬂﬂﬂﬂﬂﬂﬂﬂﬂﬂﬂﬂﬂﬂﬂﬂﬂﬂﬂﬂﬂﬂﬂﬂﬂﬂﬂﬂﬂﬂﬂﬂﬂﬂﬂﬂﬂﬂﬂﬂﬂﬂﬂﬂﬂﬂﬂﬂﬂﬂﬂﬂﬂﬂﬂﬂﬂﬂﬂﬂﬂﬂﬂﬂﬂﬂ
				;                              SUBROUTINE
				;
				;         Called from:   387F:0E38, 19BD
				;‹‹‹‹‹‹‹‹‹‹‹‹‹‹‹‹‹‹‹‹‹‹‹‹‹‹‹‹‹‹‹‹‹‹‹‹‹‹‹‹‹‹‹‹‹‹‹‹‹‹‹‹‹‹‹‹‹‹‹‹‹‹‹‹‹‹‹‹‹‹‹‹‹‹

387F:2BB6			sub_85		proc	near

				PARAMETER_1	=	4			; bp+4
				PARAMETER_2	=	6			; bp+6
				PARAMETER_3	=	8			; bp+8
				PARAMETER_4	=	0Ah			; bp+0Ah
				PARAMETER_5	=	0Ch			; bp+0Ch

387F:2BB6  55					push	bp
387F:2BB7  8B EC				mov	bp,sp
387F:2BB9  8B 5E 04				mov	bx,[bp+PARAMETER_1]
387F:2BBC  B4 48				mov	ah,48h
387F:2BBE  CD 21				int	21h			; DOS Services  ah=function 48h
										;  allocate memory, bx=bytes/16
387F:2BC0  8B CB				mov	cx,bx
387F:2BC2  72 02				jc	loc_322			; Jump if carry Set
           ml.lst          Copyright (C) 1986-1991 Phar Lap	Sourcer	v8.01   7-Sep-2022 10:02 am   Page 102

387F:2BC4  8B C8				mov	cx,ax
387F:2BC6			loc_322:					;  xref 387F:2BC2
387F:2BC6  8B 5E 06				mov	bx,[bp+PARAMETER_2]
387F:2BC9  89 0F				mov	[bx],cx
387F:2BCB  E9 02FA				jmp	loc_371			; (2EC8)
							                        ;* No entry point to code
387F:2BCE  55					push	bp
387F:2BCF  8B EC				mov	bp,sp
387F:2BD1  B4 3F				mov	ah,3Fh			; '?'
387F:2BD3  EB 05				jmp	short loc_323		; (2BDA)

				;ﬂﬂﬂﬂ External Entry into Subroutine ﬂﬂﬂﬂﬂﬂﬂﬂﬂﬂﬂﬂﬂﬂﬂﬂﬂﬂﬂﬂﬂﬂﬂﬂﬂﬂﬂﬂﬂﬂﬂﬂﬂﬂﬂﬂﬂﬂ
				;
				;         Called from:   387F:0718

387F:2BD5			sub_86:
387F:2BD5 ˙55					push	bp
387F:2BD6  8B EC				mov	bp,sp
387F:2BD8  B4 40				mov	ah,40h			; '@'
387F:2BDA			loc_323:					;  xref 387F:2BD3
387F:2BDA  8B 5E 04				mov	bx,[bp+4]
387F:2BDD  8B 4E 0A				mov	cx,[bp+0Ah]
387F:2BE0  81 3E 11CC D6D6			cmp	data_184,0D6D6h		; (3D48:11CC=0)
387F:2BE6  75 04				jne	loc_324			; Jump if not equal
387F:2BE8  FF 16 11CE				call	word ptr data_185	; (3D48:11CE=21CFh)
387F:2BEC			loc_324:					;  xref 387F:2BE6
387F:2BEC  1E					push	ds
387F:2BED  C5 56 06				lds	dx,dword ptr [bp+6]	; Load seg:offset ptr
387F:2BF0  CD 21				int	21h			; DOS Services  ah=function 40h
										;  write file  bx=file handle
										;   cx=bytes from ds:dx buffer
387F:2BF2  1F					pop	ds
387F:2BF3  72 05				jc	loc_325			; Jump if carry Set
387F:2BF5  8B 5E 0C				mov	bx,[bp+0Ch]
387F:2BF8  89 07				mov	[bx],ax
387F:2BFA			loc_325:					;  xref 387F:2BF3
387F:2BFA  E9 02CB				jmp	loc_371			; (2EC8)
387F:2BFD  00					db	0

				;ﬂﬂﬂﬂ External Entry into Subroutine ﬂﬂﬂﬂﬂﬂﬂﬂﬂﬂﬂﬂﬂﬂﬂﬂﬂﬂﬂﬂﬂﬂﬂﬂﬂﬂﬂﬂﬂﬂﬂﬂﬂﬂﬂﬂﬂﬂ
				;
				;         Called from:   387F:187F

387F:2BFE			sub_87:
387F:2BFE ˙55					push	bp
387F:2BFF  8B EC				mov	bp,sp
387F:2C01  8E 46 04				mov	es,[bp+4]
387F:2C04  B4 49				mov	ah,49h
387F:2C06  CD 21				int	21h			; DOS Services  ah=function 49h
										;  release memory block, es=seg
387F:2C08  E9 02BD				jmp	loc_371			; (2EC8)
387F:2C0B  00					db	0

				;ﬂﬂﬂﬂ External Entry into Subroutine ﬂﬂﬂﬂﬂﬂﬂﬂﬂﬂﬂﬂﬂﬂﬂﬂﬂﬂﬂﬂﬂﬂﬂﬂﬂﬂﬂﬂﬂﬂﬂﬂﬂﬂﬂﬂﬂﬂ
				;
				;         Called from:   387F:2143, 21E1, 2C45

           ml.lst          Copyright (C) 1986-1991 Phar Lap	Sourcer	v8.01   7-Sep-2022 10:02 am   Page 103

387F:2C0C			sub_88:
387F:2C0C ˙55					push	bp
387F:2C0D  8B EC				mov	bp,sp
387F:2C0F  B8 00FC				mov	ax,0FCh
387F:2C12  50					push	ax
387F:2C13  E8 0275				call	sub_93			; (2E8B)
387F:2C16  83 3E 0FB4 00			cmp	data_149,0		; (3D48:0FB4=0)
387F:2C1B  74 04				je	loc_326			; Jump if equal
387F:2C1D  FF 16 0FB4				call	word ptr data_149	; (3D48:0FB4=0)
387F:2C21			loc_326:					;  xref 387F:2C1B
387F:2C21  B8 00FF				mov	ax,0FFh
387F:2C24  50					push	ax
387F:2C25  E8 0263				call	sub_93			; (2E8B)
387F:2C28  8B E5				mov	sp,bp
387F:2C2A  5D					pop	bp
387F:2C2B  C3					retn
387F:2C2C			loc_327:					;  xref 387F:2244
387F:2C2C  B8 0002				mov	ax,2
387F:2C2F  E9 F5AE				jmp	loc_201			; (21E0)

				;ﬂﬂﬂﬂ External Entry into Subroutine ﬂﬂﬂﬂﬂﬂﬂﬂﬂﬂﬂﬂﬂﬂﬂﬂﬂﬂﬂﬂﬂﬂﬂﬂﬂﬂﬂﬂﬂﬂﬂﬂﬂﬂﬂﬂﬂﬂ
				;
				;         Called from:   387F:2326

387F:2C32			sub_89:
387F:2C32  56					push	si
387F:2C33  33 F6				xor	si,si			; Zero register
387F:2C35  B9 0042				mov	cx,42h
387F:2C38  32 E4				xor	ah,ah			; Zero register
387F:2C3A  FC					cld				; Clear direction

387F:2C3B			locloop_328:					;  xref 387F:2C3E
387F:2C3B  AC					lodsb				; String [si] to al
387F:2C3C  32 E0				xor	ah,al
387F:2C3E  E2 FB				loop	locloop_328		; Loop if cx > 0

387F:2C40  80 F4 55				xor	ah,55h			; 'U'
387F:2C43  74 0D				jz	loc_329			; Jump if zero
387F:2C45  E8 FFC4				call	sub_88			; (2C0C)
387F:2C48  B8 0001				mov	ax,1
387F:2C4B  50					push	ax
387F:2C4C  E8 023C				call	sub_93			; (2E8B)
387F:2C4F  B8 0001				mov	ax,1
387F:2C52			loc_329:					;  xref 387F:2C43
387F:2C52  5E					pop	si
387F:2C53  C3					retn

				;ﬂﬂﬂﬂ External Entry into Subroutine ﬂﬂﬂﬂﬂﬂﬂﬂﬂﬂﬂﬂﬂﬂﬂﬂﬂﬂﬂﬂﬂﬂﬂﬂﬂﬂﬂﬂﬂﬂﬂﬂﬂﬂﬂﬂﬂﬂ
				;
				;         Called from:   387F:21B2

387F:2C54			sub_90:
387F:2C54  8F 06 0FB6				pop	data_150		; (3D48:0FB6=0)
387F:2C58  B4 30				mov	ah,30h
387F:2C5A  CD 21				int	21h			; DOS Services  ah=function 30h
										;  get DOS version number ax
387F:2C5C  A3 0E00				mov	data_129,ax		; (3D48:0E00=0)
           ml.lst          Copyright (C) 1986-1991 Phar Lap	Sourcer	v8.01   7-Sep-2022 10:02 am   Page 104

387F:2C5F  BA 0001				mov	dx,1
387F:2C62  3C 02				cmp	al,2
387F:2C64  74 29				je	loc_331			; Jump if equal
387F:2C66  8E 06 0DFE				mov	es,data_128		; (3D48:0DFE=3D48h)
387F:2C6A  26: 8E 06 002C			mov	es,word ptr es:copyright+0Eh	; (3D48:002C=3931h)
387F:2C6F  8C 06 0E23				mov	word ptr data_138+2,es	; (3D48:0E23=3D48h)
387F:2C73  33 C0				xor	ax,ax			; Zero register
387F:2C75  99					cwd				; Word to double word
387F:2C76  B9 8000				mov	cx,8000h
387F:2C79  33 FF				xor	di,di			; Zero register
387F:2C7B			loc_330:					;  xref 387F:2C7E
387F:2C7B  F2/ AE				repne	scasb			; Rep zf=0+cx >0 Scan es:[di] for al
387F:2C7D  AE					scasb				; Scan es:[di] for al
387F:2C7E  75 FB				jnz	loc_330			; Jump if not zero
387F:2C80  47					inc	di
387F:2C81  47					inc	di
387F:2C82  89 3E 0E21				mov	data_138,di		; (3D48:0E21=0E25h)
387F:2C86  B9 FFFF				mov	cx,0FFFFh
387F:2C89  F2/ AE				repne	scasb			; Rep zf=0+cx >0 Scan es:[di] for al
387F:2C8B  F7 D1				not	cx
387F:2C8D  8B D1				mov	dx,cx
387F:2C8F			loc_331:					;  xref 387F:2C64
387F:2C8F ˙BF 0001				mov	di,offset data_27	; (3D48:0001=0)
387F:2C92 ˙BE 0081				mov	si,offset data_39	; (3D48:0081='r stub loader.')
387F:2C95  8E 1E 0DFE				mov	ds,data_128		; (3D48:0DFE=3D48h)
387F:2C99			loc_332:					;  xref 387F:2C9C, 2CA0, 2CAF, 2CB3
387F:2C99  AC					lodsb				; String [si] to al
387F:2C9A  3C 20				cmp	al,20h			; ' '
387F:2C9C  74 FB				je	loc_332			; Jump if equal
387F:2C9E  3C 09				cmp	al,9
387F:2CA0  74 F7				je	loc_332			; Jump if equal
387F:2CA2  3C 0D				cmp	al,0Dh
387F:2CA4  74 6F				je	loc_343			; Jump if equal
387F:2CA6  0A C0				or	al,al			; Zero ?
387F:2CA8  74 6B				jz	loc_343			; Jump if zero
387F:2CAA  47					inc	di
387F:2CAB			loc_333:					;  xref 387F:2CD6
387F:2CAB ˙4E					dec	si
387F:2CAC			loc_334:					;  xref 387F:2CC6, 2CE0, 2CF0, 2D13
387F:2CAC ˙AC					lodsb				; String [si] to al
387F:2CAD  3C 20				cmp	al,20h			; ' '
387F:2CAF  74 E8				je	loc_332			; Jump if equal
387F:2CB1  3C 09				cmp	al,9
387F:2CB3  74 E4				je	loc_332			; Jump if equal
387F:2CB5  3C 0D				cmp	al,0Dh
387F:2CB7  74 5C				je	loc_343			; Jump if equal
387F:2CB9  0A C0				or	al,al			; Zero ?
387F:2CBB  74 58				jz	loc_343			; Jump if zero
387F:2CBD  3C 22				cmp	al,22h			; '"'
387F:2CBF  74 24				je	loc_339			; Jump if equal
387F:2CC1  3C 5C				cmp	al,5Ch			; '\'
387F:2CC3  74 03				je	loc_335			; Jump if equal
387F:2CC5  42					inc	dx
387F:2CC6  EB E4				jmp	short loc_334		; (2CAC)
387F:2CC8			loc_335:					;  xref 387F:2CC3
387F:2CC8  33 C9				xor	cx,cx			; Zero register
387F:2CCA			loc_336:					;  xref 387F:2CCE
           ml.lst          Copyright (C) 1986-1991 Phar Lap	Sourcer	v8.01   7-Sep-2022 10:02 am   Page 105

387F:2CCA  41					inc	cx
387F:2CCB  AC					lodsb				; String [si] to al
387F:2CCC  3C 5C				cmp	al,5Ch			; '\'
387F:2CCE  74 FA				je	loc_336			; Jump if equal
387F:2CD0  3C 22				cmp	al,22h			; '"'
387F:2CD2  74 04				je	loc_337			; Jump if equal
387F:2CD4  03 D1				add	dx,cx
387F:2CD6  EB D3				jmp	short loc_333		; (2CAB)
387F:2CD8			loc_337:					;  xref 387F:2CD2
387F:2CD8  8B C1				mov	ax,cx
387F:2CDA  D1 E9				shr	cx,1			; Shift w/zeros fill
387F:2CDC  13 D1				adc	dx,cx
387F:2CDE  A8 01				test	al,1
387F:2CE0  75 CA				jnz	loc_334			; Jump if not zero
387F:2CE2  EB 01				jmp	short loc_339		; (2CE5)
387F:2CE4			loc_338:					;  xref 387F:2D07
387F:2CE4 ˙4E					dec	si
387F:2CE5			loc_339:					;  xref 387F:2CBF, 2CE2, 2CF7, 2D11
387F:2CE5 ˙AC					lodsb				; String [si] to al
387F:2CE6  3C 0D				cmp	al,0Dh
387F:2CE8  74 2B				je	loc_343			; Jump if equal
387F:2CEA  0A C0				or	al,al			; Zero ?
387F:2CEC  74 27				jz	loc_343			; Jump if zero
387F:2CEE  3C 22				cmp	al,22h			; '"'
387F:2CF0  74 BA				je	loc_334			; Jump if equal
387F:2CF2  3C 5C				cmp	al,5Ch			; '\'
387F:2CF4  74 03				je	loc_340			; Jump if equal
387F:2CF6  42					inc	dx
387F:2CF7  EB EC				jmp	short loc_339		; (2CE5)
387F:2CF9			loc_340:					;  xref 387F:2CF4
387F:2CF9  33 C9				xor	cx,cx			; Zero register
387F:2CFB			loc_341:					;  xref 387F:2CFF
387F:2CFB  41					inc	cx
387F:2CFC  AC					lodsb				; String [si] to al
387F:2CFD  3C 5C				cmp	al,5Ch			; '\'
387F:2CFF  74 FA				je	loc_341			; Jump if equal
387F:2D01  3C 22				cmp	al,22h			; '"'
387F:2D03  74 04				je	loc_342			; Jump if equal
387F:2D05  03 D1				add	dx,cx
387F:2D07  EB DB				jmp	short loc_338		; (2CE4)
387F:2D09			loc_342:					;  xref 387F:2D03
387F:2D09  8B C1				mov	ax,cx
387F:2D0B  D1 E9				shr	cx,1			; Shift w/zeros fill
387F:2D0D  13 D1				adc	dx,cx
387F:2D0F  A8 01				test	al,1
387F:2D11  75 D2				jnz	loc_339			; Jump if not zero
387F:2D13  EB 97				jmp	short loc_334		; (2CAC)
387F:2D15			loc_343:					;  xref 387F:2CA4, 2CA8, 2CB7, 2CBB
										;            2CE8, 2CEC
387F:2D15  16					push	ss
387F:2D16  1F					pop	ds
387F:2D17  89 3E 0E1B				mov	data_135,di		; (3D48:0E1B=0)
387F:2D1B  03 D7				add	dx,di
387F:2D1D  47					inc	di
387F:2D1E  D1 E7				shl	di,1			; Shift w/zeros fill
387F:2D20  03 D7				add	dx,di
387F:2D22  42					inc	dx
           ml.lst          Copyright (C) 1986-1991 Phar Lap	Sourcer	v8.01   7-Sep-2022 10:02 am   Page 106

387F:2D23  80 E2 FE				and	dl,0FEh
387F:2D26  2B E2				sub	sp,dx
387F:2D28  8B C4				mov	ax,sp
387F:2D2A  A3 0E1D				mov	data_136,ax		; (3D48:0E1D=0)
387F:2D2D  8B D8				mov	bx,ax
387F:2D2F  03 FB				add	di,bx
387F:2D31  16					push	ss
387F:2D32  07					pop	es
387F:2D33  36: 89 3F				mov	ss:[bx],di
387F:2D36  43					inc	bx
387F:2D37  43					inc	bx
387F:2D38  C5 36 0E21				lds	si,dword ptr data_138	; (3D48:0E21=0E25h) Load seg:offset pt
387F:2D3C			loc_344:					;  xref 387F:2D40
387F:2D3C  AC					lodsb				; String [si] to al
387F:2D3D  AA					stosb				; Store al to es:[di]
387F:2D3E  0A C0				or	al,al			; Zero ?
387F:2D40  75 FA				jnz	loc_344			; Jump if not zero
387F:2D42  36: 8E 1E 0DFE			mov	ds,ss:data_128		; (3D48:0DFE=3D48h)
387F:2D47 ˙BE 0081				mov	si,offset data_39	; (3D48:0081='r stub loader.')
387F:2D4A  EB 03				jmp	short loc_346		; (2D4F)
387F:2D4C			loc_345:					;  xref 387F:2D69, 2D6D
387F:2D4C  33 C0				xor	ax,ax			; Zero register
387F:2D4E  AA					stosb				; Store al to es:[di]
387F:2D4F			loc_346:					;  xref 387F:2D4A, 2D52, 2D56
387F:2D4F  AC					lodsb				; String [si] to al
387F:2D50  3C 20				cmp	al,20h			; ' '
387F:2D52  74 FB				je	loc_346			; Jump if equal
387F:2D54  3C 09				cmp	al,9
387F:2D56  74 F7				je	loc_346			; Jump if equal
387F:2D58  3C 0D				cmp	al,0Dh
387F:2D5A  74 7C				je	loc_358			; Jump if equal
387F:2D5C  0A C0				or	al,al			; Zero ?
387F:2D5E  74 78				jz	loc_358			; Jump if zero
387F:2D60  36: 89 3F				mov	ss:[bx],di
387F:2D63  43					inc	bx
387F:2D64  43					inc	bx
387F:2D65			loc_347:					;  xref 387F:2D92
387F:2D65 ˙4E					dec	si
387F:2D66			loc_348:					;  xref 387F:2D80, 2D9F, 2DAD, 2DCE
387F:2D66 ˙AC					lodsb				; String [si] to al
387F:2D67  3C 20				cmp	al,20h			; ' '
387F:2D69  74 E1				je	loc_345			; Jump if equal
387F:2D6B  3C 09				cmp	al,9
387F:2D6D  74 DD				je	loc_345			; Jump if equal
387F:2D6F  3C 0D				cmp	al,0Dh
387F:2D71  74 62				je	loc_357			; Jump if equal
387F:2D73  0A C0				or	al,al			; Zero ?
387F:2D75  74 5E				jz	loc_357			; Jump if zero
387F:2D77  3C 22				cmp	al,22h			; '"'
387F:2D79  74 27				je	loc_353			; Jump if equal
387F:2D7B  3C 5C				cmp	al,5Ch			; '\'
387F:2D7D  74 03				je	loc_349			; Jump if equal
387F:2D7F  AA					stosb				; Store al to es:[di]
387F:2D80  EB E4				jmp	short loc_348		; (2D66)
387F:2D82			loc_349:					;  xref 387F:2D7D
387F:2D82  33 C9				xor	cx,cx			; Zero register
387F:2D84			loc_350:					;  xref 387F:2D88
           ml.lst          Copyright (C) 1986-1991 Phar Lap	Sourcer	v8.01   7-Sep-2022 10:02 am   Page 107

387F:2D84  41					inc	cx
387F:2D85  AC					lodsb				; String [si] to al
387F:2D86  3C 5C				cmp	al,5Ch			; '\'
387F:2D88  74 FA				je	loc_350			; Jump if equal
387F:2D8A  3C 22				cmp	al,22h			; '"'
387F:2D8C  74 06				je	loc_351			; Jump if equal
387F:2D8E  B0 5C				mov	al,5Ch			; '\'
387F:2D90  F3/ AA				rep	stosb			; Rep when cx >0 Store al to es:[di]
387F:2D92  EB D1				jmp	short loc_347		; (2D65)
387F:2D94			loc_351:					;  xref 387F:2D8C
387F:2D94  B0 5C				mov	al,5Ch			; '\'
387F:2D96  D1 E9				shr	cx,1			; Shift w/zeros fill
387F:2D98  F3/ AA				rep	stosb			; Rep when cx >0 Store al to es:[di]
387F:2D9A  73 06				jnc	loc_353			; Jump if carry=0
387F:2D9C  B0 22				mov	al,22h			; '"'
387F:2D9E  AA					stosb				; Store al to es:[di]
387F:2D9F  EB C5				jmp	short loc_348		; (2D66)
387F:2DA1			loc_352:					;  xref 387F:2DC6
387F:2DA1 ˙4E					dec	si
387F:2DA2			loc_353:					;  xref 387F:2D79, 2D9A, 2DB4, 2DD3
387F:2DA2 ˙AC					lodsb				; String [si] to al
387F:2DA3  3C 0D				cmp	al,0Dh
387F:2DA5  74 2E				je	loc_357			; Jump if equal
387F:2DA7  0A C0				or	al,al			; Zero ?
387F:2DA9  74 2A				jz	loc_357			; Jump if zero
387F:2DAB  3C 22				cmp	al,22h			; '"'
387F:2DAD  74 B7				je	loc_348			; Jump if equal
387F:2DAF  3C 5C				cmp	al,5Ch			; '\'
387F:2DB1  74 03				je	loc_354			; Jump if equal
387F:2DB3  AA					stosb				; Store al to es:[di]
387F:2DB4  EB EC				jmp	short loc_353		; (2DA2)
387F:2DB6			loc_354:					;  xref 387F:2DB1
387F:2DB6  33 C9				xor	cx,cx			; Zero register
387F:2DB8			loc_355:					;  xref 387F:2DBC
387F:2DB8  41					inc	cx
387F:2DB9  AC					lodsb				; String [si] to al
387F:2DBA  3C 5C				cmp	al,5Ch			; '\'
387F:2DBC  74 FA				je	loc_355			; Jump if equal
387F:2DBE  3C 22				cmp	al,22h			; '"'
387F:2DC0  74 06				je	loc_356			; Jump if equal
387F:2DC2  B0 5C				mov	al,5Ch			; '\'
387F:2DC4  F3/ AA				rep	stosb			; Rep when cx >0 Store al to es:[di]
387F:2DC6  EB D9				jmp	short loc_352		; (2DA1)
387F:2DC8			loc_356:					;  xref 387F:2DC0
387F:2DC8  B0 5C				mov	al,5Ch			; '\'
387F:2DCA  D1 E9				shr	cx,1			; Shift w/zeros fill
387F:2DCC  F3/ AA				rep	stosb			; Rep when cx >0 Store al to es:[di]
387F:2DCE  73 96				jnc	loc_348			; Jump if carry=0
387F:2DD0  B0 22				mov	al,22h			; '"'
387F:2DD2  AA					stosb				; Store al to es:[di]
387F:2DD3  EB CD				jmp	short loc_353		; (2DA2)
387F:2DD5			loc_357:					;  xref 387F:2D71, 2D75, 2DA5, 2DA9
387F:2DD5  33 C0				xor	ax,ax			; Zero register
387F:2DD7  AA					stosb				; Store al to es:[di]
387F:2DD8			loc_358:					;  xref 387F:2D5A, 2D5E
387F:2DD8  16					push	ss
387F:2DD9  1F					pop	ds
           ml.lst          Copyright (C) 1986-1991 Phar Lap	Sourcer	v8.01   7-Sep-2022 10:02 am   Page 108

387F:2DDA  C7 07 0000				mov	word ptr [bx],0
387F:2DDE  FF 26 0FB6				jmp	word ptr data_150	; (3D48:0FB6=0)

				;ﬂﬂﬂﬂ External Entry into Subroutine ﬂﬂﬂﬂﬂﬂﬂﬂﬂﬂﬂﬂﬂﬂﬂﬂﬂﬂﬂﬂﬂﬂﬂﬂﬂﬂﬂﬂﬂﬂﬂﬂﬂﬂﬂﬂﬂﬂ
				;
				;         Called from:   387F:21AF

387F:2DE2			sub_91:
387F:2DE2 ˙55					push	bp
387F:2DE3  8B EC				mov	bp,sp
387F:2DE5  1E					push	ds
387F:2DE6  8E 06 0DFE				mov	es,data_128		; (3D48:0DFE=3D48h)
387F:2DEA  26: 8B 1E 002C			mov	bx,word ptr es:copyright+0Eh	; (3D48:002C=3931h)
387F:2DEF  8E C3				mov	es,bx
387F:2DF1  33 C0				xor	ax,ax			; Zero register
387F:2DF3  33 F6				xor	si,si			; Zero register
387F:2DF5  33 FF				xor	di,di			; Zero register
387F:2DF7  B9 FFFF				mov	cx,0FFFFh
387F:2DFA  0B DB				or	bx,bx			; Zero ?
387F:2DFC  74 0E				jz	loc_360			; Jump if zero
387F:2DFE  26: 80 3E 0000 00			cmp	byte ptr es:data_22e,0	; (3931:0000=1)
387F:2E04  74 06				je	loc_360			; Jump if equal
387F:2E06			loc_359:					;  xref 387F:2E0A
387F:2E06  F2/ AE				repne	scasb			; Rep zf=0+cx >0 Scan es:[di] for al
387F:2E08  46					inc	si
387F:2E09  AE					scasb				; Scan es:[di] for al
387F:2E0A  75 FA				jnz	loc_359			; Jump if not zero
387F:2E0C			loc_360:					;  xref 387F:2DFC, 2E04
387F:2E0C  8B C7				mov	ax,di
387F:2E0E  40					inc	ax
387F:2E0F  24 FE				and	al,0FEh
387F:2E11  46					inc	si
387F:2E12  8B FE				mov	di,si
387F:2E14  D1 E6				shl	si,1			; Shift w/zeros fill
387F:2E16  B9 0009				mov	cx,9
387F:2E19  E8 107E				call	sub_127			; (3E9A)
387F:2E1C  50					push	ax
387F:2E1D  8B C6				mov	ax,si
387F:2E1F  E8 1078				call	sub_127			; (3E9A)
387F:2E22  A3 0E1F				mov	data_137,ax		; (3D48:0E1F=0)
387F:2E25  06					push	es
387F:2E26  1E					push	ds
387F:2E27  07					pop	es
387F:2E28  1F					pop	ds
387F:2E29  8B CF				mov	cx,di
387F:2E2B  8B D8				mov	bx,ax
387F:2E2D  33 F6				xor	si,si			; Zero register
387F:2E2F  5F					pop	di
387F:2E30  49					dec	cx
387F:2E31  E3 26				jcxz	loc_364			; Jump if cx=0

387F:2E33			locloop_361:					;  xref 387F:2E57
387F:2E33  8B 04				mov	ax,[si]
						assume	ss:seg_d
387F:2E35  36: 3B 06 0DDC			cmp	ax,ss:data_122		; (3D48:0DDC=435Fh)
387F:2E3A  75 10				jne	loc_362			; Jump if not equal
387F:2E3C  51					push	cx
           ml.lst          Copyright (C) 1986-1991 Phar Lap	Sourcer	v8.01   7-Sep-2022 10:02 am   Page 109

387F:2E3D  56					push	si
387F:2E3E  57					push	di
387F:2E3F ˙BF 0DDC				mov	di,offset data_122	; (3D48:0DDC=5Fh)
387F:2E42  B9 0006				mov	cx,6
387F:2E45  F3/ A7				repe	cmpsw			; Rep zf=1+cx >0 Cmp [si] to es:[di]
387F:2E47  5F					pop	di
387F:2E48  5E					pop	si
387F:2E49  59					pop	cx
387F:2E4A  74 05				jz	loc_363			; Jump if zero
387F:2E4C			loc_362:					;  xref 387F:2E3A
387F:2E4C  26: 89 3F				mov	es:[bx],di
387F:2E4F  43					inc	bx
387F:2E50  43					inc	bx
387F:2E51			loc_363:					;  xref 387F:2E4A, 2E55
387F:2E51  AC					lodsb				; String [si] to al
387F:2E52  AA					stosb				; Store al to es:[di]
387F:2E53  0A C0				or	al,al			; Zero ?
387F:2E55  75 FA				jnz	loc_363			; Jump if not zero
387F:2E57  E2 DA				loop	locloop_361		; Loop if cx > 0

387F:2E59			loc_364:					;  xref 387F:2E31
387F:2E59  26: 89 0F				mov	es:[bx],cx
387F:2E5C  1F					pop	ds
387F:2E5D  5D					pop	bp
387F:2E5E  C3					retn
387F:2E5F  00					db	0

				;ﬂﬂﬂﬂ External Entry into Subroutine ﬂﬂﬂﬂﬂﬂﬂﬂﬂﬂﬂﬂﬂﬂﬂﬂﬂﬂﬂﬂﬂﬂﬂﬂﬂﬂﬂﬂﬂﬂﬂﬂﬂﬂﬂﬂﬂﬂ
				;
				;         Called from:   387F:2E92, 4717

387F:2E60			sub_92:
387F:2E60 ˙55					push	bp
387F:2E61  8B EC				mov	bp,sp
387F:2E63  56					push	si
387F:2E64  57					push	di
387F:2E65  1E					push	ds
387F:2E66  07					pop	es
387F:2E67  8B 56 04				mov	dx,[bp+4]
387F:2E6A ˙BE 11F4				mov	si,offset data_191	; (3D48:11F4=0)
387F:2E6D			loc_365:					;  xref 387F:2E80
387F:2E6D ˙AD					lodsw				; String [si] to ax
387F:2E6E  3B C2				cmp	ax,dx
387F:2E70  74 10				je	loc_366			; Jump if equal
387F:2E72  40					inc	ax
387F:2E73  96					xchg	si,ax
387F:2E74  74 0C				jz	loc_366			; Jump if zero
387F:2E76  97					xchg	di,ax
387F:2E77  33 C0				xor	ax,ax			; Zero register
387F:2E79  B9 FFFF				mov	cx,0FFFFh
387F:2E7C  F2/ AE				repne	scasb			; Rep zf=0+cx >0 Scan es:[di] for al
387F:2E7E  8B F7				mov	si,di
387F:2E80  EB EB				jmp	short loc_365		; (2E6D)
387F:2E82			loc_366:					;  xref 387F:2E70, 2E74
387F:2E82  96					xchg	si,ax
387F:2E83  5F					pop	di
387F:2E84  5E					pop	si
           ml.lst          Copyright (C) 1986-1991 Phar Lap	Sourcer	v8.01   7-Sep-2022 10:02 am   Page 110

387F:2E85  8B E5				mov	sp,bp
387F:2E87  5D					pop	bp
387F:2E88  C2 0002				retn	2

				;ﬂﬂﬂﬂ External Entry into Subroutine ﬂﬂﬂﬂﬂﬂﬂﬂﬂﬂﬂﬂﬂﬂﬂﬂﬂﬂﬂﬂﬂﬂﬂﬂﬂﬂﬂﬂﬂﬂﬂﬂﬂﬂﬂﬂﬂﬂ
				;
				;         Called from:   387F:2149, 21E4, 2C13, 2C25, 2C4C

387F:2E8B			sub_93:
387F:2E8B ˙55					push	bp
387F:2E8C  8B EC				mov	bp,sp
387F:2E8E  57					push	di
387F:2E8F  FF 76 04				push	word ptr [bp+4]
387F:2E92  E8 FFCB				call	sub_92			; (2E60)
387F:2E95  0B C0				or	ax,ax			; Zero ?
387F:2E97  74 20				jz	loc_368			; Jump if zero
387F:2E99  92					xchg	dx,ax
387F:2E9A  8B FA				mov	di,dx
387F:2E9C  33 C0				xor	ax,ax			; Zero register
387F:2E9E  B9 FFFF				mov	cx,0FFFFh
387F:2EA1  F2/ AE				repne	scasb			; Rep zf=0+cx >0 Scan es:[di] for al
387F:2EA3  F7 D1				not	cx
387F:2EA5  49					dec	cx
387F:2EA6  BB 0002				mov	bx,2
387F:2EA9  81 3E 11CC D6D6			cmp	data_184,0D6D6h		; (3D48:11CC=0)
387F:2EAF  75 04				jne	loc_367			; Jump if not equal
387F:2EB1  FF 16 11CE				call	word ptr data_185	; (3D48:11CE=21CFh)
387F:2EB5			loc_367:					;  xref 387F:2EAF
387F:2EB5  B4 40				mov	ah,40h
387F:2EB7  CD 21				int	21h			; DOS Services  ah=function 40h
										;  write file  bx=file handle
										;   cx=bytes from ds:dx buffer
387F:2EB9			loc_368:					;  xref 387F:2E97
387F:2EB9  5F					pop	di
387F:2EBA  8B E5				mov	sp,bp
387F:2EBC  5D					pop	bp
387F:2EBD  C2 0002				retn	2
387F:2EC0			loc_369:					;  xref 387F:3845, 3E7E, 4B9A
387F:2EC0 ˙72 15				jc	loc_373			; Jump if carry Set
387F:2EC2			loc_370:					;  xref 387F:2EC8
387F:2EC2  33 C0				xor	ax,ax			; Zero register
387F:2EC4  8B E5				mov	sp,bp
387F:2EC6  5D					pop	bp
387F:2EC7  C3					retn
387F:2EC8			loc_371:					;  xref 387F:2BCB, 2BFA, 2C08
387F:2EC8  73 F8				jnc	loc_370			; Jump if carry=0
387F:2ECA  50					push	ax
387F:2ECB  E8 001A				call	sub_94			; (2EE8)
387F:2ECE  58					pop	ax
387F:2ECF  32 E4				xor	ah,ah			; Zero register
387F:2ED1  8B E5				mov	sp,bp
387F:2ED3  5D					pop	bp
387F:2ED4  C3					retn
387F:2ED5			loc_372:					;  xref 387F:38BF, 393F, 3F5F, 4023
										;            40CF, 41C2, 41CE, 470F
387F:2ED5 ˙73 07				jnc	loc_374			; Jump if carry=0
387F:2ED7			loc_373:					;  xref 387F:2EC0
           ml.lst          Copyright (C) 1986-1991 Phar Lap	Sourcer	v8.01   7-Sep-2022 10:02 am   Page 111

387F:2ED7  E8 000E				call	sub_94			; (2EE8)
387F:2EDA  B8 FFFF				mov	ax,0FFFFh
387F:2EDD  99					cwd				; Word to double word
387F:2EDE			loc_374:					;  xref 387F:2ED5
387F:2EDE  8B E5				mov	sp,bp
387F:2EE0  5D					pop	bp
387F:2EE1  C3					retn
				sub_85		endp

							                        ;* No entry point to code
387F:2EE2  32 E4				xor	ah,ah			; Zero register
387F:2EE4  E8 0001				call	sub_94			; (2EE8)
387F:2EE7  C3					retn

				;ﬂﬂﬂﬂﬂﬂﬂﬂﬂﬂﬂﬂﬂﬂﬂﬂﬂﬂﬂﬂﬂﬂﬂﬂﬂﬂﬂﬂﬂﬂﬂﬂﬂﬂﬂﬂﬂﬂﬂﬂﬂﬂﬂﬂﬂﬂﬂﬂﬂﬂﬂﬂﬂﬂﬂﬂﬂﬂﬂﬂﬂﬂﬂﬂﬂﬂﬂﬂﬂﬂﬂﬂﬂﬂ
				;                              SUBROUTINE
				;
				;         Called from:   387F:2ECB, 2ED7, 2EE4
				;‹‹‹‹‹‹‹‹‹‹‹‹‹‹‹‹‹‹‹‹‹‹‹‹‹‹‹‹‹‹‹‹‹‹‹‹‹‹‹‹‹‹‹‹‹‹‹‹‹‹‹‹‹‹‹‹‹‹‹‹‹‹‹‹‹‹‹‹‹‹‹‹‹‹

387F:2EE8			sub_94		proc	near
387F:2EE8  A2 0E03				mov	byte ptr data_130,al	; (3D48:0E03=0)
387F:2EEB  0A E4				or	ah,ah			; Zero ?
387F:2EED  75 22				jnz	loc_379			; Jump if not zero
387F:2EEF  80 3E 0E00 03			cmp	byte ptr data_129,3	; (3D48:0E00=0)
387F:2EF4  72 0C				jb	loc_375			; Jump if below
387F:2EF6  3C 22				cmp	al,22h			; '"'
387F:2EF8  73 0C				jae	loc_376			; Jump if above or =
387F:2EFA  3C 20				cmp	al,20h			; ' '
387F:2EFC  72 04				jb	loc_375			; Jump if below
387F:2EFE  B0 05				mov	al,5
387F:2F00  EB 06				jmp	short loc_377		; (2F08)
387F:2F02			loc_375:					;  xref 387F:2EF4, 2EFC
387F:2F02  3C 13				cmp	al,13h
387F:2F04  76 02				jbe	loc_377			; Jump if below or =
387F:2F06			loc_376:					;  xref 387F:2EF8
387F:2F06  B0 13				mov	al,13h
387F:2F08			loc_377:					;  xref 387F:2F00, 2F04
387F:2F08 ˙BB 0FB8				mov	bx,offset data_151	; (3D48:0FB8=0)
387F:2F0B  D7					xlat				; al=[al+[bx]] table
387F:2F0C			loc_378:					;  xref 387F:2F13
387F:2F0C ˙98					cbw				; Convrt byte to word
387F:2F0D  A3 0DF8				mov	data_126,ax		; (3D48:0DF8=0)
387F:2F10  C3					retn
387F:2F11			loc_379:					;  xref 387F:2EED
387F:2F11  8A C4				mov	al,ah
387F:2F13  EB F7				jmp	short loc_378		; (2F0C)
				sub_94		endp

387F:2F15  00					db	0

				;ﬂﬂﬂﬂﬂﬂﬂﬂﬂﬂﬂﬂﬂﬂﬂﬂﬂﬂﬂﬂﬂﬂﬂﬂﬂﬂﬂﬂﬂﬂﬂﬂﬂﬂﬂﬂﬂﬂﬂﬂﬂﬂﬂﬂﬂﬂﬂﬂﬂﬂﬂﬂﬂﬂﬂﬂﬂﬂﬂﬂﬂﬂﬂﬂﬂﬂﬂﬂﬂﬂﬂﬂﬂﬂ
				;                              SUBROUTINE
				;
				;         Called from:   387F:2532
				;‹‹‹‹‹‹‹‹‹‹‹‹‹‹‹‹‹‹‹‹‹‹‹‹‹‹‹‹‹‹‹‹‹‹‹‹‹‹‹‹‹‹‹‹‹‹‹‹‹‹‹‹‹‹‹‹‹‹‹‹‹‹‹‹‹‹‹‹‹‹‹‹‹‹

           ml.lst          Copyright (C) 1986-1991 Phar Lap	Sourcer	v8.01   7-Sep-2022 10:02 am   Page 112

387F:2F16			sub_95		proc	near

				PARAMETER_1	=	4			; bp+4

387F:2F16  55					push	bp
387F:2F17  8B EC				mov	bp,sp
387F:2F19  56					push	si
387F:2F1A  57					push	di
387F:2F1B  8B 76 04				mov	si,[bp+PARAMETER_1]
387F:2F1E  8A 44 06				mov	al,[si+6]
387F:2F21  A8 83				test	al,83h
387F:2F23  74 58				jz	loc_384			; Jump if zero
387F:2F25  A8 40				test	al,40h			; '@'
387F:2F27  75 54				jnz	loc_384			; Jump if not zero
387F:2F29  A8 02				test	al,2
387F:2F2B  75 41				jnz	loc_381			; Jump if not zero
387F:2F2D  0C 01				or	al,1
387F:2F2F  88 44 06				mov	[si+6],al
387F:2F32  8B FE				mov	di,si
387F:2F34  81 EF 0FCC				sub	di,0FCCh
387F:2F38 ˙81 C7 106C				add	di,offset data_156	; (3D48:106C=1)
387F:2F3C  A8 0C				test	al,0Ch
387F:2F3E  75 0A				jnz	loc_380			; Jump if not zero
387F:2F40  F6 05 01				test	byte ptr [di],1
387F:2F43  75 05				jnz	loc_380			; Jump if not zero
387F:2F45 ˙56					push	si			; PARAMETER_1
387F:2F46  E8 0F75				call	sub_128			; (3EBE)
387F:2F49  58					pop	ax
387F:2F4A			loc_380:					;  xref 387F:2F3E, 2F43
387F:2F4A  8B 44 04				mov	ax,[si+4]
387F:2F4D  89 04				mov	[si],ax
387F:2F4F  FF 75 02				push	word ptr [di+2]
387F:2F52  50					push	ax
387F:2F53  33 DB				xor	bx,bx			; Zero register
387F:2F55  8A 5C 07				mov	bl,[si+7]
387F:2F58  53					push	bx
387F:2F59  E8 0966				call	sub_114			; (38C2)
387F:2F5C  83 C4 06				add	sp,6
387F:2F5F  0B C0				or	ax,ax			; Zero ?
387F:2F61  74 11				jz	loc_382			; Jump if zero
387F:2F63  3D FFFF				cmp	ax,0FFFFh
387F:2F66  75 1A				jne	loc_385			; Jump if not equal
387F:2F68  80 4C 06 20				or	byte ptr [si+6],20h	; ' '
387F:2F6C  EB 0A				jmp	short loc_383		; (2F78)
387F:2F6E			loc_381:					;  xref 387F:2F2B
387F:2F6E  80 4C 06 20				or	byte ptr [si+6],20h	; ' '
387F:2F72  EB 09				jmp	short loc_384		; (2F7D)
387F:2F74			loc_382:					;  xref 387F:2F61
387F:2F74  80 4C 06 10				or	byte ptr [si+6],10h
387F:2F78			loc_383:					;  xref 387F:2F6C
387F:2F78  C7 44 02 0000			mov	word ptr [si+2],0
387F:2F7D			loc_384:					;  xref 387F:2F23, 2F27, 2F72
387F:2F7D  B8 FFFF				mov	ax,0FFFFh
387F:2F80  EB 24				jmp	short loc_387		; (2FA6)
387F:2F82			loc_385:					;  xref 387F:2F66
387F:2F82  8A BF 0E07				mov	bh,data_133[bx]		; (3D48:0E07=81h)
387F:2F86  80 E7 82				and	bh,82h
           ml.lst          Copyright (C) 1986-1991 Phar Lap	Sourcer	v8.01   7-Sep-2022 10:02 am   Page 113

387F:2F89  80 FF 82				cmp	bh,82h
387F:2F8C  75 0B				jne	loc_386			; Jump if not equal
387F:2F8E  8A 7C 06				mov	bh,[si+6]
387F:2F91  F6 C7 82				test	bh,82h
387F:2F94  75 03				jnz	loc_386			; Jump if not zero
387F:2F96  80 0D 20				or	byte ptr [di],20h	; ' '
387F:2F99			loc_386:					;  xref 387F:2F8C, 2F94
387F:2F99  48					dec	ax
387F:2F9A  89 44 02				mov	[si+2],ax
387F:2F9D  8B 1C				mov	bx,[si]
387F:2F9F  33 C0				xor	ax,ax			; Zero register
387F:2FA1  8A 07				mov	al,[bx]
387F:2FA3  43					inc	bx
387F:2FA4  89 1C				mov	[si],bx
387F:2FA6			loc_387:					;  xref 387F:2F80
387F:2FA6  5F					pop	di
387F:2FA7  5E					pop	si
387F:2FA8  5D					pop	bp
387F:2FA9  C3					retn
				sub_95		endp


				;ﬂﬂﬂﬂﬂﬂﬂﬂﬂﬂﬂﬂﬂﬂﬂﬂﬂﬂﬂﬂﬂﬂﬂﬂﬂﬂﬂﬂﬂﬂﬂﬂﬂﬂﬂﬂﬂﬂﬂﬂﬂﬂﬂﬂﬂﬂﬂﬂﬂﬂﬂﬂﬂﬂﬂﬂﬂﬂﬂﬂﬂﬂﬂﬂﬂﬂﬂﬂﬂﬂﬂﬂﬂﬂ
				;                              SUBROUTINE
				;
				;         Called from:   387F:288E, 3772
				;‹‹‹‹‹‹‹‹‹‹‹‹‹‹‹‹‹‹‹‹‹‹‹‹‹‹‹‹‹‹‹‹‹‹‹‹‹‹‹‹‹‹‹‹‹‹‹‹‹‹‹‹‹‹‹‹‹‹‹‹‹‹‹‹‹‹‹‹‹‹‹‹‹‹

387F:2FAA			sub_96		proc	near

				PARAMETER_1	=	4			; bp+4
				PARAMETER_2	=	6			; bp+6

387F:2FAA  55					push	bp
387F:2FAB  8B EC				mov	bp,sp
387F:2FAD  56					push	si
387F:2FAE  57					push	di
387F:2FAF  8B 76 06				mov	si,[bp+PARAMETER_2]
387F:2FB2  8A 44 06				mov	al,[si+6]
387F:2FB5  A8 82				test	al,82h
387F:2FB7  74 68				jz	loc_391			; Jump if zero
387F:2FB9  A8 40				test	al,40h			; '@'
387F:2FBB  75 64				jnz	loc_391			; Jump if not zero
387F:2FBD  C7 44 02 0000			mov	word ptr [si+2],0
387F:2FC2  A8 01				test	al,1
387F:2FC4  74 0B				jz	loc_388			; Jump if zero
387F:2FC6  A8 10				test	al,10h
387F:2FC8  74 57				jz	loc_391			; Jump if zero
387F:2FCA  8B 4C 04				mov	cx,[si+4]
387F:2FCD  89 0C				mov	[si],cx
387F:2FCF  24 FE				and	al,0FEh
387F:2FD1			loc_388:					;  xref 387F:2FC4
387F:2FD1  0C 02				or	al,2
387F:2FD3  24 EF				and	al,0EFh
387F:2FD5  88 44 06				mov	[si+6],al
387F:2FD8  8B FE				mov	di,si
387F:2FDA  81 EF 0FCC				sub	di,0FCCh
           ml.lst          Copyright (C) 1986-1991 Phar Lap	Sourcer	v8.01   7-Sep-2022 10:02 am   Page 114

387F:2FDE ˙81 C7 106C				add	di,offset data_156	; (3D48:106C=1)
387F:2FE2  33 DB				xor	bx,bx			; Zero register
387F:2FE4  8A 5C 07				mov	bl,[si+7]
387F:2FE7  A8 08				test	al,8
387F:2FE9  75 4C				jnz	loc_393			; Jump if not zero
387F:2FEB  A8 04				test	al,4
387F:2FED  75 1E				jnz	loc_390			; Jump if not zero
387F:2FEF  F6 05 01				test	byte ptr [di],1
387F:2FF2  75 43				jnz	loc_393			; Jump if not zero
387F:2FF4  81 FE 0FD4				cmp	si,0FD4h
387F:2FF8  74 0C				je	loc_389			; Jump if equal
387F:2FFA  81 FE 0FDC				cmp	si,0FDCh
387F:2FFE  74 06				je	loc_389			; Jump if equal
387F:3000  81 FE 0FEC				cmp	si,0FECh
387F:3004  75 24				jne	loc_392			; Jump if not equal
387F:3006			loc_389:					;  xref 387F:2FF8, 2FFE
387F:3006  F6 87 0E07 40			test	byte ptr data_133[bx],40h	; (3D48:0E07=81h) '@'
387F:300B  74 1D				jz	loc_392			; Jump if zero
387F:300D			loc_390:					;  xref 387F:2FED, 3035
387F:300D  B9 0001				mov	cx,1
387F:3010 ˙51					push	cx			; PARAMETER_3
387F:3011  8D 7E 04				lea	di,[bp+PARAMETER_1]	; Load effective addr
387F:3014  57					push	di			; PARAMETER_2
387F:3015  53					push	bx			; PARAMETER_1
387F:3016  E8 10A3				call	sub_131			; (40BC)
387F:3019  83 C4 06				add	sp,6
387F:301C  B9 0001				mov	cx,1
387F:301F  EB 3E				jmp	short loc_395		; (305F)
387F:3021			loc_391:					;  xref 387F:2FB7, 2FBB, 2FC8, 3061
387F:3021  B8 FFFF				mov	ax,0FFFFh
387F:3024  80 4C 06 20				or	byte ptr [si+6],20h	; ' '
387F:3028  EB 5C				jmp	short loc_397		; (3086)
387F:302A			loc_392:					;  xref 387F:3004, 300B
387F:302A  53					push	bx
387F:302B ˙56					push	si			; PARAMETER_1
387F:302C  E8 0E8F				call	sub_128			; (3EBE)
387F:302F  5B					pop	bx
387F:3030  5B					pop	bx
387F:3031  F6 44 06 08				test	byte ptr [si+6],8
387F:3035  74 D6				jz	loc_390			; Jump if zero
387F:3037			loc_393:					;  xref 387F:2FE9, 2FF2
387F:3037  8B 0C				mov	cx,[si]
387F:3039  8B 54 04				mov	dx,[si+4]
387F:303C  2B CA				sub	cx,dx
387F:303E  42					inc	dx
387F:303F  89 14				mov	[si],dx
387F:3041  8B 55 02				mov	dx,[di+2]
387F:3044  4A					dec	dx
387F:3045  89 54 02				mov	[si+2],dx
387F:3048  E3 20				jcxz	loc_396			; Jump if cx=0
387F:304A  51					push	cx
387F:304B ˙51					push	cx			; PARAMETER_3
387F:304C  FF 74 04				push	word ptr [si+4]		; PARAMETER_2
387F:304F  53					push	bx			; PARAMETER_1
387F:3050  E8 1069				call	sub_131			; (40BC)
387F:3053  83 C4 06				add	sp,6
387F:3056  59					pop	cx
           ml.lst          Copyright (C) 1986-1991 Phar Lap	Sourcer	v8.01   7-Sep-2022 10:02 am   Page 115

387F:3057			loc_394:					;  xref 387F:3071, 3084
387F:3057 ˙8B 7C 04				mov	di,[si+4]
387F:305A  8B 56 04				mov	dx,[bp+PARAMETER_1]
387F:305D  88 15				mov	[di],dl
387F:305F			loc_395:					;  xref 387F:301F
387F:305F  3B C1				cmp	ax,cx
387F:3061  75 BE				jne	loc_391			; Jump if not equal
387F:3063  33 C0				xor	ax,ax			; Zero register
387F:3065  8A 46 04				mov	al,[bp+PARAMETER_1]
387F:3068  EB 1C				jmp	short loc_397		; (3086)
387F:306A			loc_396:					;  xref 387F:3048
387F:306A  33 C0				xor	ax,ax			; Zero register
387F:306C  F6 87 0E07 20			test	byte ptr data_133[bx],20h	; (3D48:0E07=81h) ' '
387F:3071  74 E4				jz	loc_394			; Jump if zero
387F:3073  B9 0002				mov	cx,2
387F:3076  51					push	cx
387F:3077  50					push	ax
387F:3078  50					push	ax
387F:3079  53					push	bx
387F:307A  E8 07CB				call	sub_113			; (3848)
387F:307D  83 C4 08				add	sp,8
387F:3080  33 C0				xor	ax,ax			; Zero register
387F:3082  8B C8				mov	cx,ax
387F:3084  EB D1				jmp	short loc_394		; (3057)
387F:3086			loc_397:					;  xref 387F:3028, 3068
387F:3086  5F					pop	di
387F:3087  5E					pop	si
387F:3088  5D					pop	bp
387F:3089  C3					retn
				sub_96		endp


				;ﬂﬂﬂﬂﬂﬂﬂﬂﬂﬂﬂﬂﬂﬂﬂﬂﬂﬂﬂﬂﬂﬂﬂﬂﬂﬂﬂﬂﬂﬂﬂﬂﬂﬂﬂﬂﬂﬂﬂﬂﬂﬂﬂﬂﬂﬂﬂﬂﬂﬂﬂﬂﬂﬂﬂﬂﬂﬂﬂﬂﬂﬂﬂﬂﬂﬂﬂﬂﬂﬂﬂﬂﬂﬂ
				;                              SUBROUTINE
				;
				;         Called from:   387F:23D7
				;‹‹‹‹‹‹‹‹‹‹‹‹‹‹‹‹‹‹‹‹‹‹‹‹‹‹‹‹‹‹‹‹‹‹‹‹‹‹‹‹‹‹‹‹‹‹‹‹‹‹‹‹‹‹‹‹‹‹‹‹‹‹‹‹‹‹‹‹‹‹‹‹‹‹

387F:308A			sub_97		proc	near

				PARAMETER_1	=	4			; bp+4

387F:308A  55					push	bp
387F:308B  8B EC				mov	bp,sp
387F:308D  56					push	si
387F:308E  8B 76 04				mov	si,[bp+PARAMETER_1]
387F:3091  8A 44 06				mov	al,[si+6]
387F:3094  A8 83				test	al,83h
387F:3096  74 19				jz	loc_398			; Jump if zero
387F:3098  A8 08				test	al,8
387F:309A  74 15				jz	loc_398			; Jump if zero
387F:309C  FF 74 04				push	word ptr [si+4]
387F:309F  E8 F508				call	sub_66			; (25AA)
387F:30A2  59					pop	cx
387F:30A3  80 64 06 F7				and	byte ptr [si+6],0F7h
387F:30A7  33 C0				xor	ax,ax			; Zero register
387F:30A9  89 44 04				mov	[si+4],ax
           ml.lst          Copyright (C) 1986-1991 Phar Lap	Sourcer	v8.01   7-Sep-2022 10:02 am   Page 116

387F:30AC  89 04				mov	[si],ax
387F:30AE  89 44 02				mov	[si+2],ax
387F:30B1			loc_398:					;  xref 387F:3096, 309A
387F:30B1  5E					pop	si
387F:30B2  5D					pop	bp
387F:30B3  C3					retn
				sub_97		endp


				;ﬂﬂﬂﬂﬂﬂﬂﬂﬂﬂﬂﬂﬂﬂﬂﬂﬂﬂﬂﬂﬂﬂﬂﬂﬂﬂﬂﬂﬂﬂﬂﬂﬂﬂﬂﬂﬂﬂﬂﬂﬂﬂﬂﬂﬂﬂﬂﬂﬂﬂﬂﬂﬂﬂﬂﬂﬂﬂﬂﬂﬂﬂﬂﬂﬂﬂﬂﬂﬂﬂﬂﬂﬂﬂ
				;                              SUBROUTINE
				;
				;         Called from:   387F:246A
				;‹‹‹‹‹‹‹‹‹‹‹‹‹‹‹‹‹‹‹‹‹‹‹‹‹‹‹‹‹‹‹‹‹‹‹‹‹‹‹‹‹‹‹‹‹‹‹‹‹‹‹‹‹‹‹‹‹‹‹‹‹‹‹‹‹‹‹‹‹‹‹‹‹‹

387F:30B4			sub_98		proc	near

				PARAMETER_1	=	4			; bp+4
				PARAMETER_2	=	6			; bp+6
				PARAMETER_3	=	8			; bp+8
				PARAMETER_4	=	0Ah			; bp+0Ah
				LOCAL_4		=	-8			; bp+0FFF8h
				LOCAL_3		=	-6			; bp+0FFFAh
				LOCAL_2		=	-4			; bp+0FFFCh
				LOCAL_1		=	-2			; bp+0FFFEh

387F:30B4  55					push	bp
387F:30B5  8B EC				mov	bp,sp
387F:30B7  83 EC 08				sub	sp,8
387F:30BA  57					push	di
387F:30BB  56					push	si
387F:30BC  8B 5E 06				mov	bx,[bp+PARAMETER_2]
387F:30BF  8A 07				mov	al,[bx]
387F:30C1  98					cbw				; Convrt byte to word
387F:30C2  3D 0077				cmp	ax,77h
387F:30C5  74 45				je	loc_404			; Jump if equal
387F:30C7  77 08				ja	loc_399			; Jump if above
387F:30C9  2C 61				sub	al,61h			; 'a'
387F:30CB  74 49				jz	loc_406			; Jump if zero
387F:30CD  2C 11				sub	al,11h
387F:30CF  74 05				jz	loc_400			; Jump if zero
387F:30D1			loc_399:					;  xref 387F:30C7, 315E
387F:30D1 ˙2B C0				sub	ax,ax
387F:30D3  E9 00BE				jmp	loc_412			; (3194)
387F:30D6			loc_400:					;  xref 387F:30CF
387F:30D6  2B F6				sub	si,si
387F:30D8  C6 46 FC 01				mov	byte ptr [bp+LOCAL_2],1
387F:30DC			loc_401:					;  xref 387F:3113
387F:30DC ˙C7 46 FE 0001			mov	word ptr [bp+LOCAL_1],1
387F:30E1			loc_402:					;  xref 387F:3109, 312C, 3138, 3144
387F:30E1 ˙FF 46 06				inc	word ptr [bp+PARAMETER_2]
387F:30E4  8B 5E 06				mov	bx,[bp+PARAMETER_2]
387F:30E7  80 3F 00				cmp	byte ptr [bx],0
387F:30EA  74 5A				je	loc_410			; Jump if equal
387F:30EC  83 7E FE 00				cmp	word ptr [bp+LOCAL_1],0
387F:30F0  74 54				je	loc_410			; Jump if equal
387F:30F2  8A 07				mov	al,[bx]
           ml.lst          Copyright (C) 1986-1991 Phar Lap	Sourcer	v8.01   7-Sep-2022 10:02 am   Page 117

387F:30F4  98					cbw				; Convrt byte to word
387F:30F5  3D 0074				cmp	ax,74h
387F:30F8  74 34				je	loc_408			; Jump if equal
387F:30FA  77 08				ja	loc_403			; Jump if above
387F:30FC  2C 2B				sub	al,2Bh			; '+'
387F:30FE  74 1C				jz	loc_407			; Jump if zero
387F:3100  2C 37				sub	al,37h			; '7'
387F:3102  74 36				jz	loc_409			; Jump if zero
387F:3104			loc_403:					;  xref 387F:30FA, 3120, 3132, 313E
387F:3104  C7 46 FE 0000			mov	word ptr [bp+LOCAL_1],0
387F:3109  EB D6				jmp	short loc_402		; (30E1)
387F:310B  90					db	90h
387F:310C			loc_404:					;  xref 387F:30C5
387F:310C  BE 0301				mov	si,301h
387F:310F			loc_405:					;  xref 387F:3119
387F:310F ˙C6 46 FC 02				mov	byte ptr [bp+LOCAL_2],2
387F:3113  EB C7				jmp	short loc_401		; (30DC)
387F:3115  90					db	90h
387F:3116			loc_406:					;  xref 387F:30CB
387F:3116  BE 0109				mov	si,109h
387F:3119  EB F4				jmp	short loc_405		; (310F)
387F:311B  90					db	90h
387F:311C			loc_407:					;  xref 387F:30FE
387F:311C  F7 C6 0002				test	si,2
387F:3120  75 E2				jnz	loc_403			; Jump if not zero
387F:3122  83 CE 02				or	si,2
387F:3125  83 E6 FE				and	si,0FFFEh
387F:3128  C6 46 FC 80				mov	byte ptr [bp+LOCAL_2],80h
387F:312C  EB B3				jmp	short loc_402		; (30E1)
387F:312E			loc_408:					;  xref 387F:30F8
387F:312E  F7 C6 C000				test	si,0C000h
387F:3132  75 D0				jnz	loc_403			; Jump if not zero
387F:3134  81 CE 4000				or	si,4000h
387F:3138  EB A7				jmp	short loc_402		; (30E1)
387F:313A			loc_409:					;  xref 387F:3102
387F:313A  F7 C6 C000				test	si,0C000h
387F:313E  75 C4				jnz	loc_403			; Jump if not zero
387F:3140  81 CE 8000				or	si,8000h
387F:3144  EB 9B				jmp	short loc_402		; (30E1)
387F:3146			loc_410:					;  xref 387F:30EA, 30F0
387F:3146  B8 01A4				mov	ax,1A4h
387F:3149 ˙50					push	ax			; PARAMETER_4
387F:314A  FF 76 08				push	word ptr [bp+PARAMETER_3]	; PARAMETER_3
387F:314D  56					push	si			; PARAMETER_2
387F:314E  FF 76 04				push	word ptr [bp+PARAMETER_1]	; PARAMETER_1
387F:3151  E8 0DAC				call	sub_129			; (3F00)
387F:3154  83 C4 08				add	sp,8
387F:3157  89 46 FA				mov	[bp+LOCAL_3],ax
387F:315A  0B C0				or	ax,ax			; Zero ?
387F:315C  7D 03				jge	loc_411			; Jump if > or =
387F:315E  E9 FF70				jmp	loc_399			; (30D1)
387F:3161			loc_411:					;  xref 387F:315C
387F:3161  FF 06 1198				inc	data_166		; (3D48:1198=0)
387F:3165  8B 7E 0A				mov	di,[bp+PARAMETER_4]
387F:3168  8B C7				mov	ax,di
387F:316A  2D 0FCC				sub	ax,0FCCh
387F:316D  05 106C				add	ax,106Ch
           ml.lst          Copyright (C) 1986-1991 Phar Lap	Sourcer	v8.01   7-Sep-2022 10:02 am   Page 118

387F:3170  89 46 F8				mov	[bp+LOCAL_4],ax
387F:3173  8A 46 FC				mov	al,[bp+LOCAL_2]
387F:3176  88 45 06				mov	[di+6],al
387F:3179  8B 5E F8				mov	bx,[bp+LOCAL_4]
387F:317C  C6 07 00				mov	byte ptr [bx],0
387F:317F  2B C0				sub	ax,ax
387F:3181  89 45 02				mov	[di+2],ax
387F:3184  89 47 04				mov	[bx+4],ax
387F:3187  89 05				mov	[di],ax
387F:3189  89 45 04				mov	[di+4],ax
387F:318C  8A 46 FA				mov	al,[bp+LOCAL_3]
387F:318F  88 45 07				mov	[di+7],al
387F:3192  8B C7				mov	ax,di
387F:3194			loc_412:					;  xref 387F:30D3
387F:3194  5E					pop	si
387F:3195  5F					pop	di
387F:3196  8B E5				mov	sp,bp
387F:3198  5D					pop	bp
387F:3199  C3					retn
				sub_98		endp


				;ﬂﬂﬂﬂﬂﬂﬂﬂﬂﬂﬂﬂﬂﬂﬂﬂﬂﬂﬂﬂﬂﬂﬂﬂﬂﬂﬂﬂﬂﬂﬂﬂﬂﬂﬂﬂﬂﬂﬂﬂﬂﬂﬂﬂﬂﬂﬂﬂﬂﬂﬂﬂﬂﬂﬂﬂﬂﬂﬂﬂﬂﬂﬂﬂﬂﬂﬂﬂﬂﬂﬂﬂﬂﬂ
				;                              SUBROUTINE
				;
				;         Called from:   387F:2576, 28A8
				;‹‹‹‹‹‹‹‹‹‹‹‹‹‹‹‹‹‹‹‹‹‹‹‹‹‹‹‹‹‹‹‹‹‹‹‹‹‹‹‹‹‹‹‹‹‹‹‹‹‹‹‹‹‹‹‹‹‹‹‹‹‹‹‹‹‹‹‹‹‹‹‹‹‹

387F:319A			sub_99		proc	near

				PARAMETER_1	=	4			; bp+4

387F:319A  55					push	bp
387F:319B  8B EC				mov	bp,sp
387F:319D  56					push	si
387F:319E  57					push	di
387F:319F  8B 76 04				mov	si,[bp+PARAMETER_1]
387F:31A2  BB 110E				mov	bx,110Eh
387F:31A5  81 FE 0FD4				cmp	si,0FD4h
387F:31A9  74 12				je	loc_413			; Jump if equal
387F:31AB  BB 1110				mov	bx,1110h
387F:31AE  81 FE 0FDC				cmp	si,0FDCh
387F:31B2  74 09				je	loc_413			; Jump if equal
387F:31B4 ˙BB 1112				mov	bx,offset data_160	; (3D48:1112=0)
387F:31B7 ˙81 FE 0FEC				cmp	si,offset data_154	; (3D48:0FEC=0)
387F:31BB  75 48				jne	loc_416			; Jump if not equal
387F:31BD			loc_413:					;  xref 387F:31A9, 31B2
387F:31BD  8B FE				mov	di,si
387F:31BF  81 EF 0FCC				sub	di,0FCCh
387F:31C3 ˙81 C7 106C				add	di,offset data_156	; (3D48:106C=1)
387F:31C7  F6 44 06 0C				test	byte ptr [si+6],0Ch
387F:31CB  75 38				jnz	loc_416			; Jump if not zero
387F:31CD  F6 05 01				test	byte ptr [di],1
387F:31D0  75 33				jnz	loc_416			; Jump if not zero
387F:31D2  8B 07				mov	ax,[bx]
387F:31D4  0B C0				or	ax,ax			; Zero ?
387F:31D6  74 1B				jz	loc_415			; Jump if zero
           ml.lst          Copyright (C) 1986-1991 Phar Lap	Sourcer	v8.01   7-Sep-2022 10:02 am   Page 119

387F:31D8			loc_414:					;  xref 387F:3203
387F:31D8 ˙89 44 04				mov	[si+4],ax
387F:31DB  89 04				mov	[si],ax
387F:31DD  C7 44 02 0200			mov	word ptr [si+2],200h
387F:31E2  C7 45 02 0200			mov	word ptr [di+2],200h
387F:31E7  80 4C 06 02				or	byte ptr [si+6],2
387F:31EB  C6 05 11				mov	byte ptr [di],11h
387F:31EE  B8 0001				mov	ax,1
387F:31F1  EB 14				jmp	short loc_417		; (3207)
387F:31F3			loc_415:					;  xref 387F:31D6
387F:31F3  53					push	bx
387F:31F4  B8 0200				mov	ax,200h
387F:31F7  50					push	ax
387F:31F8  E8 F3AB				call	sub_65			; (25A6)
387F:31FB  5B					pop	bx
387F:31FC  5B					pop	bx
387F:31FD  0B C0				or	ax,ax			; Zero ?
387F:31FF  74 04				jz	loc_416			; Jump if zero
387F:3201  89 07				mov	[bx],ax
387F:3203  EB D3				jmp	short loc_414		; (31D8)
387F:3205			loc_416:					;  xref 387F:31BB, 31CB, 31D0, 31FF
387F:3205  33 C0				xor	ax,ax			; Zero register
387F:3207			loc_417:					;  xref 387F:31F1
387F:3207  5F					pop	di
387F:3208  5E					pop	si
387F:3209  5D					pop	bp
387F:320A  C3					retn
				sub_99		endp


				;ﬂﬂﬂﬂﬂﬂﬂﬂﬂﬂﬂﬂﬂﬂﬂﬂﬂﬂﬂﬂﬂﬂﬂﬂﬂﬂﬂﬂﬂﬂﬂﬂﬂﬂﬂﬂﬂﬂﬂﬂﬂﬂﬂﬂﬂﬂﬂﬂﬂﬂﬂﬂﬂﬂﬂﬂﬂﬂﬂﬂﬂﬂﬂﬂﬂﬂﬂﬂﬂﬂﬂﬂﬂﬂ
				;                              SUBROUTINE
				;
				;         Called from:   387F:2597, 28C8
				;‹‹‹‹‹‹‹‹‹‹‹‹‹‹‹‹‹‹‹‹‹‹‹‹‹‹‹‹‹‹‹‹‹‹‹‹‹‹‹‹‹‹‹‹‹‹‹‹‹‹‹‹‹‹‹‹‹‹‹‹‹‹‹‹‹‹‹‹‹‹‹‹‹‹

387F:320B			sub_100		proc	near

				PARAMETER_1	=	4			; bp+4
				PARAMETER_2	=	6			; bp+6

387F:320B  55					push	bp
387F:320C  8B EC				mov	bp,sp
387F:320E  56					push	si
387F:320F  57					push	di
387F:3210  8B 76 06				mov	si,[bp+PARAMETER_2]
387F:3213  8B FE				mov	di,si
387F:3215  81 EF 0FCC				sub	di,0FCCh
387F:3219 ˙81 C7 106C				add	di,offset data_156	; (3D48:106C=1)
387F:321D  F6 05 10				test	byte ptr [di],10h
387F:3220  74 23				jz	loc_418			; Jump if zero
387F:3222  33 DB				xor	bx,bx			; Zero register
387F:3224  8A 5C 07				mov	bl,[si+7]
387F:3227  F6 87 0E07 40			test	byte ptr data_133[bx],40h	; (3D48:0E07=81h) '@'
387F:322C  74 17				jz	loc_418			; Jump if zero
387F:322E ˙56					push	si			; PARAMETER_1
387F:322F  E8 0018				call	sub_101			; (324A)
           ml.lst          Copyright (C) 1986-1991 Phar Lap	Sourcer	v8.01   7-Sep-2022 10:02 am   Page 120

387F:3232  58					pop	ax
387F:3233  83 7E 04 00				cmp	word ptr [bp+PARAMETER_1],0
387F:3237  74 0C				je	loc_418			; Jump if equal
387F:3239  33 C0				xor	ax,ax			; Zero register
387F:323B  88 05				mov	[di],al
387F:323D  89 45 02				mov	[di+2],ax
387F:3240  89 04				mov	[si],ax
387F:3242  89 44 04				mov	[si+4],ax
387F:3245			loc_418:					;  xref 387F:3220, 322C, 3237
387F:3245  5F					pop	di
387F:3246  5E					pop	si
387F:3247  5D					pop	bp
387F:3248  C3					retn
				sub_100		endp

387F:3249  00					db	0

				;ﬂﬂﬂﬂﬂﬂﬂﬂﬂﬂﬂﬂﬂﬂﬂﬂﬂﬂﬂﬂﬂﬂﬂﬂﬂﬂﬂﬂﬂﬂﬂﬂﬂﬂﬂﬂﬂﬂﬂﬂﬂﬂﬂﬂﬂﬂﬂﬂﬂﬂﬂﬂﬂﬂﬂﬂﬂﬂﬂﬂﬂﬂﬂﬂﬂﬂﬂﬂﬂﬂﬂﬂﬂﬂ
				;                              SUBROUTINE
				;
				;         Called from:   387F:23C1, 280B, 322F, 32EB
				;‹‹‹‹‹‹‹‹‹‹‹‹‹‹‹‹‹‹‹‹‹‹‹‹‹‹‹‹‹‹‹‹‹‹‹‹‹‹‹‹‹‹‹‹‹‹‹‹‹‹‹‹‹‹‹‹‹‹‹‹‹‹‹‹‹‹‹‹‹‹‹‹‹‹

387F:324A			sub_101		proc	near

				PARAMETER_1	=	4			; bp+4
				LOCAL_1		=	-2			; bp+0FFFEh

387F:324A  55					push	bp
387F:324B  8B EC				mov	bp,sp
387F:324D  83 EC 02				sub	sp,2
387F:3250  57					push	di
387F:3251  56					push	si
387F:3252  2B FF				sub	di,di
387F:3254  39 7E 04				cmp	[bp+PARAMETER_1],di
387F:3257  75 09				jne	loc_419			; Jump if not equal
387F:3259  2B C0				sub	ax,ax
387F:325B ˙50					push	ax			; PARAMETER_1
387F:325C  E8 0065				call	sub_102			; (32C4)
387F:325F  EB 55				jmp	short loc_422		; (32B6)
387F:3261  90					db	90h
387F:3262			loc_419:					;  xref 387F:3257
387F:3262  8B 76 04				mov	si,[bp+PARAMETER_1]
387F:3265  8A 44 06				mov	al,[si+6]
387F:3268  8B C8				mov	cx,ax
387F:326A  24 03				and	al,3
387F:326C  3C 02				cmp	al,2
387F:326E  75 3A				jne	loc_421			; Jump if not equal
387F:3270  F6 C1 08				test	cl,8
387F:3273  75 0D				jnz	loc_420			; Jump if not zero
387F:3275  8B DE				mov	bx,si
387F:3277  81 EB 0FCC				sub	bx,0FCCh
387F:327B  F6 87 106C 01			test	byte ptr data_156[bx],1	; (3D48:106C=1)
387F:3280  74 28				jz	loc_421			; Jump if zero
387F:3282			loc_420:					;  xref 387F:3273
387F:3282  8B 04				mov	ax,[si]
387F:3284  2B 44 04				sub	ax,[si+4]
           ml.lst          Copyright (C) 1986-1991 Phar Lap	Sourcer	v8.01   7-Sep-2022 10:02 am   Page 121

387F:3287  89 46 FE				mov	[bp+LOCAL_1],ax
387F:328A  0B C0				or	ax,ax			; Zero ?
387F:328C  7E 1C				jle	loc_421			; Jump if < or =
387F:328E ˙50					push	ax			; PARAMETER_3
387F:328F  FF 74 04				push	word ptr [si+4]		; PARAMETER_2
387F:3292  8A 4C 07				mov	cl,[si+7]
387F:3295  2A ED				sub	ch,ch
387F:3297  51					push	cx			; PARAMETER_1
387F:3298  E8 0E21				call	sub_131			; (40BC)
387F:329B  83 C4 06				add	sp,6
387F:329E  39 46 FE				cmp	[bp+LOCAL_1],ax
387F:32A1  74 07				je	loc_421			; Jump if equal
387F:32A3  80 4C 06 20				or	byte ptr [si+6],20h	; ' '
387F:32A7  BF FFFF				mov	di,0FFFFh
387F:32AA			loc_421:					;  xref 387F:326E, 3280, 328C, 32A1
387F:32AA  8B 44 04				mov	ax,[si+4]
387F:32AD  89 04				mov	[si],ax
387F:32AF  C7 44 02 0000			mov	word ptr [si+2],0
387F:32B4  8B C7				mov	ax,di
387F:32B6			loc_422:					;  xref 387F:325F
387F:32B6  5E					pop	si
387F:32B7  5F					pop	di
387F:32B8  8B E5				mov	sp,bp
387F:32BA  5D					pop	bp
387F:32BB  C3					retn
				sub_101		endp

							                        ;* No entry point to code
387F:32BC  B8 0001				mov	ax,1
387F:32BF ˙50					push	ax			; PARAMETER_1
387F:32C0  E8 0001				call	sub_102			; (32C4)
387F:32C3  C3					retn

				;ﬂﬂﬂﬂﬂﬂﬂﬂﬂﬂﬂﬂﬂﬂﬂﬂﬂﬂﬂﬂﬂﬂﬂﬂﬂﬂﬂﬂﬂﬂﬂﬂﬂﬂﬂﬂﬂﬂﬂﬂﬂﬂﬂﬂﬂﬂﬂﬂﬂﬂﬂﬂﬂﬂﬂﬂﬂﬂﬂﬂﬂﬂﬂﬂﬂﬂﬂﬂﬂﬂﬂﬂﬂﬂ
				;                              SUBROUTINE
				;
				;         Called from:   387F:325C, 32C0
				;‹‹‹‹‹‹‹‹‹‹‹‹‹‹‹‹‹‹‹‹‹‹‹‹‹‹‹‹‹‹‹‹‹‹‹‹‹‹‹‹‹‹‹‹‹‹‹‹‹‹‹‹‹‹‹‹‹‹‹‹‹‹‹‹‹‹‹‹‹‹‹‹‹‹

387F:32C4			sub_102		proc	near

				PARAMETER_1	=	4			; bp+4
				LOCAL_1		=	-2			; bp+0FFFEh

387F:32C4  55					push	bp
387F:32C5  8B EC				mov	bp,sp
387F:32C7  83 EC 02				sub	sp,2
387F:32CA  57					push	di
387F:32CB  56					push	si
387F:32CC ˙BE 0FCC				mov	si,offset data_152	; (3D48:0FCC=80h)
387F:32CF  2B FF				sub	di,di
387F:32D1  89 7E FE				mov	[bp+LOCAL_1],di
387F:32D4  EB 08				jmp	short loc_425		; (32DE)
387F:32D6			loc_423:					;  xref 387F:32F2
387F:32D6  C7 46 FE FFFF			mov	word ptr [bp+LOCAL_1],0FFFFh
387F:32DB			loc_424:					;  xref 387F:32E8, 32F5
387F:32DB ˙83 C6 08				add	si,8
           ml.lst          Copyright (C) 1986-1991 Phar Lap	Sourcer	v8.01   7-Sep-2022 10:02 am   Page 122

387F:32DE			loc_425:					;  xref 387F:32D4
387F:32DE  39 36 110C				cmp	data_159,si		; (3D48:110C=1064h)
387F:32E2  72 14				jb	loc_426			; Jump if below
387F:32E4  F6 44 06 83				test	byte ptr [si+6],83h
387F:32E8  74 F1				jz	loc_424			; Jump if zero
387F:32EA ˙56					push	si			; PARAMETER_1
387F:32EB  E8 FF5C				call	sub_101			; (324A)
387F:32EE  83 C4 02				add	sp,2
387F:32F1  40					inc	ax
387F:32F2  74 E2				jz	loc_423			; Jump if zero
387F:32F4  47					inc	di
387F:32F5  EB E4				jmp	short loc_424		; (32DB)
387F:32F7  90					db	90h
387F:32F8			loc_426:					;  xref 387F:32E2
387F:32F8  83 7E 04 01				cmp	word ptr [bp+PARAMETER_1],1
387F:32FC  75 04				jne	loc_427			; Jump if not equal
387F:32FE  8B C7				mov	ax,di
387F:3300  EB 03				jmp	short loc_428		; (3305)
387F:3302			loc_427:					;  xref 387F:32FC
387F:3302  8B 46 FE				mov	ax,[bp+LOCAL_1]
387F:3305			loc_428:					;  xref 387F:3300
387F:3305  5E					pop	si
387F:3306  5F					pop	di
387F:3307  8B E5				mov	sp,bp
387F:3309  5D					pop	bp
387F:330A  C2 0002				retn	2
				sub_102		endp

387F:330D  90					db	90h
387F:330E  3374			data_10		dw	offset loc_434		; Data table (indexed access)
										;  xref 387F:336F
387F:3310  337F			data_11		dw	offset loc_435		;  xref 387F:336F
387F:3312  3393			data_12		dw	offset loc_436		;  xref 387F:336F
387F:3314  33C7			data_13		dw	offset loc_441		;  xref 387F:336F
387F:3316  33F3			data_14		dw	offset loc_444		;  xref 387F:336F
387F:3318  33FB			data_15		dw	offset loc_445		;  xref 387F:336F
387F:331A  3424			data_16		dw	offset loc_448		;  xref 387F:336F
387F:331C  3456			data_17		dw	offset loc_454		;  xref 387F:336F

				;ﬂﬂﬂﬂﬂﬂﬂﬂﬂﬂﬂﬂﬂﬂﬂﬂﬂﬂﬂﬂﬂﬂﬂﬂﬂﬂﬂﬂﬂﬂﬂﬂﬂﬂﬂﬂﬂﬂﬂﬂﬂﬂﬂﬂﬂﬂﬂﬂﬂﬂﬂﬂﬂﬂﬂﬂﬂﬂﬂﬂﬂﬂﬂﬂﬂﬂﬂﬂﬂﬂﬂﬂﬂﬂ
				;                              SUBROUTINE
				;
				;         Called from:   387F:2589, 286E, 28BA
				;‹‹‹‹‹‹‹‹‹‹‹‹‹‹‹‹‹‹‹‹‹‹‹‹‹‹‹‹‹‹‹‹‹‹‹‹‹‹‹‹‹‹‹‹‹‹‹‹‹‹‹‹‹‹‹‹‹‹‹‹‹‹‹‹‹‹‹‹‹‹‹‹‹‹

387F:331E			sub_103		proc	near
387F:331E ˙55					push	bp
387F:331F  8B EC				mov	bp,sp
387F:3321  B8 0171				mov	ax,171h
387F:3324  E8 0B5B				call	sub_126			; (3E82)
387F:3327  56					push	si
387F:3328  57					push	di
387F:3329  33 C0				xor	ax,ax			; Zero register
387F:332B  89 46 F8				mov	[bp-8],ax
387F:332E  88 46 FB				mov	[bp-5],al
387F:3331			loc_429:					;  xref 387F:337D, 3391, 339E, 33A8
										;            33B2, 33BD, 33C4, 33F0
           ml.lst          Copyright (C) 1986-1991 Phar Lap	Sourcer	v8.01   7-Sep-2022 10:02 am   Page 123

										;            33F8, 3421, 3453, 34F0
										;            3725
387F:3331 ˙8B 76 06				mov	si,[bp+6]
387F:3334  AC					lodsb				; String [si] to al
387F:3335  89 76 06				mov	[bp+6],si
387F:3338  88 46 FE				mov	[bp-2],al
387F:333B  0A C0				or	al,al			; Zero ?
387F:333D  74 06				jz	loc_430			; Jump if zero
387F:333F  83 7E F8 00				cmp	word ptr [bp-8],0
387F:3343  7D 06				jge	loc_431			; Jump if > or =
387F:3345			loc_430:					;  xref 387F:333D
387F:3345  8B 46 F8				mov	ax,[bp-8]
387F:3348  E9 04A2				jmp	loc_520			; (37ED)
387F:334B			loc_431:					;  xref 387F:3343
387F:334B ˙BB 1114				mov	bx,offset data_161	; (3D48:1114=6)
387F:334E  2C 20				sub	al,20h			; ' '
387F:3350  3C 58				cmp	al,58h			; 'X'
387F:3352  77 05				ja	loc_432			; Jump if above
387F:3354  D7					xlat				; al=[al+[bx]] table
387F:3355  24 0F				and	al,0Fh
387F:3357  EB 02				jmp	short loc_433		; (335B)
387F:3359			loc_432:					;  xref 387F:3352
387F:3359  B0 00				mov	al,0
387F:335B			loc_433:					;  xref 387F:3357
387F:335B  B1 03				mov	cl,3
387F:335D  D2 E0				shl	al,cl			; Shift w/zeros fill
387F:335F  02 46 FB				add	al,[bp-5]
387F:3362  D7					xlat				; al=[al+[bx]] table
387F:3363  FE C1				inc	cl
387F:3365  D2 E8				shr	al,cl			; Shift w/zeros fill
387F:3367  88 46 FB				mov	[bp-5],al
387F:336A  98					cbw				; Convrt byte to word
387F:336B  8B D8				mov	bx,ax
387F:336D  D1 E3				shl	bx,1			; Shift w/zeros fill
387F:336F  2E: FF A7 330E			jmp	word ptr cs:data_10[bx]	;*(387F:330E=3374h)  8 entries

				;ƒƒƒƒƒ Indexed Entry Point ƒƒƒƒƒƒƒƒƒƒƒƒƒƒƒƒƒƒƒƒƒƒƒƒƒƒƒƒƒƒƒƒƒƒƒƒƒƒƒƒƒƒƒƒƒƒƒƒ

387F:3374			loc_434:					;  xref 387F:330E, 336F
387F:3374  8A 56 FE				mov	dl,[bp-2]
387F:3377  B9 0001				mov	cx,1
387F:337A  E8 0423				call	sub_109			; (37A0)
387F:337D  EB B2				jmp	short loc_429		; (3331)

				;ƒƒƒƒƒ Indexed Entry Point ƒƒƒƒƒƒƒƒƒƒƒƒƒƒƒƒƒƒƒƒƒƒƒƒƒƒƒƒƒƒƒƒƒƒƒƒƒƒƒƒƒƒƒƒƒƒƒƒ

387F:337F			loc_435:					;  xref 387F:3310, 336F
387F:337F  33 C0				xor	ax,ax			; Zero register
387F:3381  89 46 F0				mov	[bp-10h],ax
387F:3384  89 46 F6				mov	[bp-0Ah],ax
387F:3387  89 46 EE				mov	[bp-12h],ax
387F:338A  89 46 FC				mov	[bp-4],ax
387F:338D  48					dec	ax
387F:338E  89 46 F4				mov	[bp-0Ch],ax
387F:3391  EB 9E				jmp	short loc_429		; (3331)

				;ƒƒƒƒƒ Indexed Entry Point ƒƒƒƒƒƒƒƒƒƒƒƒƒƒƒƒƒƒƒƒƒƒƒƒƒƒƒƒƒƒƒƒƒƒƒƒƒƒƒƒƒƒƒƒƒƒƒƒ
           ml.lst          Copyright (C) 1986-1991 Phar Lap	Sourcer	v8.01   7-Sep-2022 10:02 am   Page 124


387F:3393			loc_436:					;  xref 387F:3312, 336F
387F:3393  8A 46 FE				mov	al,[bp-2]
387F:3396  3C 2D				cmp	al,2Dh			; '-'
387F:3398  75 06				jne	loc_437			; Jump if not equal
387F:339A  80 4E FC 04				or	byte ptr [bp-4],4
387F:339E  EB 91				jmp	short loc_429		; (3331)
387F:33A0			loc_437:					;  xref 387F:3398
387F:33A0  3C 2B				cmp	al,2Bh			; '+'
387F:33A2  75 06				jne	loc_438			; Jump if not equal
387F:33A4  80 4E FC 01				or	byte ptr [bp-4],1
387F:33A8  EB 87				jmp	short loc_429		; (3331)
387F:33AA			loc_438:					;  xref 387F:33A2
387F:33AA  3C 20				cmp	al,20h			; ' '
387F:33AC  75 07				jne	loc_439			; Jump if not equal
387F:33AE  80 4E FC 02				or	byte ptr [bp-4],2
387F:33B2  E9 FF7C				jmp	loc_429			; (3331)
387F:33B5			loc_439:					;  xref 387F:33AC
387F:33B5  3C 23				cmp	al,23h			; '#'
387F:33B7  75 07				jne	loc_440			; Jump if not equal
387F:33B9  80 4E FC 80				or	byte ptr [bp-4],80h
387F:33BD  E9 FF71				jmp	loc_429			; (3331)
387F:33C0			loc_440:					;  xref 387F:33B7
387F:33C0  80 4E FC 08				or	byte ptr [bp-4],8
387F:33C4  E9 FF6A				jmp	loc_429			; (3331)

				;ƒƒƒƒƒ Indexed Entry Point ƒƒƒƒƒƒƒƒƒƒƒƒƒƒƒƒƒƒƒƒƒƒƒƒƒƒƒƒƒƒƒƒƒƒƒƒƒƒƒƒƒƒƒƒƒƒƒƒ

387F:33C7			loc_441:					;  xref 387F:3314, 336F
387F:33C7  8A 4E FE				mov	cl,[bp-2]
387F:33CA  80 F9 2A				cmp	cl,2Ah			; '*'
387F:33CD  75 0F				jne	loc_442			; Jump if not equal
387F:33CF  E8 0356				call	sub_104			; (3728)
387F:33D2  0B C0				or	ax,ax			; Zero ?
387F:33D4  79 17				jns	loc_443			; Jump if not sign
387F:33D6  F7 D8				neg	ax
387F:33D8  80 4E FC 04				or	byte ptr [bp-4],4
387F:33DC  EB 0F				jmp	short loc_443		; (33ED)
387F:33DE			loc_442:					;  xref 387F:33CD
387F:33DE  80 E9 30				sub	cl,30h			; '0'
387F:33E1  32 ED				xor	ch,ch			; Zero register
387F:33E3  8B 46 F6				mov	ax,[bp-0Ah]
387F:33E6  BB 000A				mov	bx,0Ah
387F:33E9  F7 E3				mul	bx			; dx:ax = reg * ax
387F:33EB  03 C1				add	ax,cx
387F:33ED			loc_443:					;  xref 387F:33D4, 33DC
387F:33ED  89 46 F6				mov	[bp-0Ah],ax
387F:33F0  E9 FF3E				jmp	loc_429			; (3331)

				;ƒƒƒƒƒ Indexed Entry Point ƒƒƒƒƒƒƒƒƒƒƒƒƒƒƒƒƒƒƒƒƒƒƒƒƒƒƒƒƒƒƒƒƒƒƒƒƒƒƒƒƒƒƒƒƒƒƒƒ

387F:33F3			loc_444:					;  xref 387F:3316, 336F
387F:33F3  C7 46 F4 0000			mov	word ptr [bp-0Ch],0
387F:33F8  E9 FF36				jmp	loc_429			; (3331)

				;ƒƒƒƒƒ Indexed Entry Point ƒƒƒƒƒƒƒƒƒƒƒƒƒƒƒƒƒƒƒƒƒƒƒƒƒƒƒƒƒƒƒƒƒƒƒƒƒƒƒƒƒƒƒƒƒƒƒƒ

           ml.lst          Copyright (C) 1986-1991 Phar Lap	Sourcer	v8.01   7-Sep-2022 10:02 am   Page 125

387F:33FB			loc_445:					;  xref 387F:3318, 336F
387F:33FB  8A 4E FE				mov	cl,[bp-2]
387F:33FE  80 F9 2A				cmp	cl,2Ah			; '*'
387F:3401  75 0C				jne	loc_446			; Jump if not equal
387F:3403  E8 0322				call	sub_104			; (3728)
387F:3406  0B C0				or	ax,ax			; Zero ?
387F:3408  79 14				jns	loc_447			; Jump if not sign
387F:340A  B8 FFFF				mov	ax,0FFFFh
387F:340D  EB 0F				jmp	short loc_447		; (341E)
387F:340F			loc_446:					;  xref 387F:3401
387F:340F  80 E9 30				sub	cl,30h			; '0'
387F:3412  32 ED				xor	ch,ch			; Zero register
387F:3414  8B 46 F4				mov	ax,[bp-0Ch]
387F:3417  BB 000A				mov	bx,0Ah
387F:341A  F7 E3				mul	bx			; dx:ax = reg * ax
387F:341C  03 C1				add	ax,cx
387F:341E			loc_447:					;  xref 387F:3408, 340D
387F:341E  89 46 F4				mov	[bp-0Ch],ax
387F:3421  E9 FF0D				jmp	loc_429			; (3331)

				;ƒƒƒƒƒ Indexed Entry Point ƒƒƒƒƒƒƒƒƒƒƒƒƒƒƒƒƒƒƒƒƒƒƒƒƒƒƒƒƒƒƒƒƒƒƒƒƒƒƒƒƒƒƒƒƒƒƒƒ

387F:3424			loc_448:					;  xref 387F:331A, 336F
387F:3424  8A 46 FE				mov	al,[bp-2]
387F:3427  3C 6C				cmp	al,6Ch			; 'l'
387F:3429  75 06				jne	loc_449			; Jump if not equal
387F:342B  80 4E FC 10				or	byte ptr [bp-4],10h
387F:342F  EB 22				jmp	short loc_453		; (3453)
387F:3431			loc_449:					;  xref 387F:3429
387F:3431  3C 46				cmp	al,46h			; 'F'
387F:3433  75 06				jne	loc_450			; Jump if not equal
387F:3435  80 4E FC 20				or	byte ptr [bp-4],20h	; ' '
387F:3439  EB 18				jmp	short loc_453		; (3453)
387F:343B			loc_450:					;  xref 387F:3433
387F:343B  3C 4E				cmp	al,4Eh			; 'N'
387F:343D  75 06				jne	loc_451			; Jump if not equal
387F:343F  80 4E FD 10				or	byte ptr [bp-3],10h
387F:3443  EB 0E				jmp	short loc_453		; (3453)
387F:3445			loc_451:					;  xref 387F:343D
387F:3445  3C 4C				cmp	al,4Ch			; 'L'
387F:3447  75 06				jne	loc_452			; Jump if not equal
387F:3449  80 4E FD 04				or	byte ptr [bp-3],4
387F:344D  EB 04				jmp	short loc_453		; (3453)
387F:344F			loc_452:					;  xref 387F:3447
387F:344F  80 4E FD 08				or	byte ptr [bp-3],8
387F:3453			loc_453:					;  xref 387F:342F, 3439, 3443, 344D
387F:3453  E9 FEDB				jmp	loc_429			; (3331)

				;ƒƒƒƒƒ Indexed Entry Point ƒƒƒƒƒƒƒƒƒƒƒƒƒƒƒƒƒƒƒƒƒƒƒƒƒƒƒƒƒƒƒƒƒƒƒƒƒƒƒƒƒƒƒƒƒƒƒƒ

387F:3456			loc_454:					;  xref 387F:331C, 336F
387F:3456  8A 46 FE				mov	al,[bp-2]
387F:3459  3C 64				cmp	al,64h			; 'd'
387F:345B  75 03				jne	loc_455			; Jump if not equal
387F:345D  E9 018E				jmp	loc_481			; (35EE)
387F:3460			loc_455:					;  xref 387F:345B
387F:3460  3C 69				cmp	al,69h			; 'i'
           ml.lst          Copyright (C) 1986-1991 Phar Lap	Sourcer	v8.01   7-Sep-2022 10:02 am   Page 126

387F:3462  75 03				jne	loc_456			; Jump if not equal
387F:3464  E9 0187				jmp	loc_481			; (35EE)
387F:3467			loc_456:					;  xref 387F:3462
387F:3467  3C 75				cmp	al,75h			; 'u'
387F:3469  75 03				jne	loc_457			; Jump if not equal
387F:346B  E9 0184				jmp	loc_482			; (35F2)
387F:346E			loc_457:					;  xref 387F:3469
387F:346E  3C 58				cmp	al,58h			; 'X'
387F:3470  75 03				jne	loc_458			; Jump if not equal
387F:3472  E9 0183				jmp	loc_483			; (35F8)
387F:3475			loc_458:					;  xref 387F:3470
387F:3475  3C 78				cmp	al,78h			; 'x'
387F:3477  75 03				jne	loc_459			; Jump if not equal
387F:3479  E9 0182				jmp	loc_484			; (35FE)
387F:347C			loc_459:					;  xref 387F:3477
387F:347C  3C 6F				cmp	al,6Fh			; 'o'
387F:347E  75 03				jne	loc_460			; Jump if not equal
387F:3480  E9 019C				jmp	loc_487			; (361F)
387F:3483			loc_460:					;  xref 387F:347E
387F:3483  3C 63				cmp	al,63h			; 'c'
387F:3485  74 1A				je	loc_462			; Jump if equal
387F:3487  3C 73				cmp	al,73h			; 's'
387F:3489  74 27				je	loc_463			; Jump if equal
387F:348B  3C 6E				cmp	al,6Eh			; 'n'
387F:348D  74 51				je	loc_466			; Jump if equal
387F:348F  3C 70				cmp	al,70h			; 'p'
387F:3491  74 60				je	loc_468			; Jump if equal
387F:3493  3C 45				cmp	al,45h			; 'E'
387F:3495  74 07				je	loc_461			; Jump if equal
387F:3497  3C 47				cmp	al,47h			; 'G'
387F:3499  74 03				je	loc_461			; Jump if equal
387F:349B  E9 00BB				jmp	loc_473			; (3559)
387F:349E			loc_461:					;  xref 387F:3495, 3499
387F:349E  E9 00B5				jmp	loc_472			; (3556)
387F:34A1			loc_462:					;  xref 387F:3485
387F:34A1  E8 0284				call	sub_104			; (3728)
387F:34A4 ˙8D BE FE8F				lea	di,[bp-171h]		; Load effective addr
387F:34A8  16					push	ss
387F:34A9  07					pop	es
387F:34AA  AA					stosb				; Store al to es:[di]
387F:34AB  4F					dec	di
387F:34AC  B9 0001				mov	cx,1
387F:34AF  E9 01EB				jmp	loc_499			; (369D)
387F:34B2			loc_463:					;  xref 387F:3489
387F:34B2  E8 0287				call	sub_106			; (373C)
387F:34B5  0B FF				or	di,di			; Zero ?
387F:34B7  75 12				jnz	loc_464			; Jump if not zero
387F:34B9  8C C0				mov	ax,es
387F:34BB  0B C0				or	ax,ax			; Zero ?
387F:34BD  75 0C				jnz	loc_464			; Jump if not zero
387F:34BF  1E					push	ds
387F:34C0  07					pop	es
387F:34C1 ˙BF 116D				mov	di,offset data_162	; (3D48:116D=28h)
387F:34C4  8B 0E 1173				mov	cx,data_163		; (3D48:1173=6)
387F:34C8  E9 01D2				jmp	loc_499			; (369D)
387F:34CB			loc_464:					;  xref 387F:34B7, 34BD
387F:34CB  57					push	di
           ml.lst          Copyright (C) 1986-1991 Phar Lap	Sourcer	v8.01   7-Sep-2022 10:02 am   Page 127

387F:34CC  8B 4E F4				mov	cx,[bp-0Ch]
387F:34CF  E3 07				jcxz	loc_465			; Jump if cx=0
387F:34D1  32 C0				xor	al,al			; Zero register
387F:34D3  F2/ AE				repne	scasb			; Rep zf=0+cx >0 Scan es:[di] for al
387F:34D5  75 01				jnz	loc_465			; Jump if not zero
387F:34D7  4F					dec	di
387F:34D8			loc_465:					;  xref 387F:34CF, 34D5
387F:34D8  59					pop	cx
387F:34D9  2B F9				sub	di,cx
387F:34DB  87 CF				xchg	cx,di
387F:34DD  E9 01BD				jmp	loc_499			; (369D)
387F:34E0			loc_466:					;  xref 387F:348D
387F:34E0  E8 0259				call	sub_106			; (373C)
387F:34E3  8B 46 F8				mov	ax,[bp-8]
387F:34E6  AB					stosw				; Store ax to es:[di]
387F:34E7  F6 46 FC 10				test	byte ptr [bp-4],10h
387F:34EB  74 03				jz	loc_467			; Jump if zero
387F:34ED  33 C0				xor	ax,ax			; Zero register
387F:34EF  AB					stosw				; Store ax to es:[di]
387F:34F0			loc_467:					;  xref 387F:34EB
387F:34F0  E9 FE3E				jmp	loc_429			; (3331)
387F:34F3			loc_468:					;  xref 387F:3491
387F:34F3  F6 46 FC 30				test	byte ptr [bp-4],30h	; '0'
387F:34F7  75 05				jnz	loc_469			; Jump if not zero
387F:34F9  E8 022C				call	sub_104			; (3728)
387F:34FC  EB 39				jmp	short loc_470		; (3537)
387F:34FE			loc_469:					;  xref 387F:34F7
387F:34FE  E8 022F				call	sub_105			; (3730)
387F:3501  F6 46 FD 18				test	byte ptr [bp-3],18h
387F:3505  75 30				jnz	loc_470			; Jump if not zero
387F:3507  C6 46 FF 07				mov	byte ptr [bp-1],7
387F:350B  B9 0010				mov	cx,10h
387F:350E  16					push	ss
387F:350F  07					pop	es
387F:3510  52					push	dx
387F:3511  33 D2				xor	dx,dx			; Zero register
387F:3513 ˙8D BE FE97				lea	di,[bp-169h]		; Load effective addr
387F:3517  BE 0004				mov	si,4
387F:351A  E8 029F				call	sub_110			; (37BC)
387F:351D  B9 0010				mov	cx,10h
387F:3520 ˙8D BE FE92				lea	di,[bp-16Eh]		; Load effective addr
387F:3524  58					pop	ax
387F:3525  33 D2				xor	dx,dx			; Zero register
387F:3527  BE 0004				mov	si,4
387F:352A  E8 028F				call	sub_110			; (37BC)
387F:352D  C6 86 FE93 3A			mov	byte ptr [bp-16Dh],3Ah	; ':'
387F:3532  B9 0009				mov	cx,9
387F:3535  EB 18				jmp	short loc_471		; (354F)
387F:3537			loc_470:					;  xref 387F:34FC, 3505
387F:3537  C6 46 FF 07				mov	byte ptr [bp-1],7
387F:353B  B9 0010				mov	cx,10h
387F:353E  16					push	ss
387F:353F  07					pop	es
387F:3540  33 D2				xor	dx,dx			; Zero register
387F:3542 ˙8D BE FE92				lea	di,[bp-16Eh]		; Load effective addr
387F:3546  BE 0004				mov	si,4
387F:3549  E8 0270				call	sub_110			; (37BC)
           ml.lst          Copyright (C) 1986-1991 Phar Lap	Sourcer	v8.01   7-Sep-2022 10:02 am   Page 128

387F:354C  B9 0004				mov	cx,4
387F:354F			loc_471:					;  xref 387F:3535
387F:354F  8D BE FE8F				lea	di,cs:[0FE8Fh][bp]	; Load effective addr
387F:3553  E9 0147				jmp	loc_499			; (369D)
387F:3556			loc_472:					;  xref 387F:349E
387F:3556  FF 46 EE				inc	word ptr [bp-12h]
387F:3559			loc_473:					;  xref 387F:349B
387F:3559  80 4E FC 40				or	byte ptr [bp-4],40h	; '@'
387F:355D  8A 46 FE				mov	al,[bp-2]
387F:3560  0C 20				or	al,20h			; ' '
387F:3562  98					cbw				; Convrt byte to word
387F:3563  8B F0				mov	si,ax
387F:3565  83 7E F4 00				cmp	word ptr [bp-0Ch],0
387F:3569  7F 13				jg	loc_475			; Jump if >
387F:356B  74 07				jz	loc_474			; Jump if zero
387F:356D  C7 46 F4 0006			mov	word ptr [bp-0Ch],6
387F:3572  EB 0A				jmp	short loc_475		; (357E)
387F:3574			loc_474:					;  xref 387F:356B
387F:3574  3D 0067				cmp	ax,67h
387F:3577  75 05				jne	loc_475			; Jump if not equal
387F:3579  C7 46 F4 0001			mov	word ptr [bp-0Ch],1
387F:357E			loc_475:					;  xref 387F:3569, 3572, 3577
387F:357E ˙8D BE FE8F				lea	di,[bp-171h]		; Load effective addr
387F:3582  FF 76 EE				push	word ptr [bp-12h]
387F:3585  FF 76 F4				push	word ptr [bp-0Ch]
387F:3588  56					push	si
387F:3589  57					push	di
387F:358A  FF 76 08				push	word ptr [bp+8]
387F:358D  F6 46 FD 04				test	byte ptr [bp-3],4
387F:3591  74 0A				jz	loc_476			; Jump if zero
387F:3593  FF 16 11A6				call	word ptr data_172	; (3D48:11A6=2C2Ch)
387F:3597  83 46 08 0A				add	word ptr [bp+8],0Ah
387F:359B  EB 08				jmp	short loc_477		; (35A5)
387F:359D			loc_476:					;  xref 387F:3591
387F:359D  FF 16 119C				call	word ptr data_168	; (3D48:119C=2C2Ch)
387F:35A1  83 46 08 08				add	word ptr [bp+8],8
387F:35A5			loc_477:					;  xref 387F:359B
387F:35A5  83 C4 0A				add	sp,0Ah
387F:35A8  F6 46 FC 80				test	byte ptr [bp-4],80h
387F:35AC  74 0E				jz	loc_478			; Jump if zero
387F:35AE  83 7E F4 00				cmp	word ptr [bp-0Ch],0
387F:35B2  75 08				jne	loc_478			; Jump if not equal
387F:35B4  57					push	di
387F:35B5  FF 16 11A2				call	word ptr data_171	; (3D48:11A2=2C2Ch)
387F:35B9  83 C4 02				add	sp,2
387F:35BC			loc_478:					;  xref 387F:35AC, 35B2
387F:35BC  83 FE 67				cmp	si,67h
387F:35BF  75 0F				jne	loc_479			; Jump if not equal
387F:35C1  F7 46 FC 0080			test	word ptr [bp-4],80h
387F:35C6  75 08				jnz	loc_479			; Jump if not zero
387F:35C8  57					push	di
387F:35C9  FF 16 119E				call	word ptr data_170	; (3D48:119E=2C2Ch)
387F:35CD  83 C4 02				add	sp,2
387F:35D0			loc_479:					;  xref 387F:35BF, 35C6
387F:35D0  16					push	ss
387F:35D1  07					pop	es
387F:35D2  26: 80 3D 2D				cmp	byte ptr es:[di],2Dh	; '-'
           ml.lst          Copyright (C) 1986-1991 Phar Lap	Sourcer	v8.01   7-Sep-2022 10:02 am   Page 129

387F:35D6  75 05				jne	loc_480			; Jump if not equal
387F:35D8  47					inc	di
387F:35D9  80 4E FD 01				or	byte ptr [bp-3],1
387F:35DD			loc_480:					;  xref 387F:35D6
387F:35DD  B9 FFFF				mov	cx,0FFFFh
387F:35E0  57					push	di
387F:35E1  B0 00				mov	al,0
387F:35E3  F2/ AE				repne	scasb			; Rep zf=0+cx >0 Scan es:[di] for al
387F:35E5  4F					dec	di
387F:35E6  59					pop	cx
387F:35E7  2B F9				sub	di,cx
387F:35E9  87 CF				xchg	cx,di
387F:35EB  E9 00AF				jmp	loc_499			; (369D)
387F:35EE			loc_481:					;  xref 387F:345D, 3464
387F:35EE  80 4E FC 40				or	byte ptr [bp-4],40h	; '@'
387F:35F2			loc_482:					;  xref 387F:346B
387F:35F2  C6 46 FA 0A				mov	byte ptr [bp-6],0Ah
387F:35F6  EB 35				jmp	short loc_489		; (362D)
387F:35F8			loc_483:					;  xref 387F:3472
387F:35F8  C6 46 FF 07				mov	byte ptr [bp-1],7
387F:35FC  EB 04				jmp	short loc_485		; (3602)
387F:35FE			loc_484:					;  xref 387F:3479
387F:35FE  C6 46 FF 27				mov	byte ptr [bp-1],27h	; '''
387F:3602			loc_485:					;  xref 387F:35FC
387F:3602  F6 46 FC 80				test	byte ptr [bp-4],80h
387F:3606  74 11				jz	loc_486			; Jump if zero
387F:3608  C7 46 F0 0002			mov	word ptr [bp-10h],2
387F:360D  C6 46 F2 30				mov	byte ptr [bp-0Eh],30h	; '0'
387F:3611  B2 51				mov	dl,51h			; 'Q'
387F:3613  02 56 FF				add	dl,[bp-1]
387F:3616  88 56 F3				mov	[bp-0Dh],dl
387F:3619			loc_486:					;  xref 387F:3606
387F:3619  C6 46 FA 10				mov	byte ptr [bp-6],10h
387F:361D  EB 0E				jmp	short loc_489		; (362D)
387F:361F			loc_487:					;  xref 387F:3480
387F:361F  F6 46 FC 80				test	byte ptr [bp-4],80h
387F:3623  74 04				jz	loc_488			; Jump if zero
387F:3625  80 4E FD 02				or	byte ptr [bp-3],2
387F:3629			loc_488:					;  xref 387F:3623
387F:3629  C6 46 FA 08				mov	byte ptr [bp-6],8
387F:362D			loc_489:					;  xref 387F:35F6, 361D
387F:362D  F6 46 FC 10				test	byte ptr [bp-4],10h
387F:3631  74 05				jz	loc_490			; Jump if zero
387F:3633  E8 00FA				call	sub_105			; (3730)
387F:3636  EB 0E				jmp	short loc_492		; (3646)
387F:3638			loc_490:					;  xref 387F:3631
387F:3638  E8 00ED				call	sub_104			; (3728)
387F:363B  F6 46 FC 40				test	byte ptr [bp-4],40h	; '@'
387F:363F  74 03				jz	loc_491			; Jump if zero
387F:3641  99					cwd				; Word to double word
387F:3642  EB 02				jmp	short loc_492		; (3646)
387F:3644			loc_491:					;  xref 387F:363F
387F:3644  33 D2				xor	dx,dx			; Zero register
387F:3646			loc_492:					;  xref 387F:3636, 3642
387F:3646  F6 46 FC 40				test	byte ptr [bp-4],40h	; '@'
387F:364A  74 0F				jz	loc_493			; Jump if zero
387F:364C  0B D2				or	dx,dx			; Zero ?
           ml.lst          Copyright (C) 1986-1991 Phar Lap	Sourcer	v8.01   7-Sep-2022 10:02 am   Page 130

387F:364E  7D 0B				jge	loc_493			; Jump if > or =
387F:3650  80 4E FD 01				or	byte ptr [bp-3],1
387F:3654  F7 D8				neg	ax
387F:3656  83 D2 00				adc	dx,0
387F:3659  F7 DA				neg	dx
387F:365B			loc_493:					;  xref 387F:364A, 364E
387F:365B  83 7E F4 00				cmp	word ptr [bp-0Ch],0
387F:365F  7D 07				jge	loc_494			; Jump if > or =
387F:3661  C7 46 F4 0001			mov	word ptr [bp-0Ch],1
387F:3666  EB 04				jmp	short loc_495		; (366C)
387F:3668			loc_494:					;  xref 387F:365F
387F:3668  80 66 FC F7				and	byte ptr [bp-4],0F7h
387F:366C			loc_495:					;  xref 387F:3666
387F:366C  8B D8				mov	bx,ax
387F:366E  0B DA				or	bx,dx
387F:3670  75 05				jnz	loc_496			; Jump if not zero
387F:3672  C7 46 F0 0000			mov	word ptr [bp-10h],0
387F:3677			loc_496:					;  xref 387F:3670
387F:3677  8D 7E EB				lea	di,[bp-15h]		; Load effective addr
387F:367A  16					push	ss
387F:367B  07					pop	es
387F:367C  8A 4E FA				mov	cl,[bp-6]
387F:367F  32 ED				xor	ch,ch			; Zero register
387F:3681  8B 76 F4				mov	si,[bp-0Ch]
387F:3684  E8 0135				call	sub_110			; (37BC)
387F:3687  F6 46 FD 02				test	byte ptr [bp-3],2
387F:368B  74 0E				jz	loc_498			; Jump if zero
387F:368D  E3 06				jcxz	loc_497			; Jump if cx=0
387F:368F  26: 80 3D 30				cmp	byte ptr es:[di],30h	; '0'
387F:3693  74 06				je	loc_498			; Jump if equal
387F:3695			loc_497:					;  xref 387F:368D
387F:3695  4F					dec	di
387F:3696  26: C6 05 30				mov	byte ptr es:[di],30h	; '0'
387F:369A  41					inc	cx
387F:369B			loc_498:					;  xref 387F:368B, 3693
387F:369B  EB 00				jmp	short loc_499		; (369D)
387F:369D			loc_499:					;  xref 387F:34AF, 34C8, 34DD, 3553
										;            35EB, 369B
387F:369D  F6 46 FC 40				test	byte ptr [bp-4],40h	; '@'
387F:36A1  74 31				jz	loc_502			; Jump if zero
387F:36A3  F6 46 FD 01				test	byte ptr [bp-3],1
387F:36A7  74 0B				jz	loc_500			; Jump if zero
387F:36A9  C6 46 F2 2D				mov	byte ptr [bp-0Eh],2Dh	; '-'
387F:36AD  C7 46 F0 0001			mov	word ptr [bp-10h],1
387F:36B2  EB 20				jmp	short loc_502		; (36D4)
387F:36B4			loc_500:					;  xref 387F:36A7
387F:36B4  F6 46 FC 01				test	byte ptr [bp-4],1
387F:36B8  74 0B				jz	loc_501			; Jump if zero
387F:36BA  C6 46 F2 2B				mov	byte ptr [bp-0Eh],2Bh	; '+'
387F:36BE  C7 46 F0 0001			mov	word ptr [bp-10h],1
387F:36C3  EB 0F				jmp	short loc_502		; (36D4)
387F:36C5			loc_501:					;  xref 387F:36B8
387F:36C5  F6 46 FC 02				test	byte ptr [bp-4],2
387F:36C9  74 09				jz	loc_502			; Jump if zero
387F:36CB  C6 46 F2 20				mov	byte ptr [bp-0Eh],20h	; ' '
387F:36CF  C7 46 F0 0001			mov	word ptr [bp-10h],1
387F:36D4			loc_502:					;  xref 387F:36A1, 36B2, 36C3, 36C9
           ml.lst          Copyright (C) 1986-1991 Phar Lap	Sourcer	v8.01   7-Sep-2022 10:02 am   Page 131

387F:36D4  8B 46 F6				mov	ax,[bp-0Ah]
387F:36D7  2B C1				sub	ax,cx
387F:36D9  2B 46 F0				sub	ax,[bp-10h]
387F:36DC  7D 02				jge	loc_503			; Jump if > or =
387F:36DE  33 C0				xor	ax,ax			; Zero register
387F:36E0			loc_503:					;  xref 387F:36DC
387F:36E0  06					push	es
387F:36E1  57					push	di
387F:36E2  51					push	cx
387F:36E3  F6 46 FC 0C				test	byte ptr [bp-4],0Ch
387F:36E7  75 07				jnz	loc_504			; Jump if not zero
387F:36E9  8B C8				mov	cx,ax
387F:36EB  B2 20				mov	dl,20h			; ' '
387F:36ED  E8 00B0				call	sub_109			; (37A0)
387F:36F0			loc_504:					;  xref 387F:36E7
387F:36F0  50					push	ax
387F:36F1  16					push	ss
387F:36F2  07					pop	es
387F:36F3  8D 7E F2				lea	di,[bp-0Eh]		; Load effective addr
387F:36F6  8B 4E F0				mov	cx,[bp-10h]
387F:36F9  E8 0086				call	sub_108			; (3782)
387F:36FC  58					pop	ax
387F:36FD  F6 46 FC 08				test	byte ptr [bp-4],8
387F:3701  74 0D				jz	loc_505			; Jump if zero
387F:3703  F6 46 FC 04				test	byte ptr [bp-4],4
387F:3707  75 07				jnz	loc_505			; Jump if not zero
387F:3709  8B C8				mov	cx,ax
387F:370B  B2 30				mov	dl,30h			; '0'
387F:370D  E8 0090				call	sub_109			; (37A0)
387F:3710			loc_505:					;  xref 387F:3701, 3707
387F:3710  59					pop	cx
387F:3711  5F					pop	di
387F:3712  07					pop	es
387F:3713  50					push	ax
387F:3714  E8 006B				call	sub_108			; (3782)
387F:3717  58					pop	ax
387F:3718  F6 46 FC 04				test	byte ptr [bp-4],4
387F:371C  74 07				jz	loc_506			; Jump if zero
387F:371E  8B C8				mov	cx,ax
387F:3720  B2 20				mov	dl,20h			; ' '
387F:3722  E8 007B				call	sub_109			; (37A0)
387F:3725			loc_506:					;  xref 387F:371C
387F:3725  E9 FC09				jmp	loc_429			; (3331)
				sub_103		endp


				;ﬂﬂﬂﬂﬂﬂﬂﬂﬂﬂﬂﬂﬂﬂﬂﬂﬂﬂﬂﬂﬂﬂﬂﬂﬂﬂﬂﬂﬂﬂﬂﬂﬂﬂﬂﬂﬂﬂﬂﬂﬂﬂﬂﬂﬂﬂﬂﬂﬂﬂﬂﬂﬂﬂﬂﬂﬂﬂﬂﬂﬂﬂﬂﬂﬂﬂﬂﬂﬂﬂﬂﬂﬂﬂ
				;                              SUBROUTINE
				;
				;         Called from:   387F:33CF, 3403, 34A1, 34F9, 3638, 374A
				;‹‹‹‹‹‹‹‹‹‹‹‹‹‹‹‹‹‹‹‹‹‹‹‹‹‹‹‹‹‹‹‹‹‹‹‹‹‹‹‹‹‹‹‹‹‹‹‹‹‹‹‹‹‹‹‹‹‹‹‹‹‹‹‹‹‹‹‹‹‹‹‹‹‹

387F:3728			sub_104		proc	near
387F:3728  8B 76 08				mov	si,[bp+8]
387F:372B  AD					lodsw				; String [si] to ax
387F:372C  89 76 08				mov	[bp+8],si
387F:372F  C3					retn
           ml.lst          Copyright (C) 1986-1991 Phar Lap	Sourcer	v8.01   7-Sep-2022 10:02 am   Page 132

				sub_104		endp


				;ﬂﬂﬂﬂﬂﬂﬂﬂﬂﬂﬂﬂﬂﬂﬂﬂﬂﬂﬂﬂﬂﬂﬂﬂﬂﬂﬂﬂﬂﬂﬂﬂﬂﬂﬂﬂﬂﬂﬂﬂﬂﬂﬂﬂﬂﬂﬂﬂﬂﬂﬂﬂﬂﬂﬂﬂﬂﬂﬂﬂﬂﬂﬂﬂﬂﬂﬂﬂﬂﬂﬂﬂﬂﬂ
				;                              SUBROUTINE
				;
				;         Called from:   387F:34FE, 3633, 3742
				;‹‹‹‹‹‹‹‹‹‹‹‹‹‹‹‹‹‹‹‹‹‹‹‹‹‹‹‹‹‹‹‹‹‹‹‹‹‹‹‹‹‹‹‹‹‹‹‹‹‹‹‹‹‹‹‹‹‹‹‹‹‹‹‹‹‹‹‹‹‹‹‹‹‹

387F:3730			sub_105		proc	near
387F:3730  8B 76 08				mov	si,[bp+8]
387F:3733  AD					lodsw				; String [si] to ax
387F:3734  8B D0				mov	dx,ax
387F:3736  AD					lodsw				; String [si] to ax
387F:3737  92					xchg	dx,ax
387F:3738  89 76 08				mov	[bp+8],si
387F:373B  C3					retn
				sub_105		endp


				;ﬂﬂﬂﬂﬂﬂﬂﬂﬂﬂﬂﬂﬂﬂﬂﬂﬂﬂﬂﬂﬂﬂﬂﬂﬂﬂﬂﬂﬂﬂﬂﬂﬂﬂﬂﬂﬂﬂﬂﬂﬂﬂﬂﬂﬂﬂﬂﬂﬂﬂﬂﬂﬂﬂﬂﬂﬂﬂﬂﬂﬂﬂﬂﬂﬂﬂﬂﬂﬂﬂﬂﬂﬂﬂ
				;                              SUBROUTINE
				;
				;         Called from:   387F:34B2, 34E0
				;‹‹‹‹‹‹‹‹‹‹‹‹‹‹‹‹‹‹‹‹‹‹‹‹‹‹‹‹‹‹‹‹‹‹‹‹‹‹‹‹‹‹‹‹‹‹‹‹‹‹‹‹‹‹‹‹‹‹‹‹‹‹‹‹‹‹‹‹‹‹‹‹‹‹

387F:373C			sub_106		proc	near
387F:373C  F6 46 FC 20				test	byte ptr [bp-4],20h	; ' '
387F:3740  74 08				jz	loc_507			; Jump if zero
387F:3742  E8 FFEB				call	sub_105			; (3730)
387F:3745  8E C2				mov	es,dx
387F:3747  8B F8				mov	di,ax
387F:3749  C3					retn
387F:374A			loc_507:					;  xref 387F:3740
387F:374A  E8 FFDB				call	sub_104			; (3728)
387F:374D  8B F8				mov	di,ax
387F:374F  0B C0				or	ax,ax			; Zero ?
387F:3751  75 03				jnz	loc_508			; Jump if not zero
387F:3753  8E C0				mov	es,ax
387F:3755  C3					retn
387F:3756			loc_508:					;  xref 387F:3751
387F:3756  1E					push	ds
387F:3757  07					pop	es
387F:3758  C3					retn
				sub_106		endp


				;ﬂﬂﬂﬂﬂﬂﬂﬂﬂﬂﬂﬂﬂﬂﬂﬂﬂﬂﬂﬂﬂﬂﬂﬂﬂﬂﬂﬂﬂﬂﬂﬂﬂﬂﬂﬂﬂﬂﬂﬂﬂﬂﬂﬂﬂﬂﬂﬂﬂﬂﬂﬂﬂﬂﬂﬂﬂﬂﬂﬂﬂﬂﬂﬂﬂﬂﬂﬂﬂﬂﬂﬂﬂﬂ
				;                              SUBROUTINE
				;
				;         Called from:   387F:378E, 37AA
				;‹‹‹‹‹‹‹‹‹‹‹‹‹‹‹‹‹‹‹‹‹‹‹‹‹‹‹‹‹‹‹‹‹‹‹‹‹‹‹‹‹‹‹‹‹‹‹‹‹‹‹‹‹‹‹‹‹‹‹‹‹‹‹‹‹‹‹‹‹‹‹‹‹‹

387F:3759			sub_107		proc	near
387F:3759  98					cbw				; Convrt byte to word
387F:375A  57					push	di
387F:375B  8B 5E 04				mov	bx,[bp+4]
           ml.lst          Copyright (C) 1986-1991 Phar Lap	Sourcer	v8.01   7-Sep-2022 10:02 am   Page 133

387F:375E  FF 4F 02				dec	word ptr [bx+2]
387F:3761  78 0A				js	loc_511			; Jump if sign=1
387F:3763  8B 3F				mov	di,[bx]
387F:3765  FF 07				inc	word ptr [bx]
387F:3767  88 05				mov	[di],al
387F:3769			loc_509:					;  xref 387F:377E
387F:3769  33 C0				xor	ax,ax			; Zero register
387F:376B			loc_510:					;  xref 387F:3780
387F:376B ˙5F					pop	di
387F:376C  C3					retn
387F:376D			loc_511:					;  xref 387F:3761
387F:376D  06					push	es
387F:376E  51					push	cx
387F:376F  52					push	dx
387F:3770 ˙53					push	bx			; PARAMETER_2
387F:3771  50					push	ax			; PARAMETER_1
387F:3772  E8 F835				call	sub_96			; (2FAA)
387F:3775  83 C4 04				add	sp,4
387F:3778  5A					pop	dx
387F:3779  59					pop	cx
387F:377A  07					pop	es
387F:377B  3D FFFF				cmp	ax,0FFFFh
387F:377E  75 E9				jne	loc_509			; Jump if not equal
387F:3780  EB E9				jmp	short loc_510		; (376B)
				sub_107		endp


				;ﬂﬂﬂﬂﬂﬂﬂﬂﬂﬂﬂﬂﬂﬂﬂﬂﬂﬂﬂﬂﬂﬂﬂﬂﬂﬂﬂﬂﬂﬂﬂﬂﬂﬂﬂﬂﬂﬂﬂﬂﬂﬂﬂﬂﬂﬂﬂﬂﬂﬂﬂﬂﬂﬂﬂﬂﬂﬂﬂﬂﬂﬂﬂﬂﬂﬂﬂﬂﬂﬂﬂﬂﬂﬂ
				;                              SUBROUTINE
				;
				;         Called from:   387F:36F9, 3714
				;‹‹‹‹‹‹‹‹‹‹‹‹‹‹‹‹‹‹‹‹‹‹‹‹‹‹‹‹‹‹‹‹‹‹‹‹‹‹‹‹‹‹‹‹‹‹‹‹‹‹‹‹‹‹‹‹‹‹‹‹‹‹‹‹‹‹‹‹‹‹‹‹‹‹

387F:3782			sub_108		proc	near
387F:3782  E3 1B				jcxz	loc_ret_513		; Jump if cx=0
387F:3784  8B F7				mov	si,di
387F:3786  01 4E F8				add	[bp-8],cx
387F:3789 ˙57					push	di
387F:378A  33 FF				xor	di,di			; Zero register

387F:378C			locloop_512:					;  xref 387F:3793
387F:378C  26: AC				lods	byte ptr es:[si]	; String [si] to al
387F:378E  E8 FFC8				call	sub_107			; (3759)
387F:3791  0B F8				or	di,ax
387F:3793  E2 F7				loop	locloop_512		; Loop if cx > 0

387F:3795  0B FF				or	di,di			; Zero ?
387F:3797  5F					pop	di
387F:3798  74 05				jz	loc_ret_513		; Jump if zero
387F:379A  C7 46 F8 FFFF			mov	word ptr [bp-8],0FFFFh

387F:379F			loc_ret_513:					;  xref 387F:3782, 3798
387F:379F  C3					retn
				sub_108		endp


				;ﬂﬂﬂﬂﬂﬂﬂﬂﬂﬂﬂﬂﬂﬂﬂﬂﬂﬂﬂﬂﬂﬂﬂﬂﬂﬂﬂﬂﬂﬂﬂﬂﬂﬂﬂﬂﬂﬂﬂﬂﬂﬂﬂﬂﬂﬂﬂﬂﬂﬂﬂﬂﬂﬂﬂﬂﬂﬂﬂﬂﬂﬂﬂﬂﬂﬂﬂﬂﬂﬂﬂﬂﬂﬂ
           ml.lst          Copyright (C) 1986-1991 Phar Lap	Sourcer	v8.01   7-Sep-2022 10:02 am   Page 134

				;                              SUBROUTINE
				;
				;         Called from:   387F:337A, 36ED, 370D, 3722
				;‹‹‹‹‹‹‹‹‹‹‹‹‹‹‹‹‹‹‹‹‹‹‹‹‹‹‹‹‹‹‹‹‹‹‹‹‹‹‹‹‹‹‹‹‹‹‹‹‹‹‹‹‹‹‹‹‹‹‹‹‹‹‹‹‹‹‹‹‹‹‹‹‹‹

387F:37A0			sub_109		proc	near
387F:37A0  E3 19				jcxz	loc_ret_515		; Jump if cx=0
387F:37A2  01 4E F8				add	[bp-8],cx
387F:37A5 ˙57					push	di
387F:37A6  33 FF				xor	di,di			; Zero register

387F:37A8			locloop_514:					;  xref 387F:37AF
387F:37A8  8A C2				mov	al,dl
387F:37AA  E8 FFAC				call	sub_107			; (3759)
387F:37AD  0B F8				or	di,ax
387F:37AF  E2 F7				loop	locloop_514		; Loop if cx > 0

387F:37B1  0B FF				or	di,di			; Zero ?
387F:37B3  5F					pop	di
387F:37B4  74 05				jz	loc_ret_515		; Jump if zero
387F:37B6  C7 46 F8 FFFF			mov	word ptr [bp-8],0FFFFh

387F:37BB			loc_ret_515:					;  xref 387F:37A0, 37B4
387F:37BB  C3					retn
				sub_109		endp


				;ﬂﬂﬂﬂﬂﬂﬂﬂﬂﬂﬂﬂﬂﬂﬂﬂﬂﬂﬂﬂﬂﬂﬂﬂﬂﬂﬂﬂﬂﬂﬂﬂﬂﬂﬂﬂﬂﬂﬂﬂﬂﬂﬂﬂﬂﬂﬂﬂﬂﬂﬂﬂﬂﬂﬂﬂﬂﬂﬂﬂﬂﬂﬂﬂﬂﬂﬂﬂﬂﬂﬂﬂﬂﬂ
				;                              SUBROUTINE
				;
				;         Called from:   387F:351A, 352A, 3549, 3684
				;‹‹‹‹‹‹‹‹‹‹‹‹‹‹‹‹‹‹‹‹‹‹‹‹‹‹‹‹‹‹‹‹‹‹‹‹‹‹‹‹‹‹‹‹‹‹‹‹‹‹‹‹‹‹‹‹‹‹‹‹‹‹‹‹‹‹‹‹‹‹‹‹‹‹

387F:37BC			sub_110		proc	near
387F:37BC  FD					std				; Set direction flag
387F:37BD  57					push	di
387F:37BE  93					xchg	bx,ax
387F:37BF			loc_516:					;  xref 387F:37E5
387F:37BF ˙0B F6				or	si,si			; Zero ?
387F:37C1  7F 0A				jg	loc_517			; Jump if >
387F:37C3  0B DB				or	bx,bx			; Zero ?
387F:37C5  75 06				jnz	loc_517			; Jump if not zero
387F:37C7  0B D2				or	dx,dx			; Zero ?
387F:37C9  75 02				jnz	loc_517			; Jump if not zero
387F:37CB  EB 1A				jmp	short loc_519		; (37E7)
387F:37CD			loc_517:					;  xref 387F:37C1, 37C5, 37C9
387F:37CD  92					xchg	dx,ax
387F:37CE  33 D2				xor	dx,dx			; Zero register
387F:37D0  F7 F1				div	cx			; ax,dx rem=dx:ax/reg
387F:37D2  93					xchg	bx,ax
387F:37D3  F7 F1				div	cx			; ax,dx rem=dx:ax/reg
387F:37D5  92					xchg	dx,ax
387F:37D6  87 D3				xchg	dx,bx
387F:37D8  04 30				add	al,30h			; '0'
387F:37DA  3C 39				cmp	al,39h			; '9'
387F:37DC  76 03				jbe	loc_518			; Jump if below or =
387F:37DE  02 46 FF				add	al,[bp-1]
           ml.lst          Copyright (C) 1986-1991 Phar Lap	Sourcer	v8.01   7-Sep-2022 10:02 am   Page 135

387F:37E1			loc_518:					;  xref 387F:37DC
387F:37E1  AA					stosb				; Store al to es:[di]
387F:37E2  8B C2				mov	ax,dx
387F:37E4  4E					dec	si
387F:37E5  EB D8				jmp	short loc_516		; (37BF)
387F:37E7			loc_519:					;  xref 387F:37CB
387F:37E7  59					pop	cx
387F:37E8  2B CF				sub	cx,di
387F:37EA  47					inc	di
387F:37EB  FC					cld				; Clear direction
387F:37EC  C3					retn
				sub_110		endp

387F:37ED			loc_520:					;  xref 387F:3348
387F:37ED  5F					pop	di
387F:37EE  5E					pop	si
387F:37EF  8B E5				mov	sp,bp
387F:37F1  5D					pop	bp
387F:37F2  C3					retn
387F:37F3  00					db	0

				;ﬂﬂﬂﬂﬂﬂﬂﬂﬂﬂﬂﬂﬂﬂﬂﬂﬂﬂﬂﬂﬂﬂﬂﬂﬂﬂﬂﬂﬂﬂﬂﬂﬂﬂﬂﬂﬂﬂﬂﬂﬂﬂﬂﬂﬂﬂﬂﬂﬂﬂﬂﬂﬂﬂﬂﬂﬂﬂﬂﬂﬂﬂﬂﬂﬂﬂﬂﬂﬂﬂﬂﬂﬂﬂ
				;                              SUBROUTINE
				;
				;         Called from:   387F:2452
				;‹‹‹‹‹‹‹‹‹‹‹‹‹‹‹‹‹‹‹‹‹‹‹‹‹‹‹‹‹‹‹‹‹‹‹‹‹‹‹‹‹‹‹‹‹‹‹‹‹‹‹‹‹‹‹‹‹‹‹‹‹‹‹‹‹‹‹‹‹‹‹‹‹‹

387F:37F4			sub_111		proc	near
387F:37F4  57					push	di
387F:37F5  56					push	si
387F:37F6 ˙BE 0FCC				mov	si,offset data_152	; (3D48:0FCC=80h)
387F:37F9  2B FF				sub	di,di
387F:37FB  EB 04				jmp	short loc_522		; (3801)
387F:37FD  90					db	90h
387F:37FE			loc_521:					;  xref 387F:380B
387F:37FE  83 C6 08				add	si,8
387F:3801			loc_522:					;  xref 387F:37FB
387F:3801  39 36 110C				cmp	data_159,si		; (3D48:110C=1064h)
387F:3805  72 1C				jb	loc_523			; Jump if below
387F:3807  F6 44 06 83				test	byte ptr [si+6],83h
387F:380B  75 F1				jnz	loc_521			; Jump if not zero
387F:380D  C7 44 02 0000			mov	word ptr [si+2],0
387F:3812  C6 44 06 00				mov	byte ptr [si+6],0
387F:3816  2B C0				sub	ax,ax
387F:3818  89 44 04				mov	[si+4],ax
387F:381B  89 04				mov	[si],ax
387F:381D  C6 44 07 FF				mov	byte ptr [si+7],0FFh
387F:3821  8B FE				mov	di,si
387F:3823			loc_523:					;  xref 387F:3805
387F:3823  8B C7				mov	ax,di
387F:3825  5E					pop	si
387F:3826  5F					pop	di
387F:3827  C3					retn
				sub_111		endp


				;ﬂﬂﬂﬂﬂﬂﬂﬂﬂﬂﬂﬂﬂﬂﬂﬂﬂﬂﬂﬂﬂﬂﬂﬂﬂﬂﬂﬂﬂﬂﬂﬂﬂﬂﬂﬂﬂﬂﬂﬂﬂﬂﬂﬂﬂﬂﬂﬂﬂﬂﬂﬂﬂﬂﬂﬂﬂﬂﬂﬂﬂﬂﬂﬂﬂﬂﬂﬂﬂﬂﬂﬂﬂﬂ
           ml.lst          Copyright (C) 1986-1991 Phar Lap	Sourcer	v8.01   7-Sep-2022 10:02 am   Page 136

				;                              SUBROUTINE
				;
				;         Called from:   387F:23E3, 3C85, 3CDA
				;‹‹‹‹‹‹‹‹‹‹‹‹‹‹‹‹‹‹‹‹‹‹‹‹‹‹‹‹‹‹‹‹‹‹‹‹‹‹‹‹‹‹‹‹‹‹‹‹‹‹‹‹‹‹‹‹‹‹‹‹‹‹‹‹‹‹‹‹‹‹‹‹‹‹

387F:3828			sub_112		proc	near
387F:3828 ˙55					push	bp
387F:3829  8B EC				mov	bp,sp
387F:382B  8B 5E 04				mov	bx,[bp+4]
387F:382E  3B 1E 0E05				cmp	bx,data_131		; (3D48:0E05=14h)
387F:3832  72 06				jb	loc_524			; Jump if below
387F:3834  B8 0900				mov	ax,900h
387F:3837  F9					stc				; Set carry flag
387F:3838  EB 0B				jmp	short loc_525		; (3845)
387F:383A			loc_524:					;  xref 387F:3832
387F:383A  B4 3E				mov	ah,3Eh
387F:383C  CD 21				int	21h			; DOS Services  ah=function 3Eh
										;  close file, bx=file handle
387F:383E  72 05				jc	loc_525			; Jump if carry Set
387F:3840  C6 87 0E07 00			mov	byte ptr data_133[bx],0	; (3D48:0E07=81h)
387F:3845			loc_525:					;  xref 387F:3838, 383E
387F:3845  E9 F678				jmp	loc_369			; (2EC0)
				sub_112		endp


				;ﬂﬂﬂﬂﬂﬂﬂﬂﬂﬂﬂﬂﬂﬂﬂﬂﬂﬂﬂﬂﬂﬂﬂﬂﬂﬂﬂﬂﬂﬂﬂﬂﬂﬂﬂﬂﬂﬂﬂﬂﬂﬂﬂﬂﬂﬂﬂﬂﬂﬂﬂﬂﬂﬂﬂﬂﬂﬂﬂﬂﬂﬂﬂﬂﬂﬂﬂﬂﬂﬂﬂﬂﬂﬂ
				;                              SUBROUTINE
				;
				;         Called from:   387F:282A, 307A, 3AA8, 3B64, 3BAA, 3CB5
				;‹‹‹‹‹‹‹‹‹‹‹‹‹‹‹‹‹‹‹‹‹‹‹‹‹‹‹‹‹‹‹‹‹‹‹‹‹‹‹‹‹‹‹‹‹‹‹‹‹‹‹‹‹‹‹‹‹‹‹‹‹‹‹‹‹‹‹‹‹‹‹‹‹‹

387F:3848			sub_113		proc	near

				LOCAL_2		=	-4			; bp+0FFFCh
				LOCAL_1		=	-2			; bp+0FFFEh

387F:3848  55					push	bp
387F:3849  8B EC				mov	bp,sp
387F:384B  83 EC 04				sub	sp,4
387F:384E  8B 5E 04				mov	bx,[bp+4]
387F:3851  3B 1E 0E05				cmp	bx,data_131		; (3D48:0E05=14h)
387F:3855  72 05				jb	loc_526			; Jump if below
387F:3857  B8 0900				mov	ax,900h
387F:385A  EB 2A				jmp	short loc_528		; (3886)
387F:385C			loc_526:					;  xref 387F:3855
387F:385C  F7 46 08 8000			test	word ptr [bp+8],8000h
387F:3861  74 48				jz	loc_530			; Jump if zero
387F:3863  83 7E 0A 00				cmp	word ptr [bp+0Ah],0
387F:3867  74 1A				je	loc_527			; Jump if equal
387F:3869  33 C9				xor	cx,cx			; Zero register
387F:386B  8B D1				mov	dx,cx
387F:386D  B8 4201				mov	ax,4201h
387F:3870  CD 21				int	21h			; DOS Services  ah=function 42h
										;  move file ptr, bx=file handle
										;   al=method, cx,dx=offset
387F:3872  72 4B				jc	loc_531			; Jump if carry Set
387F:3874  F7 46 0A 0002			test	word ptr [bp+0Ah],2
           ml.lst          Copyright (C) 1986-1991 Phar Lap	Sourcer	v8.01   7-Sep-2022 10:02 am   Page 137

387F:3879  75 0E				jnz	loc_529			; Jump if not zero
387F:387B  03 46 06				add	ax,[bp+6]
387F:387E  13 56 08				adc	dx,[bp+8]
387F:3881  79 28				jns	loc_530			; Jump if not sign
387F:3883			loc_527:					;  xref 387F:3867, 38A9
387F:3883 ˙B8 1600				mov	ax,1600h
387F:3886			loc_528:					;  xref 387F:385A
387F:3886  F9					stc				; Set carry flag
387F:3887  EB 36				jmp	short loc_531		; (38BF)
387F:3889			loc_529:					;  xref 387F:3879
387F:3889  89 56 FE				mov	[bp+LOCAL_1],dx
387F:388C  89 46 FC				mov	[bp+LOCAL_2],ax
387F:388F  8B D1				mov	dx,cx
387F:3891  B8 4202				mov	ax,4202h
387F:3894  CD 21				int	21h			; DOS Services  ah=function 42h
										;  move file ptr, bx=file handle
										;   al=method, cx,dx=offset
387F:3896  03 46 06				add	ax,[bp+6]
387F:3899  13 56 08				adc	dx,[bp+8]
387F:389C  79 0D				jns	loc_530			; Jump if not sign
387F:389E  8B 4E FE				mov	cx,[bp+LOCAL_1]
387F:38A1  8B 56 FC				mov	dx,[bp+LOCAL_2]
387F:38A4  B8 4200				mov	ax,4200h
387F:38A7  CD 21				int	21h			; DOS Services  ah=function 42h
										;  move file ptr, bx=file handle
										;   al=method, cx,dx=offset
387F:38A9  EB D8				jmp	short loc_527		; (3883)
387F:38AB			loc_530:					;  xref 387F:3861, 3881, 389C
387F:38AB  8B 56 06				mov	dx,[bp+6]
387F:38AE  8B 4E 08				mov	cx,[bp+8]
387F:38B1  8A 46 0A				mov	al,[bp+0Ah]
387F:38B4  B4 42				mov	ah,42h
387F:38B6  CD 21				int	21h			; DOS Services  ah=function 42h
										;  move file ptr, bx=file handle
										;   al=method, cx,dx=offset
387F:38B8  72 05				jc	loc_531			; Jump if carry Set
387F:38BA  80 A7 0E07 FD			and	byte ptr data_133[bx],0FDh	; (3D48:0E07=81h)
387F:38BF			loc_531:					;  xref 387F:3872, 3887, 38B8
387F:38BF  E9 F613				jmp	loc_372			; (2ED5)
				sub_113		endp


				;ﬂﬂﬂﬂﬂﬂﬂﬂﬂﬂﬂﬂﬂﬂﬂﬂﬂﬂﬂﬂﬂﬂﬂﬂﬂﬂﬂﬂﬂﬂﬂﬂﬂﬂﬂﬂﬂﬂﬂﬂﬂﬂﬂﬂﬂﬂﬂﬂﬂﬂﬂﬂﬂﬂﬂﬂﬂﬂﬂﬂﬂﬂﬂﬂﬂﬂﬂﬂﬂﬂﬂﬂﬂﬂ
				;                              SUBROUTINE
				;
				;         Called from:   387F:2518, 2F59, 3C79
				;‹‹‹‹‹‹‹‹‹‹‹‹‹‹‹‹‹‹‹‹‹‹‹‹‹‹‹‹‹‹‹‹‹‹‹‹‹‹‹‹‹‹‹‹‹‹‹‹‹‹‹‹‹‹‹‹‹‹‹‹‹‹‹‹‹‹‹‹‹‹‹‹‹‹

387F:38C2			sub_114		proc	near

				PARAMETER_1	=	4			; bp+4
				PARAMETER_2	=	6			; bp+6
				PARAMETER_3	=	8			; bp+8
				PARAMETER_4	=	0Ah			; bp+0Ah
				LOCAL_1		=	-2			; bp+0FFFEh

387F:38C2  55					push	bp
           ml.lst          Copyright (C) 1986-1991 Phar Lap	Sourcer	v8.01   7-Sep-2022 10:02 am   Page 138

387F:38C3  8B EC				mov	bp,sp
387F:38C5  83 EC 02				sub	sp,2
387F:38C8  8B 5E 04				mov	bx,[bp+PARAMETER_1]
387F:38CB  3B 1E 0E05				cmp	bx,data_131		; (3D48:0E05=14h)
387F:38CF  72 06				jb	loc_532			; Jump if below
387F:38D1  F9					stc				; Set carry flag
387F:38D2  B8 0900				mov	ax,900h
387F:38D5  EB 68				jmp	short loc_540		; (393F)
387F:38D7			loc_532:					;  xref 387F:38CF
387F:38D7  33 C0				xor	ax,ax			; Zero register
387F:38D9  8B 4E 08				mov	cx,[bp+PARAMETER_3]
387F:38DC  E3 61				jcxz	loc_540			; Jump if cx=0
387F:38DE  F6 87 0E07 02			test	byte ptr data_133[bx],2	; (3D48:0E07=81h)
387F:38E3  75 5A				jnz	loc_540			; Jump if not zero
387F:38E5  81 3E 11CC D6D6			cmp	data_184,0D6D6h		; (3D48:11CC=0)
387F:38EB  75 04				jne	loc_533			; Jump if not equal
387F:38ED  FF 16 11CE				call	word ptr data_185	; (3D48:11CE=21CFh)
387F:38F1			loc_533:					;  xref 387F:38EB
387F:38F1  8B 4E 08				mov	cx,[bp+PARAMETER_3]
387F:38F4  8B 56 06				mov	dx,[bp+PARAMETER_2]
387F:38F7  B4 3F				mov	ah,3Fh
387F:38F9  CD 21				int	21h			; DOS Services  ah=function 3Fh
										;  read file, bx=file handle
										;   cx=bytes to ds:dx buffer
387F:38FB  73 04				jnc	loc_534			; Jump if carry=0
387F:38FD  B4 09				mov	ah,9
387F:38FF  EB 3E				jmp	short loc_540		; (393F)
387F:3901			loc_534:					;  xref 387F:38FB
387F:3901  F6 87 0E07 80			test	byte ptr data_133[bx],80h	; (3D48:0E07=81h)
387F:3906  74 37				jz	loc_540			; Jump if zero
387F:3908  80 A7 0E07 FB			and	byte ptr data_133[bx],0FBh	; (3D48:0E07=81h)
387F:390D  56					push	si
387F:390E  57					push	di
387F:390F  FC					cld				; Clear direction
387F:3910  8B F2				mov	si,dx
387F:3912  8B FA				mov	di,dx
387F:3914  8B C8				mov	cx,ax
387F:3916  E3 25				jcxz	loc_539			; Jump if cx=0
387F:3918  B4 0D				mov	ah,0Dh
387F:391A  80 3C 0A				cmp	byte ptr [si],0Ah
387F:391D  75 05				jne	locloop_535		; Jump if not equal
387F:391F  80 8F 0E07 04			or	byte ptr data_133[bx],4	; (3D48:0E07=81h)

387F:3924			locloop_535:					;  xref 387F:391D, 3937
387F:3924  AC					lodsb				; String [si] to al
387F:3925  3A C4				cmp	al,ah
387F:3927  74 19				je	loc_541			; Jump if equal
387F:3929  3C 1A				cmp	al,1Ah
387F:392B  75 07				jne	loc_536			; Jump if not equal
387F:392D  80 8F 0E07 02			or	byte ptr data_133[bx],2	; (3D48:0E07=81h)
387F:3932  EB 05				jmp	short loc_538		; (3939)
387F:3934			loc_536:					;  xref 387F:392B, 394C, 399C
387F:3934 ˙88 05				mov	[di],al
387F:3936  47					inc	di
387F:3937			loc_537:					;  xref 387F:394A, 39A1
387F:3937 ˙E2 EB				loop	locloop_535		; Loop if cx > 0

           ml.lst          Copyright (C) 1986-1991 Phar Lap	Sourcer	v8.01   7-Sep-2022 10:02 am   Page 139

387F:3939			loc_538:					;  xref 387F:3932
387F:3939  8B C7				mov	ax,di
387F:393B  2B C2				sub	ax,dx
387F:393D			loc_539:					;  xref 387F:3916, 3967, 3978
387F:393D  5F					pop	di
387F:393E  5E					pop	si
387F:393F			loc_540:					;  xref 387F:38D5, 38DC, 38E3, 38FF
										;            3906
387F:393F  E9 F593				jmp	loc_372			; (2ED5)
387F:3942			loc_541:					;  xref 387F:3927
387F:3942  83 F9 01				cmp	cx,1
387F:3945  74 07				je	loc_542			; Jump if equal
387F:3947  80 3C 0A				cmp	byte ptr [si],0Ah
387F:394A  74 EB				je	loc_537			; Jump if equal
387F:394C  EB E6				jmp	short loc_536		; (3934)
387F:394E			loc_542:					;  xref 387F:3945
387F:394E  F6 87 0E07 40			test	byte ptr data_133[bx],40h	; (3D48:0E07=81h) '@'
387F:3953  74 18				jz	loc_544			; Jump if zero
387F:3955  B8 4400				mov	ax,4400h
387F:3958  CD 21				int	21h			; DOS Services  ah=function 44h
										;  IOctl-0 get info dx, bx=handl
387F:395A  F7 C2 0020				test	dx,20h
387F:395E  75 09				jnz	loc_543			; Jump if not zero
387F:3960  8D 56 FF				lea	dx,[bp-1]		; Load effective addr
387F:3963  B4 3F				mov	ah,3Fh
387F:3965  CD 21				int	21h			; DOS Services  ah=function 3Fh
										;  read file, bx=file handle
										;   cx=bytes to ds:dx buffer
387F:3967  72 D4				jc	loc_539			; Jump if carry Set
387F:3969			loc_543:					;  xref 387F:395E, 39A9
387F:3969 ˙B0 0A				mov	al,0Ah
387F:396B  EB 2C				jmp	short loc_547		; (3999)
387F:396D			loc_544:					;  xref 387F:3953
387F:396D  C6 46 FF 00				mov	byte ptr [bp-1],0
387F:3971  8D 56 FF				lea	dx,[bp-1]		; Load effective addr
387F:3974  B4 3F				mov	ah,3Fh
387F:3976  CD 21				int	21h			; DOS Services  ah=function 3Fh
										;  read file, bx=file handle
										;   cx=bytes to ds:dx buffer
387F:3978  72 C3				jc	loc_539			; Jump if carry Set
387F:397A  0B C0				or	ax,ax			; Zero ?
387F:397C  74 19				jz	loc_546			; Jump if zero
387F:397E  83 7E 08 01				cmp	word ptr [bp+PARAMETER_3],1
387F:3982  74 1F				je	loc_549			; Jump if equal
387F:3984			loc_545:					;  xref 387F:39A7
387F:3984  B9 FFFF				mov	cx,0FFFFh
387F:3987  8B D1				mov	dx,cx
387F:3989  B8 4201				mov	ax,4201h
387F:398C  CD 21				int	21h			; DOS Services  ah=function 42h
										;  move file ptr, bx=file handle
										;   al=method, cx,dx=offset
387F:398E  B9 0001				mov	cx,1
387F:3991  80 7E FF 0A				cmp	byte ptr [bp-1],0Ah
387F:3995  74 07				je	loc_548			; Jump if equal
387F:3997			loc_546:					;  xref 387F:397C
387F:3997  B0 0D				mov	al,0Dh
387F:3999			loc_547:					;  xref 387F:396B
           ml.lst          Copyright (C) 1986-1991 Phar Lap	Sourcer	v8.01   7-Sep-2022 10:02 am   Page 140

387F:3999  8B 56 06				mov	dx,[bp+PARAMETER_2]
387F:399C  EB 96				jmp	short loc_536		; (3934)
387F:399E			loc_548:					;  xref 387F:3995
387F:399E  8B 56 06				mov	dx,[bp+PARAMETER_2]
387F:39A1  EB 94				jmp	short loc_537		; (3937)
387F:39A3			loc_549:					;  xref 387F:3982
387F:39A3  80 7E FF 0A				cmp	byte ptr [bp-1],0Ah
387F:39A7  75 DB				jne	loc_545			; Jump if not equal
387F:39A9  EB BE				jmp	short loc_543		; (3969)
				sub_114		endp

387F:39AB  00					db	0

				;ﬂﬂﬂﬂﬂﬂﬂﬂﬂﬂﬂﬂﬂﬂﬂﬂﬂﬂﬂﬂﬂﬂﬂﬂﬂﬂﬂﬂﬂﬂﬂﬂﬂﬂﬂﬂﬂﬂﬂﬂﬂﬂﬂﬂﬂﬂﬂﬂﬂﬂﬂﬂﬂﬂﬂﬂﬂﬂﬂﬂﬂﬂﬂﬂﬂﬂﬂﬂﬂﬂﬂﬂﬂﬂ
				;                              SUBROUTINE
				;
				;         Called from:   387F:43B7, 43CD
				;‹‹‹‹‹‹‹‹‹‹‹‹‹‹‹‹‹‹‹‹‹‹‹‹‹‹‹‹‹‹‹‹‹‹‹‹‹‹‹‹‹‹‹‹‹‹‹‹‹‹‹‹‹‹‹‹‹‹‹‹‹‹‹‹‹‹‹‹‹‹‹‹‹‹

387F:39AC			sub_115		proc	near

				PARAMETER_1	=	4			; bp+4

387F:39AC			loc_550:					;  xref 387F:25AA
387F:39AC  55					push	bp
387F:39AD  8B EC				mov	bp,sp
387F:39AF  56					push	si
387F:39B0  8B 5E 04				mov	bx,[bp+PARAMETER_1]
387F:39B3 ˙BE 0DC4				mov	si,offset data_120	; (3D48:0DC4=0)
387F:39B6  39 5C 06				cmp	[si+6],bx
387F:39B9  73 0D				jae	loc_551			; Jump if above or =
387F:39BB  4B					dec	bx
387F:39BC  4B					dec	bx
387F:39BD  80 0F 01				or	byte ptr [bx],1
387F:39C0  39 5C 08				cmp	[si+8],bx
387F:39C3  76 03				jbe	loc_551			; Jump if below or =
387F:39C5  89 5C 08				mov	[si+8],bx
387F:39C8			loc_551:					;  xref 387F:39B9, 39C3
387F:39C8  5E					pop	si
387F:39C9  8B E5				mov	sp,bp
387F:39CB  5D					pop	bp
387F:39CC  C3					retn
				sub_115		endp


				;ﬂﬂﬂﬂﬂﬂﬂﬂﬂﬂﬂﬂﬂﬂﬂﬂﬂﬂﬂﬂﬂﬂﬂﬂﬂﬂﬂﬂﬂﬂﬂﬂﬂﬂﬂﬂﬂﬂﬂﬂﬂﬂﬂﬂﬂﬂﬂﬂﬂﬂﬂﬂﬂﬂﬂﬂﬂﬂﬂﬂﬂﬂﬂﬂﬂﬂﬂﬂﬂﬂﬂﬂﬂﬂ
				;                              SUBROUTINE
				;
				;         Called from:   387F:439D, 43C6
				;‹‹‹‹‹‹‹‹‹‹‹‹‹‹‹‹‹‹‹‹‹‹‹‹‹‹‹‹‹‹‹‹‹‹‹‹‹‹‹‹‹‹‹‹‹‹‹‹‹‹‹‹‹‹‹‹‹‹‹‹‹‹‹‹‹‹‹‹‹‹‹‹‹‹

387F:39CD			sub_116		proc	near

				PARAMETER_1	=	4			; bp+4

387F:39CD			loc_552:					;  xref 387F:25A6
387F:39CD  55					push	bp
           ml.lst          Copyright (C) 1986-1991 Phar Lap	Sourcer	v8.01   7-Sep-2022 10:02 am   Page 141

387F:39CE  8B EC				mov	bp,sp
387F:39D0  56					push	si
387F:39D1  57					push	di
387F:39D2  8B 4E 04				mov	cx,[bp+PARAMETER_1]
387F:39D5  83 F9 E8				cmp	cx,0FFE8h
387F:39D8  77 12				ja	loc_553			; Jump if above
387F:39DA ˙BB 0DC4				mov	bx,offset data_120	; (3D48:0DC4=0)
387F:39DD  E8 081A				call	sub_133			; (41FA)
387F:39E0  73 0F				jnc	loc_554			; Jump if carry=0
387F:39E2  E8 0891				call	sub_134			; (4276)
387F:39E5  72 05				jc	loc_553			; Jump if carry Set
387F:39E7  E8 0810				call	sub_133			; (41FA)
387F:39EA  73 05				jnc	loc_554			; Jump if carry=0
387F:39EC			loc_553:					;  xref 387F:39D8, 39E5
387F:39EC  33 C0				xor	ax,ax			; Zero register
387F:39EE  99					cwd				; Word to double word
387F:39EF  EB 00				jmp	short loc_554		; (39F1)
387F:39F1			loc_554:					;  xref 387F:39E0, 39EA, 39EF
387F:39F1  5F					pop	di
387F:39F2  5E					pop	si
387F:39F3  5D					pop	bp
387F:39F4  C3					retn
				sub_116		endp

387F:39F5  00					db	0

				;ﬂﬂﬂﬂﬂﬂﬂﬂﬂﬂﬂﬂﬂﬂﬂﬂﬂﬂﬂﬂﬂﬂﬂﬂﬂﬂﬂﬂﬂﬂﬂﬂﬂﬂﬂﬂﬂﬂﬂﬂﬂﬂﬂﬂﬂﬂﬂﬂﬂﬂﬂﬂﬂﬂﬂﬂﬂﬂﬂﬂﬂﬂﬂﬂﬂﬂﬂﬂﬂﬂﬂﬂﬂﬂ
				;                              SUBROUTINE
				;
				;         Called from:   387F:29E2, 2A49, 2A90, 2ABC, 2AE4
				;‹‹‹‹‹‹‹‹‹‹‹‹‹‹‹‹‹‹‹‹‹‹‹‹‹‹‹‹‹‹‹‹‹‹‹‹‹‹‹‹‹‹‹‹‹‹‹‹‹‹‹‹‹‹‹‹‹‹‹‹‹‹‹‹‹‹‹‹‹‹‹‹‹‹

387F:39F6			sub_117		proc	near

				PARAMETER_1	=	4			; bp+4
				PARAMETER_2	=	6			; bp+6
				PARAMETER_3	=	8			; bp+8

387F:39F6  55					push	bp
387F:39F7  8B EC				mov	bp,sp
387F:39F9  57					push	di
387F:39FA  56					push	si
387F:39FB  1E					push	ds
387F:39FC  07					pop	es
387F:39FD  8B 7E 04				mov	di,[bp+PARAMETER_1]
387F:3A00  8B 76 06				mov	si,[bp+PARAMETER_2]
387F:3A03  8B DF				mov	bx,di
387F:3A05  8B 4E 08				mov	cx,[bp+PARAMETER_3]
387F:3A08  E3 0C				jcxz	loc_557			; Jump if cx=0

387F:3A0A			locloop_555:					;  xref 387F:3A10
387F:3A0A  AC					lodsb				; String [si] to al
387F:3A0B  0A C0				or	al,al			; Zero ?
387F:3A0D  74 03				jz	loc_556			; Jump if zero
387F:3A0F  AA					stosb				; Store al to es:[di]
387F:3A10  E2 F8				loop	locloop_555		; Loop if cx > 0

           ml.lst          Copyright (C) 1986-1991 Phar Lap	Sourcer	v8.01   7-Sep-2022 10:02 am   Page 142

387F:3A12			loc_556:					;  xref 387F:3A0D
387F:3A12  32 C0				xor	al,al			; Zero register
387F:3A14  F3/ AA				rep	stosb			; Rep when cx >0 Store al to es:[di]
387F:3A16			loc_557:					;  xref 387F:3A08
387F:3A16  8B C3				mov	ax,bx
387F:3A18  5E					pop	si
387F:3A19  5F					pop	di
387F:3A1A  8B E5				mov	sp,bp
387F:3A1C  5D					pop	bp
387F:3A1D  C3					retn
				sub_117		endp


				;ﬂﬂﬂﬂﬂﬂﬂﬂﬂﬂﬂﬂﬂﬂﬂﬂﬂﬂﬂﬂﬂﬂﬂﬂﬂﬂﬂﬂﬂﬂﬂﬂﬂﬂﬂﬂﬂﬂﬂﬂﬂﬂﬂﬂﬂﬂﬂﬂﬂﬂﬂﬂﬂﬂﬂﬂﬂﬂﬂﬂﬂﬂﬂﬂﬂﬂﬂﬂﬂﬂﬂﬂﬂﬂ
				;                              SUBROUTINE
				;
				;         Called from:   387F:2674
				;‹‹‹‹‹‹‹‹‹‹‹‹‹‹‹‹‹‹‹‹‹‹‹‹‹‹‹‹‹‹‹‹‹‹‹‹‹‹‹‹‹‹‹‹‹‹‹‹‹‹‹‹‹‹‹‹‹‹‹‹‹‹‹‹‹‹‹‹‹‹‹‹‹‹

387F:3A1E			sub_118		proc	near

				PARAMETER_1	=	4			; bp+4
				PARAMETER_2	=	6			; bp+6
				PARAMETER_3	=	8			; bp+8

387F:3A1E  55					push	bp
387F:3A1F  8B EC				mov	bp,sp
387F:3A21  57					push	di
387F:3A22  56					push	si
387F:3A23  1E					push	ds
387F:3A24  07					pop	es
387F:3A25  8B 4E 08				mov	cx,[bp+PARAMETER_3]
387F:3A28  E3 26				jcxz	loc_559			; Jump if cx=0
387F:3A2A  8B D9				mov	bx,cx
387F:3A2C  8B 7E 04				mov	di,[bp+PARAMETER_1]
387F:3A2F  8B F7				mov	si,di
387F:3A31  33 C0				xor	ax,ax			; Zero register
387F:3A33  F2/ AE				repne	scasb			; Rep zf=0+cx >0 Scan es:[di] for al
387F:3A35  F7 D9				neg	cx
387F:3A37  03 CB				add	cx,bx
387F:3A39  8B FE				mov	di,si
387F:3A3B  8B 76 06				mov	si,[bp+PARAMETER_2]
387F:3A3E  F3/ A6				repe	cmpsb			; Rep zf=1+cx >0 Cmp [si] to es:[di]
387F:3A40  8A 44 FF				mov	al,[si-1]
387F:3A43  33 C9				xor	cx,cx			; Zero register
387F:3A45  3A 45 FF				cmp	al,[di-1]
387F:3A48  77 04				ja	loc_558			; Jump if above
387F:3A4A  74 04				jz	loc_559			; Jump if zero
387F:3A4C  49					dec	cx
387F:3A4D  49					dec	cx
387F:3A4E			loc_558:					;  xref 387F:3A48
387F:3A4E  F7 D1				not	cx
387F:3A50			loc_559:					;  xref 387F:3A28, 3A4A
387F:3A50  8B C1				mov	ax,cx
387F:3A52  5E					pop	si
387F:3A53  5F					pop	di
387F:3A54  8B E5				mov	sp,bp
           ml.lst          Copyright (C) 1986-1991 Phar Lap	Sourcer	v8.01   7-Sep-2022 10:02 am   Page 143

387F:3A56  5D					pop	bp
387F:3A57  C3					retn
				sub_118		endp


				;ﬂﬂﬂﬂﬂﬂﬂﬂﬂﬂﬂﬂﬂﬂﬂﬂﬂﬂﬂﬂﬂﬂﬂﬂﬂﬂﬂﬂﬂﬂﬂﬂﬂﬂﬂﬂﬂﬂﬂﬂﬂﬂﬂﬂﬂﬂﬂﬂﬂﬂﬂﬂﬂﬂﬂﬂﬂﬂﬂﬂﬂﬂﬂﬂﬂﬂﬂﬂﬂﬂﬂﬂﬂﬂ
				;                              SUBROUTINE
				;
				;         Called from:   387F:242B
				;‹‹‹‹‹‹‹‹‹‹‹‹‹‹‹‹‹‹‹‹‹‹‹‹‹‹‹‹‹‹‹‹‹‹‹‹‹‹‹‹‹‹‹‹‹‹‹‹‹‹‹‹‹‹‹‹‹‹‹‹‹‹‹‹‹‹‹‹‹‹‹‹‹‹

387F:3A58			sub_119		proc	near

				PARAMETER_1	=	4			; bp+4
				PARAMETER_2	=	6			; bp+6
				PARAMETER_3	=	8			; bp+8

387F:3A58  55					push	bp
387F:3A59  8B EC				mov	bp,sp
387F:3A5B  56					push	si
387F:3A5C  57					push	di
387F:3A5D  B3 01				mov	bl,1
387F:3A5F  8B 4E 08				mov	cx,[bp+PARAMETER_3]
387F:3A62  8B 46 04				mov	ax,[bp+PARAMETER_1]
387F:3A65  33 D2				xor	dx,dx			; Zero register
387F:3A67  83 F9 0A				cmp	cx,0Ah
387F:3A6A  75 01				jne	loc_560			; Jump if not equal
387F:3A6C  99					cwd				; Word to double word
387F:3A6D			loc_560:					;  xref 387F:3A6A
387F:3A6D  8B 7E 06				mov	di,[bp+PARAMETER_2]
387F:3A70  E9 099D				jmp	loc_694			; (4410)
				sub_119		endp

387F:3A73  00					db	0

				;ﬂﬂﬂﬂﬂﬂﬂﬂﬂﬂﬂﬂﬂﬂﬂﬂﬂﬂﬂﬂﬂﬂﬂﬂﬂﬂﬂﬂﬂﬂﬂﬂﬂﬂﬂﬂﬂﬂﬂﬂﬂﬂﬂﬂﬂﬂﬂﬂﬂﬂﬂﬂﬂﬂﬂﬂﬂﬂﬂﬂﬂﬂﬂﬂﬂﬂﬂﬂﬂﬂﬂﬂﬂﬂ
				;                              SUBROUTINE
				;
				;         Called from:   387F:27F9
				;‹‹‹‹‹‹‹‹‹‹‹‹‹‹‹‹‹‹‹‹‹‹‹‹‹‹‹‹‹‹‹‹‹‹‹‹‹‹‹‹‹‹‹‹‹‹‹‹‹‹‹‹‹‹‹‹‹‹‹‹‹‹‹‹‹‹‹‹‹‹‹‹‹‹

387F:3A74			sub_120		proc	near

				PARAMETER_1	=	4			; bp+4
				LOCAL_7		=	-0Eh			; bp+0FFF2h
				LOCAL_6		=	-0Ch			; bp+0FFF4h
				LOCAL_5		=	-0Ah			; bp+0FFF6h
				LOCAL_4		=	-8			; bp+0FFF8h
				LOCAL_3		=	-6			; bp+0FFFAh
				LOCAL_2		=	-4			; bp+0FFFCh
				LOCAL_1		=	-2			; bp+0FFFEh

387F:3A74  55					push	bp
387F:3A75  8B EC				mov	bp,sp
387F:3A77  83 EC 0E				sub	sp,0Eh
387F:3A7A  57					push	di
387F:3A7B  56					push	si
           ml.lst          Copyright (C) 1986-1991 Phar Lap	Sourcer	v8.01   7-Sep-2022 10:02 am   Page 144

387F:3A7C  8B 76 04				mov	si,[bp+PARAMETER_1]
387F:3A7F  8B C6				mov	ax,si
387F:3A81  2D 0FCC				sub	ax,0FCCh
387F:3A84  05 106C				add	ax,106Ch
387F:3A87  89 46 F2				mov	[bp+LOCAL_7],ax
387F:3A8A  8A 44 07				mov	al,[si+7]
387F:3A8D  2A E4				sub	ah,ah
387F:3A8F  89 46 F6				mov	[bp+LOCAL_5],ax
387F:3A92  83 7C 02 00				cmp	word ptr [si+2],0
387F:3A96  7D 05				jge	loc_561			; Jump if > or =
387F:3A98  C7 44 02 0000			mov	word ptr [si+2],0
387F:3A9D			loc_561:					;  xref 387F:3A96
387F:3A9D  B8 0001				mov	ax,1
387F:3AA0  50					push	ax
387F:3AA1  2B C0				sub	ax,ax
387F:3AA3  50					push	ax
387F:3AA4  50					push	ax
387F:3AA5  FF 76 F6				push	word ptr [bp+LOCAL_5]
387F:3AA8  E8 FD9D				call	sub_113			; (3848)
387F:3AAB  83 C4 08				add	sp,8
387F:3AAE  89 46 FC				mov	[bp+LOCAL_2],ax
387F:3AB1  89 56 FE				mov	[bp+LOCAL_1],dx
387F:3AB4  0B D2				or	dx,dx			; Zero ?
387F:3AB6  7D 08				jge	loc_563			; Jump if > or =
387F:3AB8			loc_562:					;  xref 387F:3B2C
387F:3AB8 ˙B8 FFFF				mov	ax,0FFFFh
387F:3ABB  99					cwd				; Word to double word
387F:3ABC  E9 011F				jmp	loc_579			; (3BDE)
387F:3ABF  90					db	90h
387F:3AC0			loc_563:					;  xref 387F:3AB6
387F:3AC0  F6 44 06 08				test	byte ptr [si+6],8
387F:3AC4  75 1E				jnz	loc_564			; Jump if not zero
387F:3AC6  8B 5E F2				mov	bx,[bp+LOCAL_7]
387F:3AC9  F6 07 01				test	byte ptr [bx],1
387F:3ACC  75 16				jnz	loc_564			; Jump if not zero
387F:3ACE  8B 44 02				mov	ax,[si+2]
387F:3AD1  99					cwd				; Word to double word
387F:3AD2  8B C8				mov	cx,ax
387F:3AD4  8B DA				mov	bx,dx
387F:3AD6  8B 46 FC				mov	ax,[bp+LOCAL_2]
387F:3AD9  8B 56 FE				mov	dx,[bp+LOCAL_1]
387F:3ADC  2B C1				sub	ax,cx
387F:3ADE  1B D3				sbb	dx,bx
387F:3AE0  E9 00FB				jmp	loc_579			; (3BDE)
387F:3AE3  90					db	90h
387F:3AE4			loc_564:					;  xref 387F:3AC4, 3ACC
387F:3AE4  8B 04				mov	ax,[si]
387F:3AE6  2B 44 04				sub	ax,[si+4]
387F:3AE9  89 46 F8				mov	[bp+LOCAL_4],ax
387F:3AEC  F6 44 06 03				test	byte ptr [si+6],3
387F:3AF0  74 2E				jz	loc_569			; Jump if zero
387F:3AF2  8B 5E F6				mov	bx,[bp+LOCAL_5]
387F:3AF5  F6 87 0E07 80			test	byte ptr data_133[bx],80h	; (3D48:0E07=81h)
387F:3AFA  74 13				jz	loc_568			; Jump if zero
387F:3AFC  8B 7C 04				mov	di,[si+4]
387F:3AFF  EB 0A				jmp	short loc_567		; (3B0B)
387F:3B01  90					db	90h
           ml.lst          Copyright (C) 1986-1991 Phar Lap	Sourcer	v8.01   7-Sep-2022 10:02 am   Page 145

387F:3B02			loc_565:					;  xref 387F:3B0D
387F:3B02  80 3D 0A				cmp	byte ptr [di],0Ah
387F:3B05  75 03				jne	loc_566			; Jump if not equal
387F:3B07  FF 46 F8				inc	word ptr [bp+LOCAL_4]
387F:3B0A			loc_566:					;  xref 387F:3B05
387F:3B0A  47					inc	di
387F:3B0B			loc_567:					;  xref 387F:3AFF
387F:3B0B  39 3C				cmp	[si],di
387F:3B0D  77 F3				ja	loc_565			; Jump if above
387F:3B0F			loc_568:					;  xref 387F:3AFA, 3B24
387F:3B0F  8B 46 FE				mov	ax,[bp+LOCAL_1]
387F:3B12  0B 46 FC				or	ax,[bp+LOCAL_2]
387F:3B15  75 17				jnz	loc_570			; Jump if not zero
387F:3B17  8B 46 F8				mov	ax,[bp+LOCAL_4]
387F:3B1A  2B D2				sub	dx,dx
387F:3B1C  E9 00BF				jmp	loc_579			; (3BDE)
387F:3B1F  90					db	90h
387F:3B20			loc_569:					;  xref 387F:3AF0
387F:3B20  F6 44 06 80				test	byte ptr [si+6],80h
387F:3B24  75 E9				jnz	loc_568			; Jump if not zero
387F:3B26  C7 06 0DF8 0016			mov	data_126,16h		; (3D48:0DF8=0)
387F:3B2C  EB 8A				jmp	short loc_562		; (3AB8)
387F:3B2E			loc_570:					;  xref 387F:3B15
387F:3B2E  F6 44 06 01				test	byte ptr [si+6],1
387F:3B32  75 03				jnz	loc_571			; Jump if not zero
387F:3B34  E9 009B				jmp	loc_578			; (3BD2)
387F:3B37			loc_571:					;  xref 387F:3B32
387F:3B37  83 7C 02 00				cmp	word ptr [si+2],0
387F:3B3B  75 09				jne	loc_572			; Jump if not equal
387F:3B3D  C7 46 F8 0000			mov	word ptr [bp+LOCAL_4],0
387F:3B42  E9 008D				jmp	loc_578			; (3BD2)
387F:3B45  90					db	90h
387F:3B46			loc_572:					;  xref 387F:3B3B
387F:3B46  8B 04				mov	ax,[si]
387F:3B48  2B 44 04				sub	ax,[si+4]
387F:3B4B  03 44 02				add	ax,[si+2]
387F:3B4E  89 46 F4				mov	[bp+LOCAL_6],ax
387F:3B51  8B 5E F6				mov	bx,[bp+LOCAL_5]
387F:3B54  F6 87 0E07 80			test	byte ptr data_133[bx],80h	; (3D48:0E07=81h)
387F:3B59  74 6C				jz	loc_577			; Jump if zero
387F:3B5B  B9 0002				mov	cx,2
387F:3B5E  51					push	cx
387F:3B5F  2B C9				sub	cx,cx
387F:3B61  51					push	cx
387F:3B62  51					push	cx
387F:3B63  53					push	bx
387F:3B64  E8 FCE1				call	sub_113			; (3848)
387F:3B67  83 C4 08				add	sp,8
387F:3B6A  3B 46 FC				cmp	ax,[bp+LOCAL_2]
387F:3B6D  75 2F				jne	loc_576			; Jump if not equal
387F:3B6F  3B 56 FE				cmp	dx,[bp+LOCAL_1]
387F:3B72  75 2A				jne	loc_576			; Jump if not equal
387F:3B74  8B 46 F4				mov	ax,[bp+LOCAL_6]
387F:3B77  03 44 04				add	ax,[si+4]
387F:3B7A  89 46 FA				mov	[bp+LOCAL_3],ax
387F:3B7D  8B 7C 04				mov	di,[si+4]
387F:3B80  EB 09				jmp	short loc_575		; (3B8B)
           ml.lst          Copyright (C) 1986-1991 Phar Lap	Sourcer	v8.01   7-Sep-2022 10:02 am   Page 146

387F:3B82			loc_573:					;  xref 387F:3B8E
387F:3B82  80 3D 0A				cmp	byte ptr [di],0Ah
387F:3B85  75 03				jne	loc_574			; Jump if not equal
387F:3B87  FF 46 F4				inc	word ptr [bp+LOCAL_6]
387F:3B8A			loc_574:					;  xref 387F:3B85
387F:3B8A  47					inc	di
387F:3B8B			loc_575:					;  xref 387F:3B80
387F:3B8B  39 7E FA				cmp	[bp+LOCAL_3],di
387F:3B8E  77 F2				ja	loc_573			; Jump if above
387F:3B90  8B 5E F2				mov	bx,[bp+LOCAL_7]
387F:3B93  F6 07 20				test	byte ptr [bx],20h	; ' '
387F:3B96  74 2F				jz	loc_577			; Jump if zero
387F:3B98  FF 46 F4				inc	word ptr [bp+LOCAL_6]
387F:3B9B  EB 2A				jmp	short loc_577		; (3BC7)
387F:3B9D  90					db	90h
387F:3B9E			loc_576:					;  xref 387F:3B6D, 3B72
387F:3B9E  2B C0				sub	ax,ax
387F:3BA0  50					push	ax
387F:3BA1  FF 76 FE				push	word ptr [bp+LOCAL_1]
387F:3BA4  FF 76 FC				push	word ptr [bp+LOCAL_2]
387F:3BA7  FF 76 F6				push	word ptr [bp+LOCAL_5]
387F:3BAA  E8 FC9B				call	sub_113			; (3848)
387F:3BAD  83 C4 08				add	sp,8
387F:3BB0  8B 5E F2				mov	bx,[bp+LOCAL_7]
387F:3BB3  8B 47 02				mov	ax,[bx+2]
387F:3BB6  89 46 F4				mov	[bp+LOCAL_6],ax
387F:3BB9  8B 5E F6				mov	bx,[bp+LOCAL_5]
387F:3BBC  F6 87 0E07 04			test	byte ptr data_133[bx],4	; (3D48:0E07=81h)
387F:3BC1  74 04				jz	loc_577			; Jump if zero
387F:3BC3  40					inc	ax
387F:3BC4  89 46 F4				mov	[bp+LOCAL_6],ax
387F:3BC7			loc_577:					;  xref 387F:3B59, 3B96, 3B9B, 3BC1
387F:3BC7  8B 46 F4				mov	ax,[bp+LOCAL_6]
387F:3BCA  2B D2				sub	dx,dx
387F:3BCC  29 46 FC				sub	[bp+LOCAL_2],ax
387F:3BCF  19 56 FE				sbb	[bp+LOCAL_1],dx
387F:3BD2			loc_578:					;  xref 387F:3B34, 3B42
387F:3BD2  8B 46 FC				mov	ax,[bp+LOCAL_2]
387F:3BD5  8B 56 FE				mov	dx,[bp+LOCAL_1]
387F:3BD8  03 46 F8				add	ax,[bp+LOCAL_4]
387F:3BDB  83 D2 00				adc	dx,0
387F:3BDE			loc_579:					;  xref 387F:3ABC, 3AE0, 3B1C
387F:3BDE  5E					pop	si
387F:3BDF  5F					pop	di
387F:3BE0  8B E5				mov	sp,bp
387F:3BE2  5D					pop	bp
387F:3BE3  C3					retn
				sub_120		endp


				;ﬂﬂﬂﬂﬂﬂﬂﬂﬂﬂﬂﬂﬂﬂﬂﬂﬂﬂﬂﬂﬂﬂﬂﬂﬂﬂﬂﬂﬂﬂﬂﬂﬂﬂﬂﬂﬂﬂﬂﬂﬂﬂﬂﬂﬂﬂﬂﬂﬂﬂﬂﬂﬂﬂﬂﬂﬂﬂﬂﬂﬂﬂﬂﬂﬂﬂﬂﬂﬂﬂﬂﬂﬂﬂ
				;                              SUBROUTINE
				;
				;         Called from:   387F:270B, 273B
				;‹‹‹‹‹‹‹‹‹‹‹‹‹‹‹‹‹‹‹‹‹‹‹‹‹‹‹‹‹‹‹‹‹‹‹‹‹‹‹‹‹‹‹‹‹‹‹‹‹‹‹‹‹‹‹‹‹‹‹‹‹‹‹‹‹‹‹‹‹‹‹‹‹‹

387F:3BE4			sub_121		proc	near
           ml.lst          Copyright (C) 1986-1991 Phar Lap	Sourcer	v8.01   7-Sep-2022 10:02 am   Page 147

387F:3BE4  E9 078D				jmp	loc_686			; (4374)
				sub_121		endp

387F:3BE7  00					db	0

				;ﬂﬂﬂﬂﬂﬂﬂﬂﬂﬂﬂﬂﬂﬂﬂﬂﬂﬂﬂﬂﬂﬂﬂﬂﬂﬂﬂﬂﬂﬂﬂﬂﬂﬂﬂﬂﬂﬂﬂﬂﬂﬂﬂﬂﬂﬂﬂﬂﬂﬂﬂﬂﬂﬂﬂﬂﬂﬂﬂﬂﬂﬂﬂﬂﬂﬂﬂﬂﬂﬂﬂﬂﬂﬂ
				;                              SUBROUTINE
				;
				;         Called from:   387F:3DC3, 3E40
				;‹‹‹‹‹‹‹‹‹‹‹‹‹‹‹‹‹‹‹‹‹‹‹‹‹‹‹‹‹‹‹‹‹‹‹‹‹‹‹‹‹‹‹‹‹‹‹‹‹‹‹‹‹‹‹‹‹‹‹‹‹‹‹‹‹‹‹‹‹‹‹‹‹‹

387F:3BE8			sub_122		proc	near

				PARAMETER_1	=	4			; bp+4
				PARAMETER_2	=	6			; bp+6
				PARAMETER_3	=	8			; bp+8
				PARAMETER_4	=	0Ah			; bp+0Ah

387F:3BE8  55					push	bp
387F:3BE9  8B EC				mov	bp,sp
387F:3BEB  B8 00AE				mov	ax,0AEh
387F:3BEE  E8 0291				call	sub_126			; (3E82)
387F:3BF1  56					push	si
387F:3BF2  8B 76 04				mov	si,[bp+PARAMETER_1]
387F:3BF5  C7 46 D8 0001			mov	word ptr [bp-28h],1
387F:3BFA  C7 46 D2 0000			mov	word ptr [bp-2Eh],0
387F:3BFF  83 7E 0A 00				cmp	word ptr [bp+PARAMETER_4],0
387F:3C03  75 42				jne	loc_582			; Jump if not equal
387F:3C05  89 76 DC				mov	[bp-24h],si
387F:3C08  B8 1176				mov	ax,1176h
387F:3C0B ˙50					push	ax			; PARAMETER_1
387F:3C0C  E8 EA2D				call	sub_70			; (263C)
387F:3C0F  83 C4 02				add	sp,2
387F:3C12  8B F0				mov	si,ax
387F:3C14  0B F6				or	si,si			; Zero ?
387F:3C16  75 0C				jnz	loc_581			; Jump if not zero
387F:3C18  C7 06 0DF8 0008			mov	data_126,8		; (3D48:0DF8=0)
387F:3C1E			loc_580:					;  xref 387F:3C45, 3C60, 3C6B, 3CA6
										;            3D1A
387F:3C1E ˙B8 FFFF				mov	ax,0FFFFh
387F:3C21  E9 0138				jmp	loc_590			; (3D5C)
387F:3C24			loc_581:					;  xref 387F:3C16
387F:3C24 ˙FF 76 DC				push	word ptr [bp-24h]	; PARAMETER_7
387F:3C27  56					push	si			; PARAMETER_6
387F:3C28  8D 86 FF52				lea	ax,cs:[0FF52h][bp]	; Load effective addr
387F:3C2C  50					push	ax			; PARAMETER_5
387F:3C2D  8D 46 E0				lea	ax,[bp-20h]		; Load effective addr
387F:3C30  50					push	ax			; PARAMETER_4
387F:3C31  8D 46 D2				lea	ax,[bp-2Eh]		; Load effective addr
387F:3C34  50					push	ax			; PARAMETER_3
387F:3C35  FF 76 08				push	word ptr [bp+PARAMETER_3]	; PARAMETER_2
387F:3C38  FF 76 06				push	word ptr [bp+PARAMETER_2]	; PARAMETER_1
387F:3C3B  E8 0826				call	sub_138			; (4464)
387F:3C3E  83 C4 0E				add	sp,0Eh
387F:3C41  89 46 DE				mov	[bp-22h],ax
387F:3C44  40					inc	ax
387F:3C45  74 D7				jz	loc_580			; Jump if zero
           ml.lst          Copyright (C) 1986-1991 Phar Lap	Sourcer	v8.01   7-Sep-2022 10:02 am   Page 148

387F:3C47			loc_582:					;  xref 387F:3C03
387F:3C47  B8 0020				mov	ax,20h
387F:3C4A  50					push	ax
387F:3C4B  B8 8000				mov	ax,8000h
387F:3C4E  50					push	ax
387F:3C4F  56					push	si
387F:3C50  E8 02AD				call	sub_129			; (3F00)
387F:3C53  83 C4 06				add	sp,6
387F:3C56  89 46 DA				mov	[bp-26h],ax
387F:3C59  40					inc	ax
387F:3C5A  75 12				jnz	loc_584			; Jump if not zero
387F:3C5C  83 7E D2 00				cmp	word ptr [bp-2Eh],0
387F:3C60  74 BC				je	loc_580			; Jump if equal
387F:3C62			loc_583:					;  xref 387F:3D58
387F:3C62 ˙FF 76 D2				push	word ptr [bp-2Eh]
387F:3C65  E8 E942				call	sub_66			; (25AA)
387F:3C68  83 C4 02				add	sp,2
387F:3C6B  EB B1				jmp	short loc_580		; (3C1E)
387F:3C6D  90					db	90h
387F:3C6E			loc_584:					;  xref 387F:3C5A
387F:3C6E  B8 0018				mov	ax,18h
387F:3C71  50					push	ax
387F:3C72  8D 46 E2				lea	ax,[bp-1Eh]		; Load effective addr
387F:3C75  50					push	ax
387F:3C76  FF 76 DA				push	word ptr [bp-26h]
387F:3C79  E8 FC46				call	sub_114			; (38C2)
387F:3C7C  83 C4 06				add	sp,6
387F:3C7F  40					inc	ax
387F:3C80  75 28				jnz	loc_586			; Jump if not zero
387F:3C82  FF 76 DA				push	word ptr [bp-26h]
387F:3C85  E8 FBA0				call	sub_112			; (3828)
387F:3C88  83 C4 02				add	sp,2
387F:3C8B  83 7E D2 00				cmp	word ptr [bp-2Eh],0
387F:3C8F  74 09				je	loc_585			; Jump if equal
387F:3C91  FF 76 D2				push	word ptr [bp-2Eh]
387F:3C94  E8 E913				call	sub_66			; (25AA)
387F:3C97  83 C4 02				add	sp,2
387F:3C9A			loc_585:					;  xref 387F:3C8F
387F:3C9A  C7 06 0DF8 0008			mov	data_126,8		; (3D48:0DF8=0)
387F:3CA0  C7 06 0E03 000B			mov	data_130,0Bh		; (3D48:0E03=0)
387F:3CA6  E9 FF75				jmp	loc_580			; (3C1E)
387F:3CA9  90					db	90h
387F:3CAA			loc_586:					;  xref 387F:3C80
387F:3CAA  B8 0002				mov	ax,2
387F:3CAD  50					push	ax
387F:3CAE  2B C0				sub	ax,ax
387F:3CB0  50					push	ax
387F:3CB1  50					push	ax
387F:3CB2  FF 76 DA				push	word ptr [bp-26h]
387F:3CB5  E8 FB90				call	sub_113			; (3848)
387F:3CB8  83 C4 08				add	sp,8
387F:3CBB  05 000F				add	ax,0Fh
387F:3CBE  83 D2 00				adc	dx,0
387F:3CC1  D1 FA				sar	dx,1			; Shift w/sign fill
387F:3CC3  D1 D8				rcr	ax,1			; Rotate thru carry
387F:3CC5  D1 FA				sar	dx,1			; Shift w/sign fill
387F:3CC7  D1 D8				rcr	ax,1			; Rotate thru carry
           ml.lst          Copyright (C) 1986-1991 Phar Lap	Sourcer	v8.01   7-Sep-2022 10:02 am   Page 149

387F:3CC9  D1 FA				sar	dx,1			; Shift w/sign fill
387F:3CCB  D1 D8				rcr	ax,1			; Rotate thru carry
387F:3CCD  D1 FA				sar	dx,1			; Shift w/sign fill
387F:3CCF  D1 D8				rcr	ax,1			; Rotate thru carry
387F:3CD1  89 46 D4				mov	[bp-2Ch],ax
387F:3CD4  89 56 D6				mov	[bp-2Ah],dx
387F:3CD7  FF 76 DA				push	word ptr [bp-26h]
387F:3CDA  E8 FB4B				call	sub_112			; (3828)
387F:3CDD  83 C4 02				add	sp,2
387F:3CE0  81 7E E2 4D5A			cmp	word ptr [bp-1Eh],4D5Ah
387F:3CE5  74 07				je	loc_587			; Jump if equal
387F:3CE7  81 7E E2 5A4D			cmp	word ptr [bp-1Eh],5A4Dh
387F:3CEC  75 03				jne	loc_588			; Jump if not equal
387F:3CEE			loc_587:					;  xref 387F:3CE5
387F:3CEE  FF 4E D8				dec	word ptr [bp-28h]
387F:3CF1			loc_588:					;  xref 387F:3CEC
387F:3CF1  83 7E 0A 00				cmp	word ptr [bp+PARAMETER_4],0
387F:3CF5  74 26				je	loc_589			; Jump if equal
387F:3CF7  2B C0				sub	ax,ax
387F:3CF9 ˙50					push	ax			; PARAMETER_7
387F:3CFA  56					push	si			; PARAMETER_6
387F:3CFB  8D 86 FF52				lea	ax,cs:[0FF52h][bp]	; Load effective addr
387F:3CFF  50					push	ax			; PARAMETER_5
387F:3D00  8D 46 E0				lea	ax,[bp-20h]		; Load effective addr
387F:3D03  50					push	ax			; PARAMETER_4
387F:3D04  8D 46 D2				lea	ax,[bp-2Eh]		; Load effective addr
387F:3D07  50					push	ax			; PARAMETER_3
387F:3D08  FF 76 08				push	word ptr [bp+PARAMETER_3]	; PARAMETER_2
387F:3D0B  FF 76 06				push	word ptr [bp+PARAMETER_2]	; PARAMETER_1
387F:3D0E  E8 0753				call	sub_138			; (4464)
387F:3D11  83 C4 0E				add	sp,0Eh
387F:3D14  89 46 DE				mov	[bp-22h],ax
387F:3D17  40					inc	ax
387F:3D18  75 03				jnz	loc_589			; Jump if not zero
387F:3D1A  E9 FF01				jmp	loc_580			; (3C1E)
387F:3D1D			loc_589:					;  xref 387F:3CF5, 3D18
387F:3D1D  FF 76 D4				push	word ptr [bp-2Ch]
387F:3D20  FF 76 F6				push	word ptr [bp-0Ah]
387F:3D23  FF 76 F8				push	word ptr [bp-8]
387F:3D26  FF 76 F2				push	word ptr [bp-0Eh]
387F:3D29  FF 76 F0				push	word ptr [bp-10h]
387F:3D2C  8B 46 E6				mov	ax,[bp-1Ah]
387F:3D2F  B1 05				mov	cl,5
387F:3D31  D3 E0				shl	ax,cl			; Shift w/zeros fill
387F:3D33  2B 46 EA				sub	ax,[bp-16h]
387F:3D36  03 46 EC				add	ax,[bp-14h]
387F:3D39  50					push	ax
387F:3D3A  FF 76 DE				push	word ptr [bp-22h]
387F:3D3D  FF 76 E0				push	word ptr [bp-20h]
387F:3D40  8D 86 FF52				lea	ax,cs:[0FF52h][bp]	; Load effective addr
387F:3D44  50					push	ax
387F:3D45 ˙56					push	si			; PARAMETER_1
387F:3D46  E8 E8D7				call	sub_69			; (2620)
387F:3D49  83 C4 02				add	sp,2
387F:3D4C  40					inc	ax
387F:3D4D  50					push	ax
387F:3D4E  56					push	si
           ml.lst          Copyright (C) 1986-1991 Phar Lap	Sourcer	v8.01   7-Sep-2022 10:02 am   Page 150

387F:3D4F  FF 76 D8				push	word ptr [bp-28h]
387F:3D52  E8 0965				call	sub_139			; (46BA)
387F:3D55  83 C4 18				add	sp,18h
387F:3D58  E9 FF07				jmp	loc_583			; (3C62)
387F:3D5B  90					db	90h
387F:3D5C			loc_590:					;  xref 387F:3C21
387F:3D5C  5E					pop	si
387F:3D5D  8B E5				mov	sp,bp
387F:3D5F  5D					pop	bp
387F:3D60  C3					retn
				sub_122		endp

387F:3D61  90					db	90h

				;ﬂﬂﬂﬂﬂﬂﬂﬂﬂﬂﬂﬂﬂﬂﬂﬂﬂﬂﬂﬂﬂﬂﬂﬂﬂﬂﬂﬂﬂﬂﬂﬂﬂﬂﬂﬂﬂﬂﬂﬂﬂﬂﬂﬂﬂﬂﬂﬂﬂﬂﬂﬂﬂﬂﬂﬂﬂﬂﬂﬂﬂﬂﬂﬂﬂﬂﬂﬂﬂﬂﬂﬂﬂﬂ
				;                              SUBROUTINE
				;
				;         Called from:   387F:2B9C, 4A54, 4B30
				;‹‹‹‹‹‹‹‹‹‹‹‹‹‹‹‹‹‹‹‹‹‹‹‹‹‹‹‹‹‹‹‹‹‹‹‹‹‹‹‹‹‹‹‹‹‹‹‹‹‹‹‹‹‹‹‹‹‹‹‹‹‹‹‹‹‹‹‹‹‹‹‹‹‹

387F:3D62			sub_123		proc	near

				PARAMETER_1	=	4			; bp+4
				PARAMETER_2	=	6			; bp+6
				PARAMETER_3	=	8			; bp+8

387F:3D62  55					push	bp
387F:3D63  8B EC				mov	bp,sp
387F:3D65  B8 0008				mov	ax,8
387F:3D68  E8 0117				call	sub_126			; (3E82)
387F:3D6B  57					push	di
387F:3D6C  56					push	si
387F:3D6D  8B 76 04				mov	si,[bp+PARAMETER_1]
387F:3D70  B8 005C				mov	ax,5Ch
387F:3D73 ˙50					push	ax			; PARAMETER_2
387F:3D74  56					push	si			; PARAMETER_1
387F:3D75  E8 0660				call	sub_137			; (43D8)
387F:3D78  83 C4 04				add	sp,4
387F:3D7B  8B F8				mov	di,ax
387F:3D7D  B8 002F				mov	ax,2Fh
387F:3D80 ˙50					push	ax			; PARAMETER_2
387F:3D81  56					push	si			; PARAMETER_1
387F:3D82  E8 0653				call	sub_137			; (43D8)
387F:3D85  83 C4 04				add	sp,4
387F:3D88  0B C0				or	ax,ax			; Zero ?
387F:3D8A  75 08				jnz	loc_591			; Jump if not zero
387F:3D8C  0B FF				or	di,di			; Zero ?
387F:3D8E  75 0E				jnz	loc_593			; Jump if not zero
387F:3D90  8B FE				mov	di,si
387F:3D92  EB 0A				jmp	short loc_593		; (3D9E)
387F:3D94			loc_591:					;  xref 387F:3D8A
387F:3D94  0B FF				or	di,di			; Zero ?
387F:3D96  74 04				jz	loc_592			; Jump if zero
387F:3D98  3B C7				cmp	ax,di
387F:3D9A  76 02				jbe	loc_593			; Jump if below or =
387F:3D9C			loc_592:					;  xref 387F:3D96
387F:3D9C  8B F8				mov	di,ax
           ml.lst          Copyright (C) 1986-1991 Phar Lap	Sourcer	v8.01   7-Sep-2022 10:02 am   Page 151

387F:3D9E			loc_593:					;  xref 387F:3D8E, 3D92, 3D9A
387F:3D9E  B8 002E				mov	ax,2Eh
387F:3DA1 ˙50					push	ax			; PARAMETER_2
387F:3DA2  57					push	di			; PARAMETER_1
387F:3DA3  E8 EB32				call	sub_76			; (28D8)
387F:3DA6  83 C4 04				add	sp,4
387F:3DA9  89 46 FE				mov	[bp-2],ax
387F:3DAC  0B C0				or	ax,ax			; Zero ?
387F:3DAE  74 22				jz	loc_594			; Jump if zero
387F:3DB0 ˙FF 36 118E				push	data_164		; PARAMETER_2 (3D48:118E=117Eh)
387F:3DB4  50					push	ax			; PARAMETER_1
387F:3DB5  E8 EB4A				call	sub_77			; (2902)
387F:3DB8  83 C4 04				add	sp,4
387F:3DBB ˙50					push	ax			; PARAMETER_4
387F:3DBC  FF 76 08				push	word ptr [bp+PARAMETER_3]	; PARAMETER_3
387F:3DBF  FF 76 06				push	word ptr [bp+PARAMETER_2]	; PARAMETER_2
387F:3DC2  56					push	si			; PARAMETER_1
387F:3DC3  E8 FE22				call	sub_122			; (3BE8)
387F:3DC6  83 C4 08				add	sp,8
387F:3DC9  89 46 FA				mov	[bp-6],ax
387F:3DCC  E9 0081				jmp	loc_599			; (3E50)
							                        ;* No entry point to code
387F:3DCF  90					nop
387F:3DD0  90					nop
387F:3DD1  90					nop
387F:3DD2			loc_594:					;  xref 387F:3DAE
387F:3DD2 ˙56					push	si			; PARAMETER_1
387F:3DD3  E8 E84A				call	sub_69			; (2620)
387F:3DD6  83 C4 02				add	sp,2
387F:3DD9  05 0005				add	ax,5
387F:3DDC  50					push	ax
387F:3DDD  E8 E7C6				call	sub_65			; (25A6)
387F:3DE0  83 C4 02				add	sp,2
387F:3DE3  8B F8				mov	di,ax
387F:3DE5  0B FF				or	di,di			; Zero ?
387F:3DE7  75 05				jnz	loc_595			; Jump if not zero
387F:3DE9  B8 FFFF				mov	ax,0FFFFh
387F:3DEC  EB 65				jmp	short loc_600		; (3E53)
387F:3DEE			loc_595:					;  xref 387F:3DE7
387F:3DEE ˙56					push	si			; PARAMETER_2
387F:3DEF  57					push	di			; PARAMETER_1
387F:3DF0  E8 E7FB				call	sub_68			; (25EE)
387F:3DF3  83 C4 04				add	sp,4
387F:3DF6 ˙56					push	si			; PARAMETER_1
387F:3DF7  E8 E826				call	sub_69			; (2620)
387F:3DFA  83 C4 02				add	sp,2
387F:3DFD  03 C7				add	ax,di
387F:3DFF  89 46 FE				mov	[bp-2],ax
387F:3E02  C7 46 FA FFFF			mov	word ptr [bp-6],0FFFFh
387F:3E07  C7 46 F8 0002			mov	word ptr [bp-8],2
387F:3E0C  EB 03				jmp	short loc_597		; (3E11)
387F:3E0E			loc_596:					;  xref 387F:3E34
387F:3E0E  FF 4E F8				dec	word ptr [bp-8]
387F:3E11			loc_597:					;  xref 387F:3E0C
387F:3E11  83 7E F8 00				cmp	word ptr [bp-8],0
387F:3E15  7C 32				jl	loc_598			; Jump if <
387F:3E17  8B 5E F8				mov	bx,[bp-8]
           ml.lst          Copyright (C) 1986-1991 Phar Lap	Sourcer	v8.01   7-Sep-2022 10:02 am   Page 152

387F:3E1A  D1 E3				shl	bx,1			; Shift w/zeros fill
387F:3E1C ˙FF B7 118E				push	data_164[bx]		; PARAMETER_2 (3D48:118E=117Eh)
387F:3E20  FF 76 FE				push	word ptr [bp-2]		; PARAMETER_1
387F:3E23  E8 E7C8				call	sub_68			; (25EE)
387F:3E26  83 C4 04				add	sp,4
387F:3E29  2B C0				sub	ax,ax
387F:3E2B  50					push	ax
387F:3E2C  57					push	di
387F:3E2D  E8 0D4E				call	sub_141			; (4B7E)
387F:3E30  83 C4 04				add	sp,4
387F:3E33  40					inc	ax
387F:3E34  74 D8				jz	loc_596			; Jump if zero
387F:3E36 ˙FF 76 F8				push	word ptr [bp-8]		; PARAMETER_4
387F:3E39  FF 76 08				push	word ptr [bp+PARAMETER_3]	; PARAMETER_3
387F:3E3C  FF 76 06				push	word ptr [bp+PARAMETER_2]	; PARAMETER_2
387F:3E3F  57					push	di			; PARAMETER_1
387F:3E40  E8 FDA5				call	sub_122			; (3BE8)
387F:3E43  83 C4 08				add	sp,8
387F:3E46  89 46 FA				mov	[bp-6],ax
387F:3E49			loc_598:					;  xref 387F:3E15
387F:3E49  57					push	di
387F:3E4A  E8 E75D				call	sub_66			; (25AA)
387F:3E4D  83 C4 02				add	sp,2
387F:3E50			loc_599:					;  xref 387F:3DCC
387F:3E50  8B 46 FA				mov	ax,[bp-6]
387F:3E53			loc_600:					;  xref 387F:3DEC
387F:3E53  5E					pop	si
387F:3E54  5F					pop	di
387F:3E55  8B E5				mov	sp,bp
387F:3E57  5D					pop	bp
387F:3E58  C3					retn
				sub_123		endp

387F:3E59  90					db	90h

				;ﬂﬂﬂﬂﬂﬂﬂﬂﬂﬂﬂﬂﬂﬂﬂﬂﬂﬂﬂﬂﬂﬂﬂﬂﬂﬂﬂﬂﬂﬂﬂﬂﬂﬂﬂﬂﬂﬂﬂﬂﬂﬂﬂﬂﬂﬂﬂﬂﬂﬂﬂﬂﬂﬂﬂﬂﬂﬂﬂﬂﬂﬂﬂﬂﬂﬂﬂﬂﬂﬂﬂﬂﬂﬂ
				;                              SUBROUTINE
				;
				;         Called from:   387F:2BAE
				;‹‹‹‹‹‹‹‹‹‹‹‹‹‹‹‹‹‹‹‹‹‹‹‹‹‹‹‹‹‹‹‹‹‹‹‹‹‹‹‹‹‹‹‹‹‹‹‹‹‹‹‹‹‹‹‹‹‹‹‹‹‹‹‹‹‹‹‹‹‹‹‹‹‹

387F:3E5A			sub_124		proc	near

				PARAMETER_1	=	4			; bp+4
				PARAMETER_2	=	6			; bp+6

387F:3E5A  55					push	bp
387F:3E5B  8B EC				mov	bp,sp
387F:3E5D  33 C0				xor	ax,ax			; Zero register
387F:3E5F  E8 0020				call	sub_126			; (3E82)
387F:3E62 ˙FF 36 0E1F				push	data_137		; PARAMETER_3 (3D48:0E1F=0)
387F:3E66  FF 76 06				push	word ptr [bp+PARAMETER_2]	; PARAMETER_2
387F:3E69  FF 76 04				push	word ptr [bp+PARAMETER_1]	; PARAMETER_1
387F:3E6C  E8 0BCF				call	sub_140			; (4A3E)
387F:3E6F  8B E5				mov	sp,bp
387F:3E71  5D					pop	bp
387F:3E72  C3					retn
           ml.lst          Copyright (C) 1986-1991 Phar Lap	Sourcer	v8.01   7-Sep-2022 10:02 am   Page 153

				sub_124		endp

387F:3E73  90					db	90h

				;ﬂﬂﬂﬂﬂﬂﬂﬂﬂﬂﬂﬂﬂﬂﬂﬂﬂﬂﬂﬂﬂﬂﬂﬂﬂﬂﬂﬂﬂﬂﬂﬂﬂﬂﬂﬂﬂﬂﬂﬂﬂﬂﬂﬂﬂﬂﬂﬂﬂﬂﬂﬂﬂﬂﬂﬂﬂﬂﬂﬂﬂﬂﬂﬂﬂﬂﬂﬂﬂﬂﬂﬂﬂﬂ
				;                              SUBROUTINE
				;
				;         Called from:   387F:2435
				;‹‹‹‹‹‹‹‹‹‹‹‹‹‹‹‹‹‹‹‹‹‹‹‹‹‹‹‹‹‹‹‹‹‹‹‹‹‹‹‹‹‹‹‹‹‹‹‹‹‹‹‹‹‹‹‹‹‹‹‹‹‹‹‹‹‹‹‹‹‹‹‹‹‹

387F:3E74			sub_125		proc	near

				PARAMETER_1	=	4			; bp+4

387F:3E74  55					push	bp
387F:3E75  8B EC				mov	bp,sp
387F:3E77  8B 56 04				mov	dx,[bp+PARAMETER_1]
387F:3E7A  B4 41				mov	ah,41h
387F:3E7C  CD 21				int	21h			; DOS Services  ah=function 41h
										;  delete file, name @ ds:dx
387F:3E7E  E9 F03F				jmp	loc_369			; (2EC0)
				sub_125		endp

387F:3E81  00					db	0

				;ﬂﬂﬂﬂﬂﬂﬂﬂﬂﬂﬂﬂﬂﬂﬂﬂﬂﬂﬂﬂﬂﬂﬂﬂﬂﬂﬂﬂﬂﬂﬂﬂﬂﬂﬂﬂﬂﬂﬂﬂﬂﬂﬂﬂﬂﬂﬂﬂﬂﬂﬂﬂﬂﬂﬂﬂﬂﬂﬂﬂﬂﬂﬂﬂﬂﬂﬂﬂﬂﬂﬂﬂﬂﬂ
				;                              SUBROUTINE
				;
				;         Called from:   387F:3324, 3BEE, 3D68, 3E5F, 416A
				;‹‹‹‹‹‹‹‹‹‹‹‹‹‹‹‹‹‹‹‹‹‹‹‹‹‹‹‹‹‹‹‹‹‹‹‹‹‹‹‹‹‹‹‹‹‹‹‹‹‹‹‹‹‹‹‹‹‹‹‹‹‹‹‹‹‹‹‹‹‹‹‹‹‹

387F:3E82			sub_126		proc	near
387F:3E82  59					pop	cx
387F:3E83  8B DC				mov	bx,sp
387F:3E85  2B D8				sub	bx,ax
387F:3E87  72 0A				jc	loc_601			; Jump if carry Set
387F:3E89  3B 1E 1196				cmp	bx,data_165		; (3D48:1196=1880h)
387F:3E8D  72 04				jb	loc_601			; Jump if below
387F:3E8F  8B E3				mov	sp,bx
387F:3E91  FF E1				jmp	cx			;*Register jump
387F:3E93			loc_601:					;  xref 387F:3E87, 3E8D
387F:3E93  51					push	cx
387F:3E94  33 C0				xor	ax,ax			; Zero register
387F:3E96  E9 E347				jmp	loc_201			; (21E0)
				sub_126		endp

387F:3E99  00					db	0

				;ﬂﬂﬂﬂﬂﬂﬂﬂﬂﬂﬂﬂﬂﬂﬂﬂﬂﬂﬂﬂﬂﬂﬂﬂﬂﬂﬂﬂﬂﬂﬂﬂﬂﬂﬂﬂﬂﬂﬂﬂﬂﬂﬂﬂﬂﬂﬂﬂﬂﬂﬂﬂﬂﬂﬂﬂﬂﬂﬂﬂﬂﬂﬂﬂﬂﬂﬂﬂﬂﬂﬂﬂﬂﬂ
				;                              SUBROUTINE
				;
				;         Called from:   387F:2E19, 2E1F
				;‹‹‹‹‹‹‹‹‹‹‹‹‹‹‹‹‹‹‹‹‹‹‹‹‹‹‹‹‹‹‹‹‹‹‹‹‹‹‹‹‹‹‹‹‹‹‹‹‹‹‹‹‹‹‹‹‹‹‹‹‹‹‹‹‹‹‹‹‹‹‹‹‹‹

387F:3E9A			sub_127		proc	near
387F:3E9A  53					push	bx
387F:3E9B  06					push	es
           ml.lst          Copyright (C) 1986-1991 Phar Lap	Sourcer	v8.01   7-Sep-2022 10:02 am   Page 154

387F:3E9C  51					push	cx
387F:3E9D  B9 0400				mov	cx,400h
387F:3EA0  87 0E 119A				xchg	data_167,cx		; (3D48:119A=2000h)
387F:3EA4  51					push	cx
387F:3EA5  50					push	ax
387F:3EA6  E8 E6FD				call	sub_65			; (25A6)
387F:3EA9  5B					pop	bx
387F:3EAA  8F 06 119A				pop	data_167		; (3D48:119A=2000h)
387F:3EAE  59					pop	cx
387F:3EAF  8C DA				mov	dx,ds
387F:3EB1  0B C0				or	ax,ax			; Zero ?
387F:3EB3  74 03				jz	loc_602			; Jump if zero
387F:3EB5  07					pop	es
387F:3EB6  5B					pop	bx
387F:3EB7  C3					retn
387F:3EB8			loc_602:					;  xref 387F:3EB3
387F:3EB8  8B C1				mov	ax,cx
387F:3EBA  E9 E323				jmp	loc_201			; (21E0)
				sub_127		endp

387F:3EBD  00					db	0

				;ﬂﬂﬂﬂﬂﬂﬂﬂﬂﬂﬂﬂﬂﬂﬂﬂﬂﬂﬂﬂﬂﬂﬂﬂﬂﬂﬂﬂﬂﬂﬂﬂﬂﬂﬂﬂﬂﬂﬂﬂﬂﬂﬂﬂﬂﬂﬂﬂﬂﬂﬂﬂﬂﬂﬂﬂﬂﬂﬂﬂﬂﬂﬂﬂﬂﬂﬂﬂﬂﬂﬂﬂﬂﬂ
				;                              SUBROUTINE
				;
				;         Called from:   387F:2F46, 302C
				;‹‹‹‹‹‹‹‹‹‹‹‹‹‹‹‹‹‹‹‹‹‹‹‹‹‹‹‹‹‹‹‹‹‹‹‹‹‹‹‹‹‹‹‹‹‹‹‹‹‹‹‹‹‹‹‹‹‹‹‹‹‹‹‹‹‹‹‹‹‹‹‹‹‹

387F:3EBE			sub_128		proc	near

				PARAMETER_1	=	4			; bp+4

387F:3EBE  55					push	bp
387F:3EBF  8B EC				mov	bp,sp
387F:3EC1  56					push	si
387F:3EC2  8B 76 04				mov	si,[bp+PARAMETER_1]
387F:3EC5  B8 0200				mov	ax,200h
387F:3EC8  50					push	ax
387F:3EC9  E8 E6DA				call	sub_65			; (25A6)
387F:3ECC  59					pop	cx
387F:3ECD  8B DE				mov	bx,si
387F:3ECF  81 EB 0FCC				sub	bx,0FCCh
387F:3ED3 ˙81 C3 106C				add	bx,offset data_156	; (3D48:106C=1)
387F:3ED7  0B C0				or	ax,ax			; Zero ?
387F:3ED9  74 0B				jz	loc_603			; Jump if zero
387F:3EDB  80 4C 06 08				or	byte ptr [si+6],8
387F:3EDF  C7 47 02 0200			mov	word ptr [bx+2],200h
387F:3EE4  EB 0C				jmp	short loc_604		; (3EF2)
387F:3EE6			loc_603:					;  xref 387F:3ED9
387F:3EE6  80 4C 06 04				or	byte ptr [si+6],4
387F:3EEA  C7 47 02 0001			mov	word ptr [bx+2],1
387F:3EEF  8D 47 01				lea	ax,[bx+1]		; Load effective addr
387F:3EF2			loc_604:					;  xref 387F:3EE4
387F:3EF2  89 04				mov	[si],ax
387F:3EF4  89 44 04				mov	[si+4],ax
387F:3EF7  C7 44 02 0000			mov	word ptr [si+2],0
387F:3EFC  5E					pop	si
           ml.lst          Copyright (C) 1986-1991 Phar Lap	Sourcer	v8.01   7-Sep-2022 10:02 am   Page 155

387F:3EFD  5D					pop	bp
387F:3EFE  C3					retn
				sub_128		endp

387F:3EFF  00					db	0

				;ﬂﬂﬂﬂﬂﬂﬂﬂﬂﬂﬂﬂﬂﬂﬂﬂﬂﬂﬂﬂﬂﬂﬂﬂﬂﬂﬂﬂﬂﬂﬂﬂﬂﬂﬂﬂﬂﬂﬂﬂﬂﬂﬂﬂﬂﬂﬂﬂﬂﬂﬂﬂﬂﬂﬂﬂﬂﬂﬂﬂﬂﬂﬂﬂﬂﬂﬂﬂﬂﬂﬂﬂﬂﬂ
				;                              SUBROUTINE
				;
				;         Called from:   387F:3151, 3C50
				;‹‹‹‹‹‹‹‹‹‹‹‹‹‹‹‹‹‹‹‹‹‹‹‹‹‹‹‹‹‹‹‹‹‹‹‹‹‹‹‹‹‹‹‹‹‹‹‹‹‹‹‹‹‹‹‹‹‹‹‹‹‹‹‹‹‹‹‹‹‹‹‹‹‹

387F:3F00			sub_129		proc	near

				PARAMETER_1	=	4			; bp+4
				PARAMETER_2	=	6			; bp+6
				PARAMETER_3	=	8			; bp+8
				PARAMETER_4	=	0Ah			; bp+0Ah
				LOCAL_2		=	-4			; bp+0FFFCh
				LOCAL_1		=	-2			; bp+0FFFEh

387F:3F00  55					push	bp
387F:3F01  8B EC				mov	bp,sp
387F:3F03  83 EC 04				sub	sp,4
387F:3F06  32 FF				xor	bh,bh			; Zero register
387F:3F08  80 3E 0E00 03			cmp	byte ptr data_129,3	; (3D48:0E00=0)
387F:3F0D  72 03				jb	loc_605			; Jump if below
387F:3F0F  8A 7E 08				mov	bh,[bp+PARAMETER_3]
387F:3F12			loc_605:					;  xref 387F:3F0D
387F:3F12  8B 46 0A				mov	ax,[bp+PARAMETER_4]
387F:3F15  89 46 08				mov	[bp+PARAMETER_3],ax
387F:3F18  EB 08				jmp	short loc_606		; (3F22)
							                        ;* No entry point to code
387F:3F1A  55					push	bp
387F:3F1B  8B EC				mov	bp,sp
387F:3F1D  83 EC 04				sub	sp,4
387F:3F20  32 FF				xor	bh,bh			; Zero register
387F:3F22			loc_606:					;  xref 387F:3F18
387F:3F22  88 7E FE				mov	[bp+LOCAL_1],bh
387F:3F25  8B 46 06				mov	ax,[bp+PARAMETER_2]
387F:3F28  8B C8				mov	cx,ax
387F:3F2A  C6 46 FC 00				mov	byte ptr [bp+LOCAL_2],0
387F:3F2E  A9 8000				test	ax,8000h
387F:3F31  75 10				jnz	loc_608			; Jump if not zero
387F:3F33  A9 4000				test	ax,4000h
387F:3F36  75 07				jnz	loc_607			; Jump if not zero
387F:3F38  F6 06 11C7 80			test	byte ptr data_181,80h	; (3D48:11C7=0)
387F:3F3D  75 04				jnz	loc_608			; Jump if not zero
387F:3F3F			loc_607:					;  xref 387F:3F36
387F:3F3F  C6 46 FC 80				mov	byte ptr [bp+LOCAL_2],80h
387F:3F43			loc_608:					;  xref 387F:3F31, 3F3D
387F:3F43  8B 56 04				mov	dx,[bp+PARAMETER_1]
387F:3F46  24 03				and	al,3
387F:3F48  0A C7				or	al,bh
387F:3F4A  B4 3D				mov	ah,3Dh
387F:3F4C  CD 21				int	21h			; DOS Services  ah=function 3Dh
										;  open file, al=mode,name@ds:dx
           ml.lst          Copyright (C) 1986-1991 Phar Lap	Sourcer	v8.01   7-Sep-2022 10:02 am   Page 156

387F:3F4E  73 12				jnc	loc_610			; Jump if carry=0
387F:3F50  3D 0002				cmp	ax,2
387F:3F53  75 09				jne	loc_609			; Jump if not equal
387F:3F55  F7 C1 0100				test	cx,100h
387F:3F59  74 03				jz	loc_609			; Jump if zero
387F:3F5B  E9 009F				jmp	loc_619			; (3FFD)
387F:3F5E			loc_609:					;  xref 387F:3F53, 3F59, 3F74, 4094
387F:3F5E ˙F9					stc				; Set carry flag
387F:3F5F  E9 EF73				jmp	loc_372			; (2ED5)
387F:3F62			loc_610:					;  xref 387F:3F4E
387F:3F62  93					xchg	bx,ax
387F:3F63  8B C1				mov	ax,cx
387F:3F65  25 0500				and	ax,500h
387F:3F68  3D 0500				cmp	ax,500h
387F:3F6B  75 09				jne	loc_611			; Jump if not equal
387F:3F6D  B4 3E				mov	ah,3Eh
387F:3F6F  CD 21				int	21h			; DOS Services  ah=function 3Eh
										;  close file, bx=file handle
387F:3F71  B8 1100				mov	ax,1100h
387F:3F74  EB E8				jmp	short loc_609		; (3F5E)
387F:3F76			loc_611:					;  xref 387F:3F6B
387F:3F76  C6 46 FD 01				mov	byte ptr [bp-3],1
387F:3F7A  B8 4400				mov	ax,4400h
387F:3F7D  CD 21				int	21h			; DOS Services  ah=function 44h
										;  IOctl-0 get info dx, bx=handl
387F:3F7F  F6 C2 80				test	dl,80h
387F:3F82  74 04				jz	loc_612			; Jump if zero
387F:3F84  80 4E FC 40				or	byte ptr [bp+LOCAL_2],40h	; '@'
387F:3F88			loc_612:					;  xref 387F:3F82
387F:3F88  F6 46 FC 40				test	byte ptr [bp+LOCAL_2],40h	; '@'
387F:3F8C  74 03				jz	loc_613			; Jump if zero
387F:3F8E  E9 00D3				jmp	loc_625			; (4064)
387F:3F91			loc_613:					;  xref 387F:3F8C
387F:3F91  8B 46 06				mov	ax,[bp+PARAMETER_2]
387F:3F94  A9 0200				test	ax,200h
387F:3F97  74 1C				jz	loc_615			; Jump if zero
387F:3F99  A9 0003				test	ax,3
387F:3F9C  74 09				jz	loc_614			; Jump if zero
387F:3F9E  33 C9				xor	cx,cx			; Zero register
387F:3FA0  B4 40				mov	ah,40h
387F:3FA2  CD 21				int	21h			; DOS Services  ah=function 40h
										;  write file  bx=file handle
										;   cx=bytes from ds:dx buffer
387F:3FA4  E9 00BD				jmp	loc_625			; (4064)
387F:3FA7			loc_614:					;  xref 387F:3F9C
387F:3FA7  B4 3E				mov	ah,3Eh
387F:3FA9  CD 21				int	21h			; DOS Services  ah=function 3Eh
										;  close file, bx=file handle
387F:3FAB  8B 56 04				mov	dx,[bp+PARAMETER_1]
387F:3FAE  B8 4300				mov	ax,4300h
387F:3FB1  CD 21				int	21h			; DOS Services  ah=function 43h
										;  get attrb cx, filename @ds:dx
387F:3FB3  EB 65				jmp	short loc_621		; (401A)
387F:3FB5			loc_615:					;  xref 387F:3F97
387F:3FB5  F6 46 FC 80				test	byte ptr [bp+LOCAL_2],80h
387F:3FB9  75 03				jnz	loc_616			; Jump if not zero
387F:3FBB  E9 00A6				jmp	loc_625			; (4064)
           ml.lst          Copyright (C) 1986-1991 Phar Lap	Sourcer	v8.01   7-Sep-2022 10:02 am   Page 157

387F:3FBE			loc_616:					;  xref 387F:3FB9
387F:3FBE  A9 0002				test	ax,2
387F:3FC1  75 03				jnz	loc_617			; Jump if not zero
387F:3FC3  E9 009E				jmp	loc_625			; (4064)
387F:3FC6			loc_617:					;  xref 387F:3FC1
387F:3FC6  B9 FFFF				mov	cx,0FFFFh
387F:3FC9  8B D1				mov	dx,cx
387F:3FCB  B8 4202				mov	ax,4202h
387F:3FCE  CD 21				int	21h			; DOS Services  ah=function 42h
										;  move file ptr, bx=file handle
										;   al=method, cx,dx=offset
387F:3FD0  F7 D9				neg	cx
387F:3FD2  8D 56 FF				lea	dx,[bp-1]		; Load effective addr
387F:3FD5  B4 3F				mov	ah,3Fh
387F:3FD7  CD 21				int	21h			; DOS Services  ah=function 3Fh
										;  read file, bx=file handle
										;   cx=bytes to ds:dx buffer
387F:3FD9  0B C0				or	ax,ax			; Zero ?
387F:3FDB  74 15				jz	loc_618			; Jump if zero
387F:3FDD  80 7E FF 1A				cmp	byte ptr [bp-1],1Ah
387F:3FE1  75 0F				jne	loc_618			; Jump if not equal
387F:3FE3  F7 D9				neg	cx
387F:3FE5  8B D1				mov	dx,cx
387F:3FE7  B8 4202				mov	ax,4202h
387F:3FEA  CD 21				int	21h			; DOS Services  ah=function 42h
										;  move file ptr, bx=file handle
										;   al=method, cx,dx=offset
387F:3FEC  33 C9				xor	cx,cx			; Zero register
387F:3FEE  B4 40				mov	ah,40h
387F:3FF0  CD 21				int	21h			; DOS Services  ah=function 40h
										;  write file  bx=file handle
										;   cx=bytes from ds:dx buffer
387F:3FF2			loc_618:					;  xref 387F:3FDB, 3FE1
387F:3FF2  33 C9				xor	cx,cx			; Zero register
387F:3FF4  8B D1				mov	dx,cx
387F:3FF6  B8 4200				mov	ax,4200h
387F:3FF9  CD 21				int	21h			; DOS Services  ah=function 42h
										;  move file ptr, bx=file handle
										;   al=method, cx,dx=offset
387F:3FFB  EB 67				jmp	short loc_625		; (4064)
387F:3FFD			loc_619:					;  xref 387F:3F5B
387F:3FFD  C6 46 FD 00				mov	byte ptr [bp-3],0
387F:4001  8B 4E 08				mov	cx,[bp+PARAMETER_3]
387F:4004  E8 00A4				call	sub_130			; (40AB)
387F:4007  89 4E 08				mov	[bp+PARAMETER_3],cx
387F:400A  F6 46 FE FF				test	byte ptr [bp+LOCAL_1],0FFh
387F:400E  75 07				jnz	loc_620			; Jump if not zero
387F:4010  F7 46 06 0002			test	word ptr [bp+PARAMETER_2],2
387F:4015  75 03				jnz	loc_621			; Jump if not zero
387F:4017			loc_620:					;  xref 387F:400E
387F:4017  80 E1 FE				and	cl,0FEh
387F:401A			loc_621:					;  xref 387F:3FB3, 4015
387F:401A  8B 56 04				mov	dx,[bp+PARAMETER_1]
387F:401D  B4 3C				mov	ah,3Ch
387F:401F  CD 21				int	21h			; DOS Services  ah=function 3Ch
										;  create/truncate file @ ds:dx
387F:4021  73 03				jnc	loc_623			; Jump if carry=0
           ml.lst          Copyright (C) 1986-1991 Phar Lap	Sourcer	v8.01   7-Sep-2022 10:02 am   Page 158

387F:4023			loc_622:					;  xref 387F:4047, 4062
387F:4023  E9 EEAF				jmp	loc_372			; (2ED5)
387F:4026			loc_623:					;  xref 387F:4021
387F:4026  93					xchg	bx,ax
387F:4027  F6 46 FE FF				test	byte ptr [bp+LOCAL_1],0FFh
387F:402B  75 07				jnz	loc_624			; Jump if not zero
387F:402D  F7 46 06 0002			test	word ptr [bp+PARAMETER_2],2
387F:4032  75 30				jnz	loc_625			; Jump if not zero
387F:4034			loc_624:					;  xref 387F:402B
387F:4034  B4 3E				mov	ah,3Eh
387F:4036  CD 21				int	21h			; DOS Services  ah=function 3Eh
										;  close file, bx=file handle
387F:4038  8A 46 06				mov	al,[bp+PARAMETER_2]
387F:403B  24 03				and	al,3
387F:403D  0A 46 FE				or	al,[bp+LOCAL_1]
387F:4040  8B 56 04				mov	dx,[bp+PARAMETER_1]
387F:4043  B4 3D				mov	ah,3Dh
387F:4045  CD 21				int	21h			; DOS Services  ah=function 3Dh
										;  open file, al=mode,name@ds:dx
387F:4047  72 DA				jc	loc_622			; Jump if carry Set
387F:4049  93					xchg	bx,ax
387F:404A  F6 46 FD 01				test	byte ptr [bp-3],1
387F:404E  75 14				jnz	loc_625			; Jump if not zero
387F:4050  F7 46 08 0001			test	word ptr [bp+PARAMETER_3],1
387F:4055  74 0D				jz	loc_625			; Jump if zero
387F:4057  80 C9 01				or	cl,1
387F:405A  8B 56 04				mov	dx,[bp+PARAMETER_1]
387F:405D  B8 4301				mov	ax,4301h
387F:4060  CD 21				int	21h			; DOS Services  ah=function 43h
										;  set attrb cx, filename @ds:dx
387F:4062  72 BF				jc	loc_622			; Jump if carry Set
387F:4064			loc_625:					;  xref 387F:3F8E, 3FA4, 3FBB, 3FC3
										;            3FFB, 4032, 404E, 4055
387F:4064  F6 46 FC 40				test	byte ptr [bp+LOCAL_2],40h	; '@'
387F:4068  75 3D				jnz	loc_629			; Jump if not zero
387F:406A  8B 56 04				mov	dx,[bp+PARAMETER_1]
387F:406D  B8 4300				mov	ax,4300h
387F:4070  CD 21				int	21h			; DOS Services  ah=function 43h
										;  get attrb cx, filename @ds:dx
387F:4072  8B C1				mov	ax,cx
387F:4074  32 C9				xor	cl,cl			; Zero register
387F:4076  25 0001				and	ax,1
387F:4079  74 02				jz	loc_626			; Jump if zero
387F:407B  B1 10				mov	cl,10h
387F:407D			loc_626:					;  xref 387F:4079
387F:407D  F7 46 06 0008			test	word ptr [bp+PARAMETER_2],8
387F:4082  74 03				jz	loc_627			; Jump if zero
387F:4084  80 C9 20				or	cl,20h			; ' '
387F:4087			loc_627:					;  xref 387F:4082, 40A9
387F:4087 ˙3B 1E 0E05				cmp	bx,data_131		; (3D48:0E05=14h)
387F:408B  72 0A				jb	loc_628			; Jump if below
387F:408D  B4 3E				mov	ah,3Eh
387F:408F  CD 21				int	21h			; DOS Services  ah=function 3Eh
										;  close file, bx=file handle
387F:4091  B8 1800				mov	ax,1800h
387F:4094  E9 FEC7				jmp	loc_609			; (3F5E)
387F:4097			loc_628:					;  xref 387F:408B
           ml.lst          Copyright (C) 1986-1991 Phar Lap	Sourcer	v8.01   7-Sep-2022 10:02 am   Page 159

387F:4097  0A 4E FC				or	cl,[bp+LOCAL_2]
387F:409A  80 C9 01				or	cl,1
387F:409D  88 8F 0E07				mov	data_133[bx],cl		; (3D48:0E07=81h)
387F:40A1  8B C3				mov	ax,bx
387F:40A3  8B E5				mov	sp,bp
387F:40A5  5D					pop	bp
387F:40A6  C3					retn
387F:40A7			loc_629:					;  xref 387F:4068
387F:40A7  32 C9				xor	cl,cl			; Zero register
387F:40A9  EB DC				jmp	short loc_627		; (4087)
				sub_129		endp


				;ﬂﬂﬂﬂﬂﬂﬂﬂﬂﬂﬂﬂﬂﬂﬂﬂﬂﬂﬂﬂﬂﬂﬂﬂﬂﬂﬂﬂﬂﬂﬂﬂﬂﬂﬂﬂﬂﬂﬂﬂﬂﬂﬂﬂﬂﬂﬂﬂﬂﬂﬂﬂﬂﬂﬂﬂﬂﬂﬂﬂﬂﬂﬂﬂﬂﬂﬂﬂﬂﬂﬂﬂﬂﬂ
				;                              SUBROUTINE
				;
				;         Called from:   387F:4004
				;‹‹‹‹‹‹‹‹‹‹‹‹‹‹‹‹‹‹‹‹‹‹‹‹‹‹‹‹‹‹‹‹‹‹‹‹‹‹‹‹‹‹‹‹‹‹‹‹‹‹‹‹‹‹‹‹‹‹‹‹‹‹‹‹‹‹‹‹‹‹‹‹‹‹

387F:40AB			sub_130		proc	near
387F:40AB  A1 0DFA				mov	ax,data_127		; (3D48:0DFA=0)
387F:40AE  F7 D0				not	ax
387F:40B0  23 C1				and	ax,cx
387F:40B2  33 C9				xor	cx,cx			; Zero register
387F:40B4  A8 80				test	al,80h
387F:40B6  75 03				jnz	loc_ret_630		; Jump if not zero
387F:40B8  80 C9 01				or	cl,1

387F:40BB			loc_ret_630:					;  xref 387F:40B6
387F:40BB  C3					retn
				sub_130		endp


				;ﬂﬂﬂﬂﬂﬂﬂﬂﬂﬂﬂﬂﬂﬂﬂﬂﬂﬂﬂﬂﬂﬂﬂﬂﬂﬂﬂﬂﬂﬂﬂﬂﬂﬂﬂﬂﬂﬂﬂﬂﬂﬂﬂﬂﬂﬂﬂﬂﬂﬂﬂﬂﬂﬂﬂﬂﬂﬂﬂﬂﬂﬂﬂﬂﬂﬂﬂﬂﬂﬂﬂﬂﬂﬂ
				;                              SUBROUTINE
				;
				;         Called from:   387F:3016, 3050, 3298
				;‹‹‹‹‹‹‹‹‹‹‹‹‹‹‹‹‹‹‹‹‹‹‹‹‹‹‹‹‹‹‹‹‹‹‹‹‹‹‹‹‹‹‹‹‹‹‹‹‹‹‹‹‹‹‹‹‹‹‹‹‹‹‹‹‹‹‹‹‹‹‹‹‹‹

387F:40BC			sub_131		proc	near

				PARAMETER_1	=	4			; bp+4
				PARAMETER_2	=	6			; bp+6
				PARAMETER_3	=	8			; bp+8
				LOCAL_4		=	-8			; bp+0FFF8h
				LOCAL_3		=	-6			; bp+0FFFAh
				LOCAL_2		=	-4			; bp+0FFFCh
				LOCAL_1		=	-2			; bp+0FFFEh

387F:40BC  55					push	bp
387F:40BD  8B EC				mov	bp,sp
387F:40BF  83 EC 08				sub	sp,8
387F:40C2  8B 5E 04				mov	bx,[bp+PARAMETER_1]
387F:40C5  3B 1E 0E05				cmp	bx,data_131		; (3D48:0E05=14h)
387F:40C9  72 07				jb	loc_632			; Jump if below
387F:40CB  B8 0900				mov	ax,900h
387F:40CE  F9					stc				; Set carry flag
           ml.lst          Copyright (C) 1986-1991 Phar Lap	Sourcer	v8.01   7-Sep-2022 10:02 am   Page 160

387F:40CF			loc_631:					;  xref 387F:40EE
387F:40CF  E9 EE03				jmp	loc_372			; (2ED5)
387F:40D2			loc_632:					;  xref 387F:40C9
387F:40D2  81 3E 11CC D6D6			cmp	data_184,0D6D6h		; (3D48:11CC=0)
387F:40D8  75 04				jne	loc_633			; Jump if not equal
387F:40DA  FF 16 11CE				call	word ptr data_185	; (3D48:11CE=21CFh)
387F:40DE			loc_633:					;  xref 387F:40D8
387F:40DE  F6 87 0E07 20			test	byte ptr data_133[bx],20h	; (3D48:0E07=81h) ' '
387F:40E3  74 0B				jz	loc_634			; Jump if zero
387F:40E5  B8 4202				mov	ax,4202h
387F:40E8  33 C9				xor	cx,cx			; Zero register
387F:40EA  8B D1				mov	dx,cx
387F:40EC  CD 21				int	21h			; DOS Services  ah=function 42h
										;  move file ptr, bx=file handle
										;   al=method, cx,dx=offset
387F:40EE  72 DF				jc	loc_631			; Jump if carry Set
387F:40F0			loc_634:					;  xref 387F:40E3
387F:40F0  F6 87 0E07 80			test	byte ptr data_133[bx],80h	; (3D48:0E07=81h)
387F:40F5  74 6E				jz	loc_644			; Jump if zero
387F:40F7  8B 56 06				mov	dx,[bp+PARAMETER_2]
387F:40FA  1E					push	ds
387F:40FB  07					pop	es
387F:40FC  33 C0				xor	ax,ax			; Zero register
387F:40FE  89 46 FE				mov	[bp+LOCAL_1],ax
387F:4101  89 46 FC				mov	[bp+LOCAL_2],ax
387F:4104  FC					cld				; Clear direction
387F:4105  57					push	di
387F:4106  56					push	si
387F:4107  8B FA				mov	di,dx
387F:4109  8B F2				mov	si,dx
387F:410B  89 66 F8				mov	[bp+LOCAL_4],sp
387F:410E  8B 4E 08				mov	cx,[bp+PARAMETER_3]
387F:4111  E3 38				jcxz	loc_639			; Jump if cx=0
387F:4113  B0 0A				mov	al,0Ah
387F:4115  F2/ AE				repne	scasb			; Rep zf=0+cx >0 Scan es:[di] for al
387F:4117  75 4A				jnz	loc_643			; Jump if not zero
387F:4119  E8 0A82				call	sub_142			; (4B9E)
387F:411C  3D 00A8				cmp	ax,0A8h
387F:411F  76 46				jbe	loc_645			; Jump if below or =
387F:4121  83 EC 02				sub	sp,2
387F:4124  8B DC				mov	bx,sp
387F:4126  BA 0200				mov	dx,200h
387F:4129  3D 0228				cmp	ax,228h
387F:412C  73 03				jae	loc_635			; Jump if above or =
387F:412E ˙BA 0080				mov	dx,offset data_38	; (3D48:0080=65h)
387F:4131			loc_635:					;  xref 387F:412C
387F:4131  2B E2				sub	sp,dx
387F:4133  8B D4				mov	dx,sp
387F:4135  8B FA				mov	di,dx
387F:4137  16					push	ss
387F:4138  07					pop	es
387F:4139  8B 4E 08				mov	cx,[bp+PARAMETER_3]

387F:413C			locloop_636:					;  xref 387F:4146
387F:413C  AC					lodsb				; String [si] to al
387F:413D  3C 0A				cmp	al,0Ah
387F:413F  74 0C				je	loc_640			; Jump if equal
           ml.lst          Copyright (C) 1986-1991 Phar Lap	Sourcer	v8.01   7-Sep-2022 10:02 am   Page 161

387F:4141			loc_637:					;  xref 387F:415C
387F:4141 ˙3B FB				cmp	di,bx
387F:4143  74 19				je	loc_642			; Jump if equal
387F:4145			loc_638:					;  xref 387F:4161
387F:4145 ˙AA					stosb				; Store al to es:[di]
387F:4146  E2 F4				loop	locloop_636		; Loop if cx > 0

387F:4148  E8 0022				call	sub_132			; (416D)
387F:414B			loc_639:					;  xref 387F:4111
387F:414B  EB 6A				jmp	short loc_650		; (41B7)
387F:414D			loc_640:					;  xref 387F:413F
387F:414D  B0 0D				mov	al,0Dh
387F:414F  3B FB				cmp	di,bx
387F:4151  75 03				jne	loc_641			; Jump if not equal
387F:4153  E8 0017				call	sub_132			; (416D)
387F:4156			loc_641:					;  xref 387F:4151
387F:4156  AA					stosb				; Store al to es:[di]
387F:4157  B0 0A				mov	al,0Ah
387F:4159  FF 46 FC				inc	word ptr [bp+LOCAL_2]
387F:415C  EB E3				jmp	short loc_637		; (4141)
387F:415E			loc_642:					;  xref 387F:4143
387F:415E  E8 000C				call	sub_132			; (416D)
387F:4161  EB E2				jmp	short loc_638		; (4145)
387F:4163			loc_643:					;  xref 387F:4117
387F:4163  5E					pop	si
387F:4164  5F					pop	di
387F:4165			loc_644:					;  xref 387F:40F5
387F:4165  EB 5E				jmp	short loc_653		; (41C5)
387F:4167			loc_645:					;  xref 387F:411F
387F:4167  B8 FFFC				mov	ax,0FFFCh
387F:416A  E8 FD15				call	sub_126			; (3E82)

				;ﬂﬂﬂﬂ External Entry into Subroutine ﬂﬂﬂﬂﬂﬂﬂﬂﬂﬂﬂﬂﬂﬂﬂﬂﬂﬂﬂﬂﬂﬂﬂﬂﬂﬂﬂﬂﬂﬂﬂﬂﬂﬂﬂﬂﬂﬂ
				;
				;         Called from:   387F:4148, 4153, 415E

387F:416D			sub_132:
387F:416D  50					push	ax
387F:416E  53					push	bx
387F:416F  51					push	cx
387F:4170  8B CF				mov	cx,di
387F:4172  2B CA				sub	cx,dx
387F:4174  E3 12				jcxz	loc_646			; Jump if cx=0
387F:4176  51					push	cx
387F:4177  8B 5E 04				mov	bx,[bp+PARAMETER_1]
387F:417A  B4 40				mov	ah,40h
387F:417C  CD 21				int	21h			; DOS Services  ah=function 40h
										;  write file  bx=file handle
										;   cx=bytes from ds:dx buffer
387F:417E  59					pop	cx
387F:417F  72 0D				jc	loc_647			; Jump if carry Set
387F:4181  01 46 FE				add	[bp+LOCAL_1],ax
387F:4184  3B C8				cmp	cx,ax
387F:4186  77 06				ja	loc_647			; Jump if above
387F:4188			loc_646:					;  xref 387F:4174
387F:4188  59					pop	cx
387F:4189  5B					pop	bx
           ml.lst          Copyright (C) 1986-1991 Phar Lap	Sourcer	v8.01   7-Sep-2022 10:02 am   Page 162

387F:418A  58					pop	ax
387F:418B  8B FA				mov	di,dx
387F:418D  C3					retn
387F:418E			loc_647:					;  xref 387F:417F, 4186
387F:418E  9F					lahf				; Load ah from flags
387F:418F  83 C4 08				add	sp,8
387F:4192  83 7E FE 00				cmp	word ptr [bp+LOCAL_1],0
387F:4196  75 1F				jne	loc_650			; Jump if not equal
387F:4198  9E					sahf				; Store ah into flags
387F:4199  73 04				jnc	loc_648			; Jump if carry=0
387F:419B  B4 09				mov	ah,9
387F:419D  EB 1E				jmp	short loc_651		; (41BD)
387F:419F			loc_648:					;  xref 387F:4199
387F:419F  F6 87 0E07 40			test	byte ptr data_133[bx],40h	; (3D48:0E07=81h) '@'
387F:41A4  74 0B				jz	loc_649			; Jump if zero
387F:41A6  8B 5E 06				mov	bx,[bp+PARAMETER_2]
387F:41A9  80 3F 1A				cmp	byte ptr [bx],1Ah
387F:41AC  75 03				jne	loc_649			; Jump if not equal
387F:41AE  F8					clc				; Clear carry flag
387F:41AF  EB 0C				jmp	short loc_651		; (41BD)
387F:41B1			loc_649:					;  xref 387F:41A4, 41AC
387F:41B1  F9					stc				; Set carry flag
387F:41B2  B8 1C00				mov	ax,1C00h
387F:41B5  EB 06				jmp	short loc_651		; (41BD)
387F:41B7			loc_650:					;  xref 387F:414B, 4196
387F:41B7  8B 46 FE				mov	ax,[bp+LOCAL_1]
387F:41BA  2B 46 FC				sub	ax,[bp+LOCAL_2]
387F:41BD			loc_651:					;  xref 387F:419D, 41AF, 41B5
387F:41BD  8B 66 F8				mov	sp,[bp+LOCAL_4]
387F:41C0  5E					pop	si
387F:41C1  5F					pop	di
387F:41C2			loc_652:					;  xref 387F:41DC, 41E0, 41F1, 41F7
387F:41C2 ˙E9 ED10				jmp	loc_372			; (2ED5)
387F:41C5			loc_653:					;  xref 387F:4165
387F:41C5  8B 4E 08				mov	cx,[bp+PARAMETER_3]
387F:41C8  0B C9				or	cx,cx			; Zero ?
387F:41CA  75 05				jnz	loc_654			; Jump if not zero
387F:41CC  8B C1				mov	ax,cx
387F:41CE  E9 ED04				jmp	loc_372			; (2ED5)
387F:41D1			loc_654:					;  xref 387F:41CA
387F:41D1  8B 56 06				mov	dx,[bp+PARAMETER_2]
387F:41D4  B4 40				mov	ah,40h
387F:41D6  CD 21				int	21h			; DOS Services  ah=function 40h
										;  write file  bx=file handle
										;   cx=bytes from ds:dx buffer
387F:41D8  73 04				jnc	loc_655			; Jump if carry=0
387F:41DA  B4 09				mov	ah,9
387F:41DC  EB E4				jmp	short loc_652		; (41C2)
387F:41DE			loc_655:					;  xref 387F:41D8
387F:41DE  0B C0				or	ax,ax			; Zero ?
387F:41E0  75 E0				jnz	loc_652			; Jump if not zero
387F:41E2  F6 87 0E07 40			test	byte ptr data_133[bx],40h	; (3D48:0E07=81h) '@'
387F:41E7  74 0A				jz	loc_656			; Jump if zero
387F:41E9  8B DA				mov	bx,dx
387F:41EB  80 3F 1A				cmp	byte ptr [bx],1Ah
387F:41EE  75 03				jne	loc_656			; Jump if not equal
387F:41F0  F8					clc				; Clear carry flag
           ml.lst          Copyright (C) 1986-1991 Phar Lap	Sourcer	v8.01   7-Sep-2022 10:02 am   Page 163

387F:41F1  EB CF				jmp	short loc_652		; (41C2)
387F:41F3			loc_656:					;  xref 387F:41E7, 41EE
387F:41F3  F9					stc				; Set carry flag
387F:41F4  B8 1C00				mov	ax,1C00h
387F:41F7  EB C9				jmp	short loc_652		; (41C2)
				sub_131		endp

387F:41F9  00					db	0

				;ﬂﬂﬂﬂﬂﬂﬂﬂﬂﬂﬂﬂﬂﬂﬂﬂﬂﬂﬂﬂﬂﬂﬂﬂﬂﬂﬂﬂﬂﬂﬂﬂﬂﬂﬂﬂﬂﬂﬂﬂﬂﬂﬂﬂﬂﬂﬂﬂﬂﬂﬂﬂﬂﬂﬂﬂﬂﬂﬂﬂﬂﬂﬂﬂﬂﬂﬂﬂﬂﬂﬂﬂﬂﬂ
				;                              SUBROUTINE
				;
				;         Called from:   387F:39DD, 39E7
				;‹‹‹‹‹‹‹‹‹‹‹‹‹‹‹‹‹‹‹‹‹‹‹‹‹‹‹‹‹‹‹‹‹‹‹‹‹‹‹‹‹‹‹‹‹‹‹‹‹‹‹‹‹‹‹‹‹‹‹‹‹‹‹‹‹‹‹‹‹‹‹‹‹‹

387F:41FA			sub_133		proc	near
387F:41FA  41					inc	cx
387F:41FB  80 E1 FE				and	cl,0FEh
387F:41FE  53					push	bx
387F:41FF  FC					cld				; Clear direction
387F:4200  8B 77 08				mov	si,[bx+8]
387F:4203  8B 5F 0A				mov	bx,[bx+0Ah]
387F:4206  33 FF				xor	di,di			; Zero register
387F:4208  EB 23				jmp	short loc_659		; (422D)
387F:420A			loc_657:					;  xref 387F:4227
387F:420A  8B C3				mov	ax,bx
387F:420C  5B					pop	bx
387F:420D  A8 01				test	al,1
387F:420F  75 42				jnz	loc_663			; Jump if not zero
387F:4211  53					push	bx
387F:4212  8B 77 06				mov	si,[bx+6]
387F:4215  8B 5F 08				mov	bx,[bx+8]
387F:4218  3B DE				cmp	bx,si
387F:421A  74 36				je	loc_662			; Jump if equal
387F:421C  4B					dec	bx
387F:421D  33 FF				xor	di,di			; Zero register
387F:421F  EB 0C				jmp	short loc_659		; (422D)
387F:4221  90					db	90h
387F:4222			loc_658:					;  xref 387F:4230, 4242
387F:4222  8D 54 FE				lea	dx,[si-2]		; Load effective addr
387F:4225  3B D3				cmp	dx,bx
387F:4227  73 E1				jae	loc_657			; Jump if above or =
387F:4229  03 F0				add	si,ax
387F:422B  72 23				jc	loc_661			; Jump if carry Set
387F:422D			loc_659:					;  xref 387F:4208, 421F
387F:422D  AD					lodsw				; String [si] to ax
387F:422E  A8 01				test	al,1
387F:4230  74 F0				jz	loc_658			; Jump if zero
387F:4232  8B FE				mov	di,si
387F:4234			loc_660:					;  xref 387F:424E
387F:4234 ˙48					dec	ax
387F:4235  3B C1				cmp	ax,cx
387F:4237  73 23				jae	loc_664			; Jump if above or =
387F:4239  03 F0				add	si,ax
387F:423B  72 13				jc	loc_661			; Jump if carry Set
387F:423D  8B D0				mov	dx,ax
387F:423F  AD					lodsw				; String [si] to ax
           ml.lst          Copyright (C) 1986-1991 Phar Lap	Sourcer	v8.01   7-Sep-2022 10:02 am   Page 164

387F:4240  A8 01				test	al,1
387F:4242  74 DE				jz	loc_658			; Jump if zero
387F:4244  03 C2				add	ax,dx
387F:4246  05 0002				add	ax,2
387F:4249  8B F7				mov	si,di
387F:424B  89 44 FE				mov	[si-2],ax
387F:424E  EB E4				jmp	short loc_660		; (4234)
387F:4250			loc_661:					;  xref 387F:422B, 423B
387F:4250  8B C0				mov	ax,ax
387F:4252			loc_662:					;  xref 387F:421A
387F:4252  5B					pop	bx
387F:4253			loc_663:					;  xref 387F:420F
387F:4253  8B 47 06				mov	ax,[bx+6]
387F:4256  89 47 08				mov	[bx+8],ax
387F:4259  F9					stc				; Set carry flag
387F:425A  EB 19				jmp	short loc_ret_666	; (4275)
387F:425C			loc_664:					;  xref 387F:4237
387F:425C  5B					pop	bx
387F:425D  89 4C FE				mov	[si-2],cx
387F:4260  74 09				jz	loc_665			; Jump if zero
387F:4262  03 F9				add	di,cx
387F:4264  2B C1				sub	ax,cx
387F:4266  48					dec	ax
387F:4267  89 05				mov	[di],ax
387F:4269  2B F9				sub	di,cx
387F:426B			loc_665:					;  xref 387F:4260
387F:426B  03 F9				add	di,cx
387F:426D  89 7F 08				mov	[bx+8],di
387F:4270  8B C6				mov	ax,si
387F:4272  8C DA				mov	dx,ds
387F:4274  F8					clc				; Clear carry flag

387F:4275			loc_ret_666:					;  xref 387F:425A
387F:4275  C3					retn
				sub_133		endp


				;ﬂﬂﬂﬂﬂﬂﬂﬂﬂﬂﬂﬂﬂﬂﬂﬂﬂﬂﬂﬂﬂﬂﬂﬂﬂﬂﬂﬂﬂﬂﬂﬂﬂﬂﬂﬂﬂﬂﬂﬂﬂﬂﬂﬂﬂﬂﬂﬂﬂﬂﬂﬂﬂﬂﬂﬂﬂﬂﬂﬂﬂﬂﬂﬂﬂﬂﬂﬂﬂﬂﬂﬂﬂﬂ
				;                              SUBROUTINE
				;
				;         Called from:   387F:39E2, 4C0D
				;‹‹‹‹‹‹‹‹‹‹‹‹‹‹‹‹‹‹‹‹‹‹‹‹‹‹‹‹‹‹‹‹‹‹‹‹‹‹‹‹‹‹‹‹‹‹‹‹‹‹‹‹‹‹‹‹‹‹‹‹‹‹‹‹‹‹‹‹‹‹‹‹‹‹

387F:4276			sub_134		proc	near
387F:4276  51					push	cx
387F:4277  57					push	di
387F:4278  F6 47 02 01				test	byte ptr [bx+2],1
387F:427C  74 63				jz	loc_675			; Jump if zero
387F:427E  E8 00D2				call	sub_136			; (4353)
387F:4281  8B FE				mov	di,si
387F:4283  8B 04				mov	ax,[si]
387F:4285  A8 01				test	al,1
387F:4287  74 03				jz	loc_667			; Jump if zero
387F:4289  2B C8				sub	cx,ax
387F:428B  49					dec	cx
387F:428C			loc_667:					;  xref 387F:4287
387F:428C  41					inc	cx
           ml.lst          Copyright (C) 1986-1991 Phar Lap	Sourcer	v8.01   7-Sep-2022 10:02 am   Page 165

387F:428D  41					inc	cx
387F:428E  8B 77 04				mov	si,[bx+4]
387F:4291  0B F6				or	si,si			; Zero ?
387F:4293  74 4C				jz	loc_675			; Jump if zero
387F:4295  03 CE				add	cx,si
387F:4297  73 09				jnc	loc_668			; Jump if carry=0
387F:4299  33 C0				xor	ax,ax			; Zero register
387F:429B  BA FFF0				mov	dx,0FFF0h
387F:429E  E3 30				jcxz	loc_673			; Jump if cx=0
387F:42A0  EB 3F				jmp	short loc_675		; (42E1)
387F:42A2			loc_668:					;  xref 387F:4297
387F:42A2  16					push	ss
387F:42A3  07					pop	es
						assume	ss:stack_seg_e
387F:42A4  26: A1 119A				mov	ax,es:data_222		; (3EC0:119A=0)
387F:42A8  3D 2000				cmp	ax,2000h
387F:42AB  74 16				je	loc_671			; Jump if equal
387F:42AD  BA 8000				mov	dx,8000h
387F:42B0			loc_669:					;  xref 387F:42B6
387F:42B0  3B D0				cmp	dx,ax
387F:42B2  72 06				jb	loc_670			; Jump if below
387F:42B4  D1 EA				shr	dx,1			; Shift w/zeros fill
387F:42B6  75 F8				jnz	loc_669			; Jump if not zero
387F:42B8  EB 22				jmp	short loc_674		; (42DC)
387F:42BA			loc_670:					;  xref 387F:42B2
387F:42BA  83 FA 08				cmp	dx,8
387F:42BD  72 1D				jb	loc_674			; Jump if below
387F:42BF  D1 E2				shl	dx,1			; Shift w/zeros fill
387F:42C1  8B C2				mov	ax,dx
387F:42C3			loc_671:					;  xref 387F:42AB, 42DF
387F:42C3 ˙48					dec	ax
387F:42C4  8B D0				mov	dx,ax
387F:42C6  03 C1				add	ax,cx
387F:42C8  73 02				jnc	loc_672			; Jump if carry=0
387F:42CA  33 C0				xor	ax,ax			; Zero register
387F:42CC			loc_672:					;  xref 387F:42C8
387F:42CC  F7 D2				not	dx
387F:42CE  23 C2				and	ax,dx
387F:42D0			loc_673:					;  xref 387F:429E
387F:42D0  52					push	dx
387F:42D1  E8 002E				call	sub_135			; (4302)
387F:42D4  5A					pop	dx
387F:42D5  73 0D				jnc	loc_676			; Jump if carry=0
387F:42D7  83 FA F0				cmp	dx,0FFF0h
387F:42DA  74 05				je	loc_675			; Jump if equal
387F:42DC			loc_674:					;  xref 387F:42B8, 42BD
387F:42DC  B8 0010				mov	ax,10h
387F:42DF  EB E2				jmp	short loc_671		; (42C3)
387F:42E1			loc_675:					;  xref 387F:427C, 4293, 42A0, 42DA
387F:42E1  F9					stc				; Set carry flag
387F:42E2  EB 1B				jmp	short loc_677		; (42FF)
387F:42E4			loc_676:					;  xref 387F:42D5
387F:42E4  8B D0				mov	dx,ax
387F:42E6  2B 57 04				sub	dx,[bx+4]
387F:42E9  89 47 04				mov	[bx+4],ax
387F:42EC  89 7F 08				mov	[bx+8],di
387F:42EF  8B 77 0A				mov	si,[bx+0Ah]
           ml.lst          Copyright (C) 1986-1991 Phar Lap	Sourcer	v8.01   7-Sep-2022 10:02 am   Page 166

387F:42F2  4A					dec	dx
387F:42F3  89 14				mov	[si],dx
387F:42F5  42					inc	dx
387F:42F6  03 F2				add	si,dx
387F:42F8  C7 04 FFFE				mov	word ptr [si],0FFFEh
387F:42FC  89 77 0A				mov	[bx+0Ah],si
387F:42FF			loc_677:					;  xref 387F:42E2
387F:42FF  5F					pop	di
387F:4300  59					pop	cx
387F:4301  C3					retn
				sub_134		endp


				;ﬂﬂﬂﬂﬂﬂﬂﬂﬂﬂﬂﬂﬂﬂﬂﬂﬂﬂﬂﬂﬂﬂﬂﬂﬂﬂﬂﬂﬂﬂﬂﬂﬂﬂﬂﬂﬂﬂﬂﬂﬂﬂﬂﬂﬂﬂﬂﬂﬂﬂﬂﬂﬂﬂﬂﬂﬂﬂﬂﬂﬂﬂﬂﬂﬂﬂﬂﬂﬂﬂﬂﬂﬂﬂ
				;                              SUBROUTINE
				;
				;         Called from:   387F:42D1
				;‹‹‹‹‹‹‹‹‹‹‹‹‹‹‹‹‹‹‹‹‹‹‹‹‹‹‹‹‹‹‹‹‹‹‹‹‹‹‹‹‹‹‹‹‹‹‹‹‹‹‹‹‹‹‹‹‹‹‹‹‹‹‹‹‹‹‹‹‹‹‹‹‹‹

387F:4302			sub_135		proc	near
387F:4302  8B D0				mov	dx,ax
387F:4304  F6 47 02 04				test	byte ptr [bx+2],4
387F:4308  74 0F				jz	loc_679			; Jump if zero
387F:430A  4A					dec	dx
387F:430B  8B 77 04				mov	si,[bx+4]
387F:430E  4E					dec	si
387F:430F  3B D6				cmp	dx,si
387F:4311  72 05				jb	loc_678			; Jump if below
387F:4313  39 57 FE				cmp	[bx-2],dx
387F:4316  73 36				jae	loc_682			; Jump if above or =
387F:4318			loc_678:					;  xref 387F:4311
387F:4318  42					inc	dx
387F:4319			loc_679:					;  xref 387F:4308
387F:4319  53					push	bx
387F:431A  51					push	cx
387F:431B  8C DE				mov	si,ds
387F:431D  8E C6				mov	es,si
387F:431F  B1 04				mov	cl,4
387F:4321  D3 E8				shr	ax,cl			; Shift w/zeros fill
387F:4323  75 03				jnz	loc_680			; Jump if not zero
387F:4325  B8 1000				mov	ax,1000h
387F:4328			loc_680:					;  xref 387F:4323
387F:4328  F6 47 02 04				test	byte ptr [bx+2],4
387F:432C  74 0A				jz	loc_681			; Jump if zero
387F:432E  03 C6				add	ax,si
387F:4330  8B 1E 0DFE				mov	bx,data_128		; (3D48:0DFE=3D48h)
387F:4334  2B C3				sub	ax,bx
387F:4336  8E C3				mov	es,bx
387F:4338			loc_681:					;  xref 387F:432C
387F:4338  8B D8				mov	bx,ax
387F:433A  B4 4A				mov	ah,4Ah
387F:433C  CD 21				int	21h			; DOS Services  ah=function 4Ah
										;  change memory allocation
										;   bx=bytes/16, es=mem segment
387F:433E  59					pop	cx
387F:433F  5B					pop	bx
387F:4340  72 10				jc	loc_ret_683		; Jump if carry Set
           ml.lst          Copyright (C) 1986-1991 Phar Lap	Sourcer	v8.01   7-Sep-2022 10:02 am   Page 167

387F:4342  8B C2				mov	ax,dx
387F:4344  F6 47 02 04				test	byte ptr [bx+2],4
387F:4348  74 04				jz	loc_682			; Jump if zero
387F:434A  4A					dec	dx
387F:434B  89 57 FE				mov	[bx-2],dx
387F:434E			loc_682:					;  xref 387F:4316, 4348
387F:434E  F8					clc				; Clear carry flag
387F:434F  EB 01				jmp	short loc_ret_683	; (4352)
387F:4351  F9					db	0F9h

387F:4352			loc_ret_683:					;  xref 387F:4340, 434F
387F:4352  C3					retn
				sub_135		endp


				;ﬂﬂﬂﬂﬂﬂﬂﬂﬂﬂﬂﬂﬂﬂﬂﬂﬂﬂﬂﬂﬂﬂﬂﬂﬂﬂﬂﬂﬂﬂﬂﬂﬂﬂﬂﬂﬂﬂﬂﬂﬂﬂﬂﬂﬂﬂﬂﬂﬂﬂﬂﬂﬂﬂﬂﬂﬂﬂﬂﬂﬂﬂﬂﬂﬂﬂﬂﬂﬂﬂﬂﬂﬂﬂ
				;                              SUBROUTINE
				;
				;         Called from:   387F:427E
				;‹‹‹‹‹‹‹‹‹‹‹‹‹‹‹‹‹‹‹‹‹‹‹‹‹‹‹‹‹‹‹‹‹‹‹‹‹‹‹‹‹‹‹‹‹‹‹‹‹‹‹‹‹‹‹‹‹‹‹‹‹‹‹‹‹‹‹‹‹‹‹‹‹‹

387F:4353			sub_136		proc	near
387F:4353  57					push	di
387F:4354  8B 77 08				mov	si,[bx+8]
387F:4357  3B 77 0A				cmp	si,[bx+0Ah]
387F:435A  75 03				jne	loc_684			; Jump if not equal
387F:435C  8B 77 06				mov	si,[bx+6]
387F:435F			loc_684:					;  xref 387F:435A, 436B
387F:435F ˙AD					lodsw				; String [si] to ax
387F:4360  3D FFFE				cmp	ax,0FFFEh
387F:4363  74 08				je	loc_685			; Jump if equal
387F:4365  8B FE				mov	di,si
387F:4367  24 FE				and	al,0FEh
387F:4369  03 F0				add	si,ax
387F:436B  EB F2				jmp	short loc_684		; (435F)
387F:436D			loc_685:					;  xref 387F:4363
387F:436D  4F					dec	di
387F:436E  4F					dec	di
387F:436F  8B F7				mov	si,di
387F:4371  5F					pop	di
387F:4372  C3					retn
				sub_136		endp

387F:4373  00					db	0
387F:4374			loc_686:					;  xref 387F:3BE4
387F:4374  55					push	bp
387F:4375  8B EC				mov	bp,sp
387F:4377  56					push	si
387F:4378  57					push	di
387F:4379  8B 76 04				mov	si,[bp+4]
387F:437C  8B 4E 06				mov	cx,[bp+6]
387F:437F  0B F6				or	si,si			; Zero ?
387F:4381  74 42				jz	loc_689			; Jump if zero
387F:4383  E3 47				jcxz	loc_690			; Jump if cx=0
387F:4385  FF 74 FE				push	word ptr [si-2]
387F:4388  BB 0DC4				mov	bx,0DC4h
387F:438B  51					push	cx
           ml.lst          Copyright (C) 1986-1991 Phar Lap	Sourcer	v8.01   7-Sep-2022 10:02 am   Page 168

387F:438C  E8 0821				call	sub_143			; (4BB0)
387F:438F  59					pop	cx
387F:4390  72 09				jc	loc_687			; Jump if carry Set
387F:4392  8B C6				mov	ax,si
387F:4394  80 64 FE FE				and	byte ptr [si-2],0FEh
387F:4398  59					pop	cx
387F:4399  EB 38				jmp	short loc_691		; (43D3)
387F:439B			loc_687:					;  xref 387F:4390
387F:439B  53					push	bx
387F:439C ˙51					push	cx			; PARAMETER_1
387F:439D  E8 F62D				call	sub_116			; (39CD)
387F:43A0  59					pop	cx
387F:43A1  5B					pop	bx
387F:43A2  59					pop	cx
387F:43A3  80 E1 FE				and	cl,0FEh
387F:43A6  0B C0				or	ax,ax			; Zero ?
387F:43A8  74 14				jz	loc_688			; Jump if zero
387F:43AA  8B F8				mov	di,ax
387F:43AC  8C D8				mov	ax,ds
387F:43AE  8E C0				mov	es,ax
387F:43B0  FC					cld				; Clear direction
387F:43B1  57					push	di
387F:43B2 ˙56					push	si			; PARAMETER_1
387F:43B3  D1 E9				shr	cx,1			; Shift w/zeros fill
387F:43B5  F3/ A5				rep	movsw			; Rep when cx >0 Mov [si] to es:[di]
387F:43B7  E8 F5F2				call	sub_115			; (39AC)
387F:43BA  59					pop	cx
387F:43BB  58					pop	ax
387F:43BC  EB 15				jmp	short loc_691		; (43D3)
387F:43BE			loc_688:					;  xref 387F:43A8
387F:43BE  E8 07EF				call	sub_143			; (4BB0)
387F:43C1  33 C0				xor	ax,ax			; Zero register
387F:43C3  EB 0E				jmp	short loc_691		; (43D3)
387F:43C5			loc_689:					;  xref 387F:4381
387F:43C5 ˙51					push	cx			; PARAMETER_1
387F:43C6  E8 F604				call	sub_116			; (39CD)
387F:43C9  59					pop	cx
387F:43CA  EB 07				jmp	short loc_691		; (43D3)
387F:43CC			loc_690:					;  xref 387F:4383
387F:43CC ˙56					push	si			; PARAMETER_1
387F:43CD  E8 F5DC				call	sub_115			; (39AC)
387F:43D0  59					pop	cx
387F:43D1  33 C0				xor	ax,ax			; Zero register
387F:43D3			loc_691:					;  xref 387F:4399, 43BC, 43C3, 43CA
387F:43D3  5F					pop	di
387F:43D4  5E					pop	si
387F:43D5  5D					pop	bp
387F:43D6  C3					retn
387F:43D7  00					db	0

				;ﬂﬂﬂﬂﬂﬂﬂﬂﬂﬂﬂﬂﬂﬂﬂﬂﬂﬂﬂﬂﬂﬂﬂﬂﬂﬂﬂﬂﬂﬂﬂﬂﬂﬂﬂﬂﬂﬂﬂﬂﬂﬂﬂﬂﬂﬂﬂﬂﬂﬂﬂﬂﬂﬂﬂﬂﬂﬂﬂﬂﬂﬂﬂﬂﬂﬂﬂﬂﬂﬂﬂﬂﬂﬂ
				;                              SUBROUTINE
				;
				;         Called from:   387F:3D75, 3D82
				;‹‹‹‹‹‹‹‹‹‹‹‹‹‹‹‹‹‹‹‹‹‹‹‹‹‹‹‹‹‹‹‹‹‹‹‹‹‹‹‹‹‹‹‹‹‹‹‹‹‹‹‹‹‹‹‹‹‹‹‹‹‹‹‹‹‹‹‹‹‹‹‹‹‹

387F:43D8			sub_137		proc	near
           ml.lst          Copyright (C) 1986-1991 Phar Lap	Sourcer	v8.01   7-Sep-2022 10:02 am   Page 169


				PARAMETER_1	=	4			; bp+4
				PARAMETER_2	=	6			; bp+6

387F:43D8  55					push	bp
387F:43D9  8B EC				mov	bp,sp
387F:43DB  57					push	di
387F:43DC  1E					push	ds
387F:43DD  07					pop	es
387F:43DE  8B 7E 04				mov	di,[bp+PARAMETER_1]
387F:43E1  33 C0				xor	ax,ax			; Zero register
387F:43E3  B9 FFFF				mov	cx,0FFFFh
387F:43E6  F2/ AE				repne	scasb			; Rep zf=0+cx >0 Scan es:[di] for al
387F:43E8  41					inc	cx
387F:43E9  F7 D9				neg	cx
387F:43EB  4F					dec	di
387F:43EC  8A 46 06				mov	al,[bp+PARAMETER_2]
387F:43EF  FD					std				; Set direction flag
387F:43F0  F2/ AE				repne	scasb			; Rep zf=0+cx >0 Scan es:[di] for al
387F:43F2  47					inc	di
387F:43F3  38 05				cmp	[di],al
387F:43F5  74 04				je	loc_692			; Jump if equal
387F:43F7  33 C0				xor	ax,ax			; Zero register
387F:43F9  EB 02				jmp	short loc_693		; (43FD)
387F:43FB			loc_692:					;  xref 387F:43F5
387F:43FB  8B C7				mov	ax,di
387F:43FD			loc_693:					;  xref 387F:43F9
387F:43FD  FC					cld				; Clear direction
387F:43FE  5F					pop	di
387F:43FF  8B E5				mov	sp,bp
387F:4401  5D					pop	bp
387F:4402  C3					retn
				sub_137		endp

387F:4403  00 8B 4E 0A 8B 46			db	 00h, 8Bh, 4Eh, 0Ah, 8Bh, 46h
387F:4409  04 8B 56 06 8B			db	 04h, 8Bh, 56h, 06h, 8Bh
387F:440E  7E 08				db	 7Eh, 08h
387F:4410			loc_694:					;  xref 387F:3A70
387F:4410  57					push	di
387F:4411  1E					push	ds
387F:4412  07					pop	es
387F:4413  FC					cld				; Clear direction
387F:4414  93					xchg	bx,ax
387F:4415  0A C0				or	al,al			; Zero ?
387F:4417  74 13				jz	loc_695			; Jump if zero
387F:4419  83 F9 0A				cmp	cx,0Ah
387F:441C  75 0E				jne	loc_695			; Jump if not equal
387F:441E  0B D2				or	dx,dx			; Zero ?
387F:4420  79 0A				jns	loc_695			; Jump if not sign
387F:4422  B0 2D				mov	al,2Dh			; '-'
387F:4424  AA					stosb				; Store al to es:[di]
387F:4425  F7 DB				neg	bx
387F:4427  83 D2 00				adc	dx,0
387F:442A  F7 DA				neg	dx
387F:442C			loc_695:					;  xref 387F:4417, 441C, 4420
387F:442C  8B F7				mov	si,di
387F:442E			loc_696:					;  xref 387F:444A
           ml.lst          Copyright (C) 1986-1991 Phar Lap	Sourcer	v8.01   7-Sep-2022 10:02 am   Page 170

387F:442E  92					xchg	dx,ax
387F:442F  33 D2				xor	dx,dx			; Zero register
387F:4431  0B C0				or	ax,ax			; Zero ?
387F:4433  74 02				jz	loc_697			; Jump if zero
387F:4435  F7 F1				div	cx			; ax,dx rem=dx:ax/reg
387F:4437			loc_697:					;  xref 387F:4433
387F:4437  93					xchg	bx,ax
387F:4438  F7 F1				div	cx			; ax,dx rem=dx:ax/reg
387F:443A  92					xchg	dx,ax
387F:443B  87 D3				xchg	dx,bx
387F:443D  04 30				add	al,30h			; '0'
387F:443F  3C 39				cmp	al,39h			; '9'
387F:4441  76 02				jbe	loc_698			; Jump if below or =
387F:4443  04 27				add	al,27h			; '''
387F:4445			loc_698:					;  xref 387F:4441
387F:4445  AA					stosb				; Store al to es:[di]
387F:4446  8B C2				mov	ax,dx
387F:4448  0B C3				or	ax,bx
387F:444A  75 E2				jnz	loc_696			; Jump if not zero
387F:444C  88 05				mov	[di],al
387F:444E			loc_699:					;  xref 387F:445A
387F:444E  4F					dec	di
387F:444F  AC					lodsb				; String [si] to al
387F:4450  86 05				xchg	[di],al
387F:4452  88 44 FF				mov	[si-1],al
387F:4455  8D 44 01				lea	ax,[si+1]		; Load effective addr
387F:4458  3B C7				cmp	ax,di
387F:445A  72 F2				jb	loc_699			; Jump if below
387F:445C  58					pop	ax
387F:445D  5F					pop	di
387F:445E  5E					pop	si
387F:445F  8B E5				mov	sp,bp
387F:4461  5D					pop	bp
387F:4462  C3					retn
387F:4463  00					db	0

				;ﬂﬂﬂﬂﬂﬂﬂﬂﬂﬂﬂﬂﬂﬂﬂﬂﬂﬂﬂﬂﬂﬂﬂﬂﬂﬂﬂﬂﬂﬂﬂﬂﬂﬂﬂﬂﬂﬂﬂﬂﬂﬂﬂﬂﬂﬂﬂﬂﬂﬂﬂﬂﬂﬂﬂﬂﬂﬂﬂﬂﬂﬂﬂﬂﬂﬂﬂﬂﬂﬂﬂﬂﬂﬂ
				;                              SUBROUTINE
				;
				;         Called from:   387F:3C3B, 3D0E
				;‹‹‹‹‹‹‹‹‹‹‹‹‹‹‹‹‹‹‹‹‹‹‹‹‹‹‹‹‹‹‹‹‹‹‹‹‹‹‹‹‹‹‹‹‹‹‹‹‹‹‹‹‹‹‹‹‹‹‹‹‹‹‹‹‹‹‹‹‹‹‹‹‹‹

387F:4464			sub_138		proc	near

				PARAMETER_1	=	4			; bp+4
				PARAMETER_2	=	6			; bp+6
				PARAMETER_3	=	8			; bp+8
				PARAMETER_4	=	0Ah			; bp+0Ah
				PARAMETER_5	=	0Ch			; bp+0Ch
				PARAMETER_6	=	0Eh			; bp+0Eh
				PARAMETER_7	=	10h			; bp+10h
				LOCAL_6		=	-0Ch			; bp+0FFF4h
				LOCAL_5		=	-0Ah			; bp+0FFF6h
				LOCAL_4		=	-8			; bp+0FFF8h
				LOCAL_3		=	-6			; bp+0FFFAh
				LOCAL_2		=	-4			; bp+0FFFCh
				LOCAL_1		=	-2			; bp+0FFFEh
           ml.lst          Copyright (C) 1986-1991 Phar Lap	Sourcer	v8.01   7-Sep-2022 10:02 am   Page 171


387F:4464  55					push	bp
387F:4465  8B EC				mov	bp,sp
387F:4467  83 EC 0C				sub	sp,0Ch
387F:446A  57					push	di
387F:446B  56					push	si
387F:446C  2B F6				sub	si,si
387F:446E  39 76 06				cmp	[bp+PARAMETER_2],si
387F:4471  75 06				jne	loc_700			; Jump if not equal
387F:4473  A1 0E1F				mov	ax,data_137		; (3D48:0E1F=0)
387F:4476  89 46 06				mov	[bp+PARAMETER_2],ax
387F:4479			loc_700:					;  xref 387F:4471
387F:4479  39 76 06				cmp	[bp+PARAMETER_2],si
387F:447C  74 25				je	loc_703			; Jump if equal
387F:447E  8B 46 06				mov	ax,[bp+PARAMETER_2]
387F:4481  89 46 FA				mov	[bp+LOCAL_3],ax
387F:4484  EB 0F				jmp	short loc_702		; (4495)
387F:4486			loc_701:					;  xref 387F:44A1
387F:4486  83 46 FA 02				add	word ptr [bp+LOCAL_3],2
387F:448A ˙FF 37				push	word ptr [bx]		; PARAMETER_1
387F:448C  E8 E191				call	sub_69			; (2620)
387F:448F  83 C4 02				add	sp,2
387F:4492  40					inc	ax
387F:4493  03 F0				add	si,ax
387F:4495			loc_702:					;  xref 387F:4484
387F:4495  8B 5E FA				mov	bx,[bp+LOCAL_3]
387F:4498  83 3F 00				cmp	word ptr [bx],0
387F:449B  74 06				je	loc_703			; Jump if equal
387F:449D  81 FE 7FFF				cmp	si,7FFFh
387F:44A1  76 E3				jbe	loc_701			; Jump if below or =
387F:44A3			loc_703:					;  xref 387F:447C, 449B
387F:44A3  83 3E 11C8 00			cmp	data_182,0		; (3D48:11C8=0)
387F:44A8  74 1E				je	loc_706			; Jump if equal
387F:44AA  A1 0E05				mov	ax,data_131		; (3D48:0E05=14h)
387F:44AD  89 46 FE				mov	[bp+LOCAL_1],ax
387F:44B0  EB 03				jmp	short loc_705		; (44B5)
387F:44B2			loc_704:					;  xref 387F:44C5
387F:44B2 ˙FF 4E FE				dec	word ptr [bp+LOCAL_1]
387F:44B5			loc_705:					;  xref 387F:44B0
387F:44B5  83 7E FE 00				cmp	word ptr [bp+LOCAL_1],0
387F:44B9  74 12				je	loc_707			; Jump if equal
387F:44BB  8B 5E FE				mov	bx,[bp+LOCAL_1]
387F:44BE  80 BF 0E06 00			cmp	byte ptr data_131+1[bx],0	; (3D48:0E06=0)
387F:44C3  75 08				jne	loc_707			; Jump if not equal
387F:44C5  EB EB				jmp	short loc_704		; (44B2)
387F:44C7  90					db	90h
387F:44C8			loc_706:					;  xref 387F:44A8
387F:44C8  C7 46 FE 0000			mov	word ptr [bp+LOCAL_1],0
387F:44CD			loc_707:					;  xref 387F:44B9, 44C3
387F:44CD  83 7E FE 00				cmp	word ptr [bp+LOCAL_1],0
387F:44D1  74 0A				je	loc_708			; Jump if equal
387F:44D3  8B 46 FE				mov	ax,[bp+LOCAL_1]
387F:44D6  05 0007				add	ax,7
387F:44D9  D1 E0				shl	ax,1			; Shift w/zeros fill
387F:44DB  03 F0				add	si,ax
387F:44DD			loc_708:					;  xref 387F:44D1
387F:44DD  83 7E 0E 00				cmp	word ptr [bp+PARAMETER_6],0
           ml.lst          Copyright (C) 1986-1991 Phar Lap	Sourcer	v8.01   7-Sep-2022 10:02 am   Page 172

387F:44E1  74 0E				je	loc_709			; Jump if equal
387F:44E3 ˙FF 76 0E				push	word ptr [bp+PARAMETER_6]	; PARAMETER_1
387F:44E6  E8 E137				call	sub_69			; (2620)
387F:44E9  83 C4 02				add	sp,2
387F:44EC  05 0003				add	ax,3
387F:44EF  03 F0				add	si,ax
387F:44F1			loc_709:					;  xref 387F:44E1
387F:44F1  46					inc	si
387F:44F2  89 76 F8				mov	[bp+LOCAL_4],si
387F:44F5  81 FE 7FFF				cmp	si,7FFFh
387F:44F9  76 13				jbe	loc_711			; Jump if below or =
387F:44FB  C7 06 0DF8 0007			mov	data_126,7		; (3D48:0DF8=0)
387F:4501  C7 06 0E03 000A			mov	data_130,0Ah		; (3D48:0E03=0)
387F:4507			loc_710:					;  xref 387F:453B, 466F
387F:4507 ˙B8 FFFF				mov	ax,0FFFFh
387F:450A  E9 01A6				jmp	loc_726			; (46B3)
387F:450D  90					db	90h
387F:450E			loc_711:					;  xref 387F:44F9
387F:450E  8B 36 119A				mov	si,data_167		; (3D48:119A=2000h)
387F:4512  C7 06 119A 0010			mov	data_167,10h		; (3D48:119A=2000h)
387F:4518  8B 46 F8				mov	ax,[bp+LOCAL_4]
387F:451B  05 000F				add	ax,0Fh
387F:451E  50					push	ax
387F:451F  E8 E084				call	sub_65			; (25A6)
387F:4522  83 C4 02				add	sp,2
387F:4525  8B F8				mov	di,ax
387F:4527  0B FF				or	di,di			; Zero ?
387F:4529  75 13				jnz	loc_712			; Jump if not zero
387F:452B  C7 06 0DF8 000C			mov	data_126,0Ch		; (3D48:0DF8=0)
387F:4531  C7 06 0E03 0008			mov	data_130,8		; (3D48:0E03=0)
387F:4537  89 36 119A				mov	data_167,si		; (3D48:119A=2000h)
387F:453B  EB CA				jmp	short loc_710		; (4507)
387F:453D  90					db	90h
387F:453E			loc_712:					;  xref 387F:4529
387F:453E  89 36 119A				mov	data_167,si		; (3D48:119A=2000h)
387F:4542  8B 5E 08				mov	bx,[bp+PARAMETER_3]
387F:4545  89 3F				mov	[bx],di
387F:4547  05 000F				add	ax,0Fh
387F:454A  24 F0				and	al,0F0h
387F:454C  8B F8				mov	di,ax
387F:454E  8B 5E 0A				mov	bx,[bp+PARAMETER_4]
387F:4551  89 3F				mov	[bx],di
387F:4553  83 7E 06 00				cmp	word ptr [bp+PARAMETER_2],0
387F:4557  74 2B				je	loc_715			; Jump if equal
387F:4559  8B 46 06				mov	ax,[bp+PARAMETER_2]
387F:455C  89 46 FA				mov	[bp+LOCAL_3],ax
387F:455F  EB 1B				jmp	short loc_714		; (457C)
387F:4561  90					db	90h
387F:4562			loc_713:					;  xref 387F:4582
387F:4562  2B C0				sub	ax,ax
387F:4564  50					push	ax
387F:4565 ˙FF 37				push	word ptr [bx]		; PARAMETER_2
387F:4567  57					push	di			; PARAMETER_1
387F:4568  E8 E083				call	sub_68			; (25EE)
387F:456B  83 C4 04				add	sp,4
387F:456E  50					push	ax
387F:456F  E8 E366				call	sub_76			; (28D8)
           ml.lst          Copyright (C) 1986-1991 Phar Lap	Sourcer	v8.01   7-Sep-2022 10:02 am   Page 173

387F:4572  83 C4 04				add	sp,4
387F:4575  40					inc	ax
387F:4576  8B F8				mov	di,ax
387F:4578  83 46 FA 02				add	word ptr [bp+LOCAL_3],2
387F:457C			loc_714:					;  xref 387F:455F
387F:457C  8B 5E FA				mov	bx,[bp+LOCAL_3]
387F:457F  83 3F 00				cmp	word ptr [bx],0
387F:4582  75 DE				jne	loc_713			; Jump if not equal
387F:4584			loc_715:					;  xref 387F:4557
387F:4584  83 7E FE 00				cmp	word ptr [bp+LOCAL_1],0
387F:4588  74 45				je	loc_718			; Jump if equal
387F:458A  2B C0				sub	ax,ax
387F:458C  50					push	ax
387F:458D  B8 0DDC				mov	ax,0DDCh
387F:4590 ˙50					push	ax			; PARAMETER_2
387F:4591  57					push	di			; PARAMETER_1
387F:4592  E8 E059				call	sub_68			; (25EE)
387F:4595  83 C4 04				add	sp,4
387F:4598  50					push	ax
387F:4599  E8 E33C				call	sub_76			; (28D8)
387F:459C  83 C4 04				add	sp,4
387F:459F  8B F8				mov	di,ax
387F:45A1  2B F6				sub	si,si
387F:45A3  EB 1C				jmp	short loc_717		; (45C1)
387F:45A5  90					db	90h
387F:45A6			loc_716:					;  xref 387F:45C9
387F:45A6  8A 84 0E07				mov	al,data_133[si]		; (3D48:0E07=81h)
387F:45AA  B1 04				mov	cl,4
387F:45AC  8B D0				mov	dx,ax
387F:45AE  D2 F8				sar	al,cl			; Shift w/sign fill
387F:45B0  24 0F				and	al,0Fh
387F:45B2  04 41				add	al,41h			; 'A'
387F:45B4  88 05				mov	[di],al
387F:45B6  47					inc	di
387F:45B7  80 E2 0F				and	dl,0Fh
387F:45BA  80 C2 41				add	dl,41h			; 'A'
387F:45BD  88 15				mov	[di],dl
387F:45BF  47					inc	di
387F:45C0  46					inc	si
387F:45C1			loc_717:					;  xref 387F:45A3
387F:45C1  8B 46 FE				mov	ax,[bp+LOCAL_1]
387F:45C4  FF 4E FE				dec	word ptr [bp+LOCAL_1]
387F:45C7  0B C0				or	ax,ax			; Zero ?
387F:45C9  75 DB				jnz	loc_716			; Jump if not zero
387F:45CB  C6 05 00				mov	byte ptr [di],0
387F:45CE  47					inc	di
387F:45CF			loc_718:					;  xref 387F:4588
387F:45CF  C6 05 00				mov	byte ptr [di],0
387F:45D2  47					inc	di
387F:45D3  83 7E 0E 00				cmp	word ptr [bp+PARAMETER_6],0
387F:45D7  74 12				je	loc_719			; Jump if equal
387F:45D9  C6 05 01				mov	byte ptr [di],1
387F:45DC  47					inc	di
387F:45DD  C6 05 00				mov	byte ptr [di],0
387F:45E0  47					inc	di
387F:45E1 ˙FF 76 0E				push	word ptr [bp+PARAMETER_6]	; PARAMETER_2
387F:45E4  57					push	di			; PARAMETER_1
           ml.lst          Copyright (C) 1986-1991 Phar Lap	Sourcer	v8.01   7-Sep-2022 10:02 am   Page 174

387F:45E5  E8 E006				call	sub_68			; (25EE)
387F:45E8  83 C4 04				add	sp,4
387F:45EB			loc_719:					;  xref 387F:45D7
387F:45EB  2B F6				sub	si,si
387F:45ED  8B 7E 0C				mov	di,[bp+PARAMETER_5]
387F:45F0  47					inc	di
387F:45F1  39 76 10				cmp	[bp+PARAMETER_7],si
387F:45F4  74 34				je	loc_720			; Jump if equal
387F:45F6  2B C0				sub	ax,ax
387F:45F8  50					push	ax
387F:45F9  FF 76 10				push	word ptr [bp+PARAMETER_7]
387F:45FC  50					push	ax
387F:45FD  B8 11AE				mov	ax,11AEh
387F:4600 ˙50					push	ax			; PARAMETER_2
387F:4601  57					push	di			; PARAMETER_1
387F:4602  E8 DFE9				call	sub_68			; (25EE)
387F:4605  83 C4 04				add	sp,4
387F:4608  50					push	ax
387F:4609  E8 E2CC				call	sub_76			; (28D8)
387F:460C  83 C4 04				add	sp,4
387F:460F  8B F8				mov	di,ax
387F:4611  57					push	di
387F:4612  E8 DFD9				call	sub_68			; (25EE)
387F:4615  83 C4 04				add	sp,4
387F:4618  50					push	ax
387F:4619  E8 E2BC				call	sub_76			; (28D8)
387F:461C  83 C4 04				add	sp,4
387F:461F  2D 0004				sub	ax,4
387F:4622  8B F8				mov	di,ax
387F:4624  8B F0				mov	si,ax
387F:4626  2B 76 0C				sub	si,[bp+PARAMETER_5]
387F:4629  4E					dec	si
387F:462A			loc_720:					;  xref 387F:45F4
387F:462A  8B 5E 04				mov	bx,[bp+PARAMETER_1]
387F:462D  83 3F 00				cmp	word ptr [bx],0
387F:4630  74 74				je	loc_725			; Jump if equal
387F:4632  83 7F 02 00				cmp	word ptr [bx+2],0
387F:4636  74 05				je	loc_721			; Jump if equal
387F:4638  C6 05 20				mov	byte ptr [di],20h	; ' '
387F:463B  47					inc	di
387F:463C  46					inc	si
387F:463D			loc_721:					;  xref 387F:4636
387F:463D  8B C3				mov	ax,bx
387F:463F  40					inc	ax
387F:4640  40					inc	ax
387F:4641  89 46 FA				mov	[bp+LOCAL_3],ax
387F:4644  EB 58				jmp	short loc_724		; (469E)
387F:4646			loc_722:					;  xref 387F:46A4
387F:4646 ˙FF 37				push	word ptr [bx]		; PARAMETER_1
387F:4648  E8 DFD5				call	sub_69			; (2620)
387F:464B  83 C4 02				add	sp,2
387F:464E  89 46 F6				mov	[bp+LOCAL_5],ax
387F:4651  03 C6				add	ax,si
387F:4653  3D 007D				cmp	ax,7Dh
387F:4656  76 1A				jbe	loc_723			; Jump if below or =
387F:4658  C7 06 0DF8 0007			mov	data_126,7		; (3D48:0DF8=0)
387F:465E  C7 06 0E03 000A			mov	data_130,0Ah		; (3D48:0E03=0)
           ml.lst          Copyright (C) 1986-1991 Phar Lap	Sourcer	v8.01   7-Sep-2022 10:02 am   Page 175

387F:4664  8B 5E 08				mov	bx,[bp+PARAMETER_3]
387F:4667  FF 37				push	word ptr [bx]
387F:4669  E8 DF3E				call	sub_66			; (25AA)
387F:466C  83 C4 02				add	sp,2
387F:466F  E9 FE95				jmp	loc_710			; (4507)
387F:4672			loc_723:					;  xref 387F:4656
387F:4672  03 76 F6				add	si,[bp+LOCAL_5]
387F:4675  2B C0				sub	ax,ax
387F:4677  50					push	ax
387F:4678  8B 5E FA				mov	bx,[bp+LOCAL_3]
387F:467B  83 46 FA 02				add	word ptr [bp+LOCAL_3],2
387F:467F ˙FF 37				push	word ptr [bx]		; PARAMETER_2
387F:4681  57					push	di			; PARAMETER_1
387F:4682  E8 DF69				call	sub_68			; (25EE)
387F:4685  83 C4 04				add	sp,4
387F:4688  50					push	ax
387F:4689  E8 E24C				call	sub_76			; (28D8)
387F:468C  83 C4 04				add	sp,4
387F:468F  8B F8				mov	di,ax
387F:4691  8B 5E FA				mov	bx,[bp+LOCAL_3]
387F:4694  83 3F 00				cmp	word ptr [bx],0
387F:4697  74 05				je	loc_724			; Jump if equal
387F:4699  C6 05 20				mov	byte ptr [di],20h	; ' '
387F:469C  47					inc	di
387F:469D  46					inc	si
387F:469E			loc_724:					;  xref 387F:4644, 4697
387F:469E  8B 5E FA				mov	bx,[bp+LOCAL_3]
387F:46A1  83 3F 00				cmp	word ptr [bx],0
387F:46A4  75 A0				jne	loc_722			; Jump if not equal
387F:46A6			loc_725:					;  xref 387F:4630
387F:46A6  C6 05 0D				mov	byte ptr [di],0Dh
387F:46A9  8B C6				mov	ax,si
387F:46AB  8B 5E 0C				mov	bx,[bp+PARAMETER_5]
387F:46AE  88 07				mov	[bx],al
387F:46B0  8B 46 F8				mov	ax,[bp+LOCAL_4]
387F:46B3			loc_726:					;  xref 387F:450A
387F:46B3  5E					pop	si
387F:46B4  5F					pop	di
387F:46B5  8B E5				mov	sp,bp
387F:46B7  5D					pop	bp
387F:46B8  C3					retn
				sub_138		endp

387F:46B9  90					db	90h

				;ﬂﬂﬂﬂﬂﬂﬂﬂﬂﬂﬂﬂﬂﬂﬂﬂﬂﬂﬂﬂﬂﬂﬂﬂﬂﬂﬂﬂﬂﬂﬂﬂﬂﬂﬂﬂﬂﬂﬂﬂﬂﬂﬂﬂﬂﬂﬂﬂﬂﬂﬂﬂﬂﬂﬂﬂﬂﬂﬂﬂﬂﬂﬂﬂﬂﬂﬂﬂﬂﬂﬂﬂﬂﬂ
				;                              SUBROUTINE
				;
				;         Called from:   387F:3D52
				;‹‹‹‹‹‹‹‹‹‹‹‹‹‹‹‹‹‹‹‹‹‹‹‹‹‹‹‹‹‹‹‹‹‹‹‹‹‹‹‹‹‹‹‹‹‹‹‹‹‹‹‹‹‹‹‹‹‹‹‹‹‹‹‹‹‹‹‹‹‹‹‹‹‹

387F:46BA			sub_139		proc	near

				PARAMETER_1	=	4			; bp+4
				PARAMETER_2	=	6			; bp+6
				PARAMETER_3	=	8			; bp+8
				PARAMETER_4	=	0Ah			; bp+0Ah
           ml.lst          Copyright (C) 1986-1991 Phar Lap	Sourcer	v8.01   7-Sep-2022 10:02 am   Page 176

				PARAMETER_5	=	0Ch			; bp+0Ch
				PARAMETER_6	=	0Eh			; bp+0Eh
				PARAMETER_7	=	10h			; bp+10h
				PARAMETER_8	=	12h			; bp+12h
				PARAMETER_9	=	14h			; bp+14h
				PARAMETER_10	=	16h			; bp+16h
				PARAMETER_11	=	18h			; bp+18h
				PARAMETER_12	=	1Ah			; bp+1Ah

387F:46BA  55					push	bp
387F:46BB  8B EC				mov	bp,sp
387F:46BD  56					push	si
387F:46BE  57					push	di
387F:46BF  1E					push	ds
387F:46C0			loc_727:					;  xref 387F:46EA, 46F5
387F:46C0  1F					pop	ds
387F:46C1  BB FFFF				mov	bx,0FFFFh
387F:46C4  B4 48				mov	ah,48h
387F:46C6  CD 21				int	21h			; DOS Services  ah=function 48h
										;  allocate memory, bx=bytes/16
387F:46C8  3C 07				cmp	al,7
387F:46CA  74 42				je	loc_732			; Jump if equal
387F:46CC  8B 1E 0DFE				mov	bx,data_128		; (3D48:0DFE=3D48h)
387F:46D0  8B D3				mov	dx,bx
387F:46D2  4B					dec	bx
387F:46D3  33 C9				xor	cx,cx			; Zero register
387F:46D5  1E					push	ds
387F:46D6			loc_728:					;  xref 387F:46F1
387F:46D6  8E DB				mov	ds,bx
						assume	ds:seg_c
387F:46D8  A1 0001				mov	ax,data_24		; (3D47:0001=3Dh)
387F:46DB  3B C2				cmp	ax,dx
387F:46DD  74 06				je	loc_729			; Jump if equal
387F:46DF  0B C0				or	ax,ax			; Zero ?
387F:46E1  75 14				jnz	loc_730			; Jump if not zero
387F:46E3  8B CB				mov	cx,bx
387F:46E5			loc_729:					;  xref 387F:46DD
387F:46E5  43					inc	bx
387F:46E6  03 1E 0003				add	bx,data_25		; (3D47:0003=0)
387F:46EA  72 D4				jc	loc_727			; Jump if carry Set
387F:46EC  A0 0000				mov	al,data_23		; (3D47:0000=48h)
387F:46EF  3C 4D				cmp	al,4Dh			; 'M'
387F:46F1  74 E3				je	loc_728			; Jump if equal
387F:46F3  3C 5A				cmp	al,5Ah			; 'Z'
387F:46F5  75 C9				jne	loc_727			; Jump if not equal
387F:46F7			loc_730:					;  xref 387F:46E1
387F:46F7  2B DA				sub	bx,dx
387F:46F9  1F					pop	ds
						assume	ds:seg_d
387F:46FA  89 0E 11B4				mov	data_175,cx		; (3D48:11B4=0)
387F:46FE  80 3E 0E00 02			cmp	byte ptr data_129,2	; (3D48:0E00=0)
387F:4703  77 0D				ja	loc_733			; Jump if above
387F:4705  81 EB 0281				sub	bx,281h
387F:4709  73 07				jnc	loc_733			; Jump if carry=0
387F:470B			loc_731:					;  xref 387F:4756, 475B, 476A, 476F
										;            4773, 47B6
387F:470B ˙B8 0008				mov	ax,8
           ml.lst          Copyright (C) 1986-1991 Phar Lap	Sourcer	v8.01   7-Sep-2022 10:02 am   Page 177

387F:470E			loc_732:					;  xref 387F:46CA
387F:470E  F9					stc				; Set carry flag
387F:470F  E9 E7C3				jmp	loc_372			; (2ED5)
387F:4712			loc_733:					;  xref 387F:4703, 4709
387F:4712  53					push	bx
387F:4713  B8 0005				mov	ax,5
387F:4716  50					push	ax
387F:4717  E8 E746				call	sub_92			; (2E60)
387F:471A  A3 11B6				mov	data_176,ax		; (3D48:11B6=0)
387F:471D  97					xchg	di,ax
387F:471E  8B F7				mov	si,di
387F:4720  33 C0				xor	ax,ax			; Zero register
387F:4722  B9 FFFF				mov	cx,0FFFFh
387F:4725  F2/ AE				repne	scasb			; Rep zf=0+cx >0 Scan es:[di] for al
387F:4727  47					inc	di
387F:4728  47					inc	di
387F:4729  F2/ AE				repne	scasb			; Rep zf=0+cx >0 Scan es:[di] for al
387F:472B  47					inc	di
387F:472C  47					inc	di
387F:472D  F2/ AE				repne	scasb			; Rep zf=0+cx >0 Scan es:[di] for al
387F:472F  97					xchg	di,ax
387F:4730  2B C6				sub	ax,si
387F:4732  A3 11B8				mov	data_177,ax		; (3D48:11B8=0)
387F:4735  05 00FC				add	ax,0FCh
387F:4738  83 7E 04 00				cmp	word ptr [bp+PARAMETER_1],0
387F:473C  74 03				je	loc_734			; Jump if equal
387F:473E  05 0013				add	ax,13h
387F:4741			loc_734:					;  xref 387F:473C
387F:4741  B1 04				mov	cl,4
387F:4743  03 46 08				add	ax,[bp+PARAMETER_3]
387F:4746  05 000F				add	ax,0Fh
387F:4749  D3 E8				shr	ax,cl			; Shift w/zeros fill
387F:474B  8B 56 0E				mov	dx,[bp+PARAMETER_6]
387F:474E  83 C2 0F				add	dx,0Fh
387F:4751  D3 EA				shr	dx,cl			; Shift w/zeros fill
387F:4753  5B					pop	bx
387F:4754  2B DA				sub	bx,dx
387F:4756  76 B3				jbe	loc_731			; Jump if below or =
387F:4758  83 EB 02				sub	bx,2
387F:475B  72 AE				jc	loc_731			; Jump if carry Set
387F:475D  8B 4E 10				mov	cx,[bp+PARAMETER_7]
387F:4760  83 7E 04 00				cmp	word ptr [bp+PARAMETER_1],0
387F:4764  74 06				je	loc_735			; Jump if equal
387F:4766  8B 4E 1A				mov	cx,[bp+PARAMETER_12]
387F:4769  41					inc	cx
387F:476A  74 9F				jz	loc_731			; Jump if zero
387F:476C			loc_735:					;  xref 387F:4764
387F:476C  83 C1 10				add	cx,10h
387F:476F  72 9A				jc	loc_731			; Jump if carry Set
387F:4771  3B D9				cmp	bx,cx
387F:4773  72 96				jb	loc_731			; Jump if below
387F:4775  50					push	ax
387F:4776  52					push	dx
387F:4777  33 C9				xor	cx,cx			; Zero register
387F:4779			loc_736:					;  xref 387F:4796
387F:4779 ˙BB 0001				mov	bx,1
387F:477C  B4 48				mov	ah,48h
           ml.lst          Copyright (C) 1986-1991 Phar Lap	Sourcer	v8.01   7-Sep-2022 10:02 am   Page 178

387F:477E  CD 21				int	21h			; DOS Services  ah=function 48h
										;  allocate memory, bx=bytes/16
387F:4780  72 16				jc	loc_738			; Jump if carry Set
387F:4782  8E C0				mov	es,ax
387F:4784  BB FFFF				mov	bx,0FFFFh
387F:4787			loc_737:					;  xref 387F:478B
387F:4787  B4 4A				mov	ah,4Ah
387F:4789  CD 21				int	21h			; DOS Services  ah=function 4Ah
										;  change memory allocation
										;   bx=bytes/16, es=mem segment
387F:478B  72 FA				jc	loc_737			; Jump if carry Set
387F:478D  26: 89 0E 0000			mov	es:data_231e,cx		; (4812:0000=0)
387F:4792  8C C1				mov	cx,es
387F:4794  8B D3				mov	dx,bx
387F:4796  EB E1				jmp	short loc_736		; (4779)
387F:4798			loc_738:					;  xref 387F:4780
387F:4798  8B DA				mov	bx,dx
387F:479A  80 3E 0E00 02			cmp	byte ptr data_129,2	; (3D48:0E00=0)
387F:479F  75 1E				jne	loc_742			; Jump if not equal
387F:47A1  81 EB 0281				sub	bx,281h
387F:47A5  73 12				jnc	loc_741			; Jump if carry=0
387F:47A7			loc_739:					;  xref 387F:47B4, 47BD, 47DA, 47F9
										;            4801, 4808
387F:47A7  E3 0D				jcxz	loc_740			; Jump if cx=0
387F:47A9  8E C1				mov	es,cx
387F:47AB  26: 8B 0E 0000			mov	cx,es:data_231e		; (4812:0000=0)
387F:47B0  B4 49				mov	ah,49h
387F:47B2  CD 21				int	21h			; DOS Services  ah=function 49h
										;  release memory block, es=seg
387F:47B4  73 F1				jnc	loc_739			; Jump if carry=0
387F:47B6			loc_740:					;  xref 387F:47A7, 47E0
387F:47B6  E9 FF52				jmp	loc_731			; (470B)
387F:47B9			loc_741:					;  xref 387F:47A5
387F:47B9  B4 4A				mov	ah,4Ah
387F:47BB  CD 21				int	21h			; DOS Services  ah=function 4Ah
										;  change memory allocation
										;   bx=bytes/16, es=mem segment
387F:47BD  72 E8				jc	loc_739			; Jump if carry Set
387F:47BF			loc_742:					;  xref 387F:479F
387F:47BF  5A					pop	dx
387F:47C0  52					push	dx
387F:47C1  42					inc	dx
387F:47C2  42					inc	dx
387F:47C3  2B DA				sub	bx,dx
387F:47C5  73 36				jnc	loc_745			; Jump if carry=0
387F:47C7  A1 11B4				mov	ax,data_175		; (3D48:11B4=0)
387F:47CA  0B C0				or	ax,ax			; Zero ?
387F:47CC  74 12				jz	loc_743			; Jump if zero
387F:47CE  40					inc	ax
387F:47CF  8E C0				mov	es,ax
387F:47D1  BB FFFF				mov	bx,0FFFFh
387F:47D4  B4 4A				mov	ah,4Ah
387F:47D6  CD 21				int	21h			; DOS Services  ah=function 4Ah
										;  change memory allocation
										;   bx=bytes/16, es=mem segment
387F:47D8  3C 08				cmp	al,8
387F:47DA  75 CB				jne	loc_739			; Jump if not equal
           ml.lst          Copyright (C) 1986-1991 Phar Lap	Sourcer	v8.01   7-Sep-2022 10:02 am   Page 179

387F:47DC  2B DA				sub	bx,dx
387F:47DE  73 1D				jnc	loc_745			; Jump if carry=0
387F:47E0			loc_743:					;  xref 387F:47CC
387F:47E0  E3 D4				jcxz	loc_740			; Jump if cx=0
387F:47E2  8B C1				mov	ax,cx
387F:47E4			loc_744:					;  xref 387F:47FB
387F:47E4 ˙48					dec	ax
387F:47E5  8E C0				mov	es,ax
387F:47E7  26: 8B 1E 0003			mov	bx,word ptr es:[3]	; (024E:0003=95Dh)
387F:47EC  40					inc	ax
387F:47ED  8E C0				mov	es,ax
387F:47EF  2B DA				sub	bx,dx
387F:47F1  73 0A				jnc	loc_745			; Jump if carry=0
387F:47F3  26: A1 0000				mov	ax,word ptr es:[0]	; (024F:0000=0C40Ch)
387F:47F7  0B C0				or	ax,ax			; Zero ?
387F:47F9  74 AC				jz	loc_739			; Jump if zero
387F:47FB  EB E7				jmp	short loc_744		; (47E4)
387F:47FD			loc_745:					;  xref 387F:47C5, 47DE, 47F1
387F:47FD  B4 4A				mov	ah,4Ah
387F:47FF  CD 21				int	21h			; DOS Services  ah=function 4Ah
										;  change memory allocation
										;   bx=bytes/16, es=mem segment
387F:4801  72 A4				jc	loc_739			; Jump if carry Set
387F:4803  5B					pop	bx
387F:4804  B4 48				mov	ah,48h
387F:4806  CD 21				int	21h			; DOS Services  ah=function 48h
										;  allocate memory, bx=bytes/16
387F:4808  72 9D				jc	loc_739			; Jump if carry Set
387F:480A  8E 06 0DFE				mov	es,data_128		; (3D48:0DFE=3D48h)
387F:480E  8C C3				mov	bx,es
387F:4810  26: A3 002C				mov	word ptr es:copyright+0Eh,ax	; (3D48:002C=3931h)
387F:4814  8E C0				mov	es,ax
387F:4816  33 FF				xor	di,di			; Zero register
387F:4818  8B 76 0C				mov	si,[bp+PARAMETER_5]
387F:481B  8B 4E 0E				mov	cx,[bp+PARAMETER_6]
387F:481E  F3/ A4				rep	movsb			; Rep when cx >0 Mov [si] to es:[di]
387F:4820  8C C2				mov	dx,es
387F:4822  52					push	dx
387F:4823  53					push	bx
387F:4824  83 3E 11A8 00			cmp	data_173,0		; (3D48:11A8=0)
387F:4829  74 0F				je	loc_746			; Jump if equal
387F:482B  1E					push	ds
387F:482C  8B 16 11AA				mov	dx,data_174		; (3D48:11AA=0)
387F:4830  8E 1E 11A8				mov	ds,data_173		; (3D48:11A8=0)
387F:4834  B8 2523				mov	ax,2523h
387F:4837  CD 21				int	21h			; DOS Services  ah=function 25h
										;  set intrpt vector al to ds:dx
387F:4839  1F					pop	ds
387F:483A			loc_746:					;  xref 387F:4829
387F:483A  E8 DB14				call	sub_57			; (2351)
387F:483D  A1 0E00				mov	ax,data_129		; (3D48:0E00=0)
387F:4840  86 E0				xchg	ah,al
387F:4842  3D 031E				cmp	ax,31Eh
387F:4845  72 07				jb	loc_747			; Jump if below
387F:4847  BB 0014				mov	bx,14h
387F:484A  B4 67				mov	ah,67h
387F:484C  CD 21				int	21h			; DOS Services  ah=function 67h
           ml.lst          Copyright (C) 1986-1991 Phar Lap	Sourcer	v8.01   7-Sep-2022 10:02 am   Page 180

										;  set maximum handles bx
387F:484E			loc_747:					;  xref 387F:4845
387F:484E  5B					pop	bx
387F:484F  5A					pop	dx
387F:4850			loc_748:					;  xref 387F:4872, 4879
387F:4850 ˙53					push	bx
387F:4851  B4 52				mov	ah,52h
387F:4853  CD 21				int	21h			; DOS Services  ah=function 52h
										;  get DOS data table ptr es:bx
										;*  undocumented function
387F:4855  26: 8B 47 FE				mov	ax,es:[bx-2]
387F:4859  5B					pop	bx
387F:485A			loc_749:					;  xref 387F:4881
387F:485A  8E C0				mov	es,ax
387F:485C  40					inc	ax
387F:485D  3B C3				cmp	ax,bx
387F:485F  74 13				je	loc_750			; Jump if equal
387F:4861  3B C2				cmp	ax,dx
387F:4863  74 0F				je	loc_750			; Jump if equal
387F:4865  26: 39 1E 0001			cmp	word ptr es:[1],bx	; (5203:0001=0)
387F:486A  75 08				jne	loc_750			; Jump if not equal
387F:486C  8E C0				mov	es,ax
387F:486E  B4 49				mov	ah,49h
387F:4870  CD 21				int	21h			; DOS Services  ah=function 49h
										;  release memory block, es=seg
387F:4872  EB DC				jmp	short loc_748		; (4850)
387F:4874			loc_750:					;  xref 387F:485F, 4863, 486A
387F:4874  26: 03 06 0003			add	ax,word ptr es:[3]	; (5204:0003=0)
387F:4879  72 D5				jc	loc_748			; Jump if carry Set
387F:487B  26: 80 3E 0000 5A			cmp	byte ptr es:[0],5Ah	; (5204:0000=0) 'Z'
387F:4881  75 D7				jne	loc_749			; Jump if not equal
387F:4883  8E C3				mov	es,bx
387F:4885  BB FFFF				mov	bx,0FFFFh
387F:4888  B4 4A				mov	ah,4Ah
387F:488A  CD 21				int	21h			; DOS Services  ah=function 4Ah
										;  change memory allocation
										;   bx=bytes/16, es=mem segment
387F:488C  B4 4A				mov	ah,4Ah
387F:488E  CD 21				int	21h			; DOS Services  ah=function 4Ah
										;  change memory allocation
										;   bx=bytes/16, es=mem segment
387F:4890  73 0D				jnc	loc_752			; Jump if carry=0
387F:4892			loc_751:					;  xref 387F:48AA
387F:4892  8B 16 11B6				mov	dx,data_176		; (3D48:11B6=0)
387F:4896  B4 09				mov	ah,9
387F:4898  CD 21				int	21h			; DOS Services  ah=function 09h
										;  display char string at ds:dx
387F:489A  B8 4CFF				mov	ax,4CFFh
387F:489D  CD 21				int	21h			; DOS Services  ah=function 4Ch
										;  terminate with al=return code
387F:489F			loc_752:					;  xref 387F:4890
387F:489F  8C C0				mov	ax,es
387F:48A1  03 C3				add	ax,bx
387F:48A3  26: A3 0002				mov	es:data_28,ax		; (3D48:0002=0)
387F:48A7  59					pop	cx
387F:48A8  2B D9				sub	bx,cx
387F:48AA  72 E6				jc	loc_751			; Jump if carry Set
           ml.lst          Copyright (C) 1986-1991 Phar Lap	Sourcer	v8.01   7-Sep-2022 10:02 am   Page 181

387F:48AC  2B C1				sub	ax,cx
387F:48AE  A3 11BC				mov	word ptr data_178+2,ax	; (3D48:11BC=0)
387F:48B1  8E C0				mov	es,ax
387F:48B3  06					push	es
387F:48B4  1E					push	ds
387F:48B5  0E					push	cs
387F:48B6  1F					pop	ds
387F:48B7  33 FF				xor	di,di			; Zero register
387F:48B9  B9 005C				mov	cx,5Ch
387F:48BC  BE 4972				mov	si,4972h
387F:48BF  83 7E 04 00				cmp	word ptr [bp+PARAMETER_1],0
387F:48C3  74 06				je	loc_753			; Jump if equal
387F:48C5  B9 006F				mov	cx,6Fh
387F:48C8 ˙BE 49CE				mov	si,offset data_19	; (387F:49CE=0Eh)
387F:48CB			loc_753:					;  xref 387F:48C3
387F:48CB  F3/ A4				rep	movsb			; Rep when cx >0 Mov [si] to es:[di]
387F:48CD  1F					pop	ds
387F:48CE  8B 36 11B6				mov	si,data_176		; (3D48:11B6=0)
387F:48D2  8B 0E 11B8				mov	cx,data_177		; (3D48:11B8=0)
387F:48D6  F3/ A4				rep	movsb			; Rep when cx >0 Mov [si] to es:[di]
387F:48D8  8B DF				mov	bx,di
387F:48DA  83 7E 04 00				cmp	word ptr [bp+PARAMETER_1],0
387F:48DE  75 10				jne	loc_754			; Jump if not equal
387F:48E0  8B 46 12				mov	ax,[bp+PARAMETER_8]
387F:48E3  AB					stosw				; Store ax to es:[di]
387F:48E4  8B 46 14				mov	ax,[bp+PARAMETER_9]
387F:48E7  AB					stosw				; Store ax to es:[di]
387F:48E8  8B 46 16				mov	ax,[bp+PARAMETER_10]
387F:48EB  AB					stosw				; Store ax to es:[di]
387F:48EC  8B 46 18				mov	ax,[bp+PARAMETER_11]
387F:48EF  AB					stosw				; Store ax to es:[di]
387F:48F0			loc_754:					;  xref 387F:48DE
387F:48F0  8B 76 06				mov	si,[bp+PARAMETER_2]
387F:48F3  8B 4E 08				mov	cx,[bp+PARAMETER_3]
387F:48F6  F3/ A4				rep	movsb			; Rep when cx >0 Mov [si] to es:[di]
387F:48F8  8E 06 0DFE				mov	es,data_128		; (3D48:0DFE=3D48h)
387F:48FC  1E					push	ds
387F:48FD  06					push	es
387F:48FE  1F					pop	ds
387F:48FF ˙BA 0080				mov	dx,offset data_38	; (3D48:0080=65h)
387F:4902  B4 1A				mov	ah,1Ah
387F:4904  CD 21				int	21h			; DOS Services  ah=function 1Ah
										;  set DTA(disk xfer area) ds:dx
387F:4906  1F					pop	ds
387F:4907 ˙BF 0080				mov	di,offset data_38	; (3D48:0080=65h)
387F:490A  8B 76 0A				mov	si,[bp+PARAMETER_4]
387F:490D  8A 0C				mov	cl,[si]
387F:490F  41					inc	cx
387F:4910  41					inc	cx
387F:4911  F3/ A4				rep	movsb			; Rep when cx >0 Mov [si] to es:[di]
387F:4913  8B D3				mov	dx,bx
387F:4915 ˙BF 005C				mov	di,offset data_35+14h	; (3D48:005C='ogram is the Pha')
387F:4918  91					xchg	cx,ax
387F:4919  B9 0020				mov	cx,20h
387F:491C  F3/ AA				rep	stosb			; Rep when cx >0 Store al to es:[di]
387F:491E ˙BF 005C				mov	di,offset data_35+14h	; (3D48:005C='ogram is the Pha')
387F:4921  8B 76 0A				mov	si,[bp+PARAMETER_4]
           ml.lst          Copyright (C) 1986-1991 Phar Lap	Sourcer	v8.01   7-Sep-2022 10:02 am   Page 182

387F:4924  46					inc	si
387F:4925  B8 2901				mov	ax,2901h
387F:4928  CD 21				int	21h			; DOS Services  ah=function 29h
										;  parse filenam @ds:si FCBes:di
										;   al=parsing control flags
387F:492A  3C FF				cmp	al,0FFh
387F:492C  74 02				je	loc_755			; Jump if equal
387F:492E  32 C0				xor	al,al			; Zero register
387F:4930			loc_755:					;  xref 387F:492C
387F:4930  8A D8				mov	bl,al
387F:4932 ˙BF 006C				mov	di,offset data_37	; (3D48:006C='r Lap TNT DOS-Ex')
387F:4935  B8 2901				mov	ax,2901h
387F:4938  CD 21				int	21h			; DOS Services  ah=function 29h
										;  parse filenam @ds:si FCBes:di
										;   al=parsing control flags
387F:493A  3C FF				cmp	al,0FFh
387F:493C  74 02				je	loc_756			; Jump if equal
387F:493E  32 C0				xor	al,al			; Zero register
387F:4940			loc_756:					;  xref 387F:493C
387F:4940  8A F8				mov	bh,al
387F:4942  59					pop	cx
387F:4943  8B F2				mov	si,dx
387F:4945  81 C6 00A0				add	si,0A0h
387F:4949  83 7E 04 00				cmp	word ptr [bp+PARAMETER_1],0
387F:494D  8B EB				mov	bp,bx
387F:494F  FA					cli				; Disable interrupts
387F:4950  8E D1				mov	ss,cx
387F:4952  8B E6				mov	sp,si
387F:4954  FB					sti				; Enable interrupts
387F:4955  75 04				jnz	loc_757			; Jump if not zero
387F:4957  52					push	dx
387F:4958  83 C2 08				add	dx,8
387F:495B			loc_757:					;  xref 387F:4955
387F:495B  8C C0				mov	ax,es
387F:495D  05 0010				add	ax,10h
387F:4960 ˙BB 0100				mov	bx,offset data_40	; (3D48:0100='aph address = %0')
387F:4963  26: 89 07				mov	es:[bx],ax
387F:4966  26: 89 47 02				mov	es:[bx+2],ax
387F:496A  50					push	ax
387F:496B  B8 4B03				mov	ax,4B03h
387F:496E  FF 2E 11BA				jmp	dword ptr data_178	; (3D48:11BA=0)
				sub_139		endp

							                        ;* No entry point to code
387F:4972  0E					push	cs
387F:4973  1F					pop	ds
387F:4974  CD 21				int	21h			; DOS Services  ah=function 00h
										;  terminate, cs=progm seg prefx
387F:4976  73 3E				jnc	loc_761			; Jump if carry=0
387F:4978  BB 0001				mov	bx,1
387F:497B  3C 01				cmp	al,1
387F:497D  74 0E				je	loc_758			; Jump if equal
387F:497F  B3 02				mov	bl,2
387F:4981  3C 0A				cmp	al,0Ah
387F:4983  74 08				je	loc_758			; Jump if equal
387F:4985  B3 01				mov	bl,1
387F:4987  3C 0B				cmp	al,0Bh
           ml.lst          Copyright (C) 1986-1991 Phar Lap	Sourcer	v8.01   7-Sep-2022 10:02 am   Page 183

387F:4989  74 02				je	loc_758			; Jump if equal
387F:498B  33 DB				xor	bx,bx			; Zero register
387F:498D			loc_758:					;  xref 387F:497D, 4983, 4989
387F:498D  0E					push	cs
387F:498E  07					pop	es
387F:498F  33 C0				xor	ax,ax			; Zero register
387F:4991  B9 FFFF				mov	cx,0FFFFh
387F:4994 ˙BF 005C				mov	di,offset data_5	; (387F:005C=0)
387F:4997  0B DB				or	bx,bx			; Zero ?
387F:4999  74 10				jz	loc_760			; Jump if zero
387F:499B  EB 07				jmp	short loc_759		; (49A4)
387F:499D  0007[00]				db	7 dup (0)
387F:49A4			loc_759:					;  xref 387F:499B, 49A9
387F:49A4  F2/ AE				repne	scasb			; Rep zf=0+cx >0 Scan es:[di] for al
387F:49A6  47					inc	di
387F:49A7  47					inc	di
387F:49A8  4B					dec	bx
387F:49A9  75 F9				jnz	loc_759			; Jump if not zero
387F:49AB			loc_760:					;  xref 387F:4999
387F:49AB  8B D7				mov	dx,di
387F:49AD  B4 09				mov	ah,9
387F:49AF  CD 21				int	21h			; DOS Services  ah=function 09h
										;  display char string at ds:dx
387F:49B1  B8 4CFF				mov	ax,4CFFh
387F:49B4  CD 21				int	21h			; DOS Services  ah=function 4Ch
										;  terminate with al=return code
387F:49B6			loc_761:					;  xref 387F:4976
387F:49B6  5F					pop	di
387F:49B7  5E					pop	si
387F:49B8  AD					lodsw				; String [si] to ax
387F:49B9  03 C7				add	ax,di
387F:49BB  92					xchg	dx,ax
387F:49BC  AD					lodsw				; String [si] to ax
387F:49BD  FA					cli				; Disable interrupts
387F:49BE  8E D2				mov	ss,dx
387F:49C0  8B E0				mov	sp,ax
387F:49C2  FB					sti				; Enable interrupts
387F:49C3  AD					lodsw				; String [si] to ax
387F:49C4  03 F8				add	di,ax
387F:49C6  AD					lodsw				; String [si] to ax
387F:49C7  57					push	di
387F:49C8  50					push	ax
387F:49C9  06					push	es
387F:49CA  1F					pop	ds
387F:49CB  8B C5				mov	ax,bp
387F:49CD  CB					retf				; Return far
387F:49CE  0E			data_19		db	0Eh			;  xref 387F:48C8
387F:49CF  1F CD 21 73 3E BB			db	 1Fh,0CDh, 21h, 73h, 3Eh,0BBh
387F:49D5  01 00 3C 01 74 0E			db	 01h, 00h, 3Ch, 01h, 74h, 0Eh
387F:49DB  B3 02 3C 0A 74 08			db	0B3h, 02h, 3Ch, 0Ah, 74h, 08h
387F:49E1  B3 01 3C 0B 74 02			db	0B3h, 01h, 3Ch, 0Bh, 74h, 02h
387F:49E7  33 DB				db	 33h,0DBh
387F:49E9			loc_762:
387F:49E9  0E					push	cs
387F:49EA  07					pop	es
387F:49EB  33 C0				xor	ax,ax			; Zero register
387F:49ED  B9 FFFF				mov	cx,0FFFFh
           ml.lst          Copyright (C) 1986-1991 Phar Lap	Sourcer	v8.01   7-Sep-2022 10:02 am   Page 184

387F:49F0 ˙BF 006F				mov	di,offset data_6	; (387F:006F=0)
387F:49F3  0B DB				or	bx,bx			; Zero ?
387F:49F5  74 10				jz	loc_764			; Jump if zero
387F:49F7  EB 07				jmp	short loc_763		; (4A00)
387F:49F9  0007[00]				db	7 dup (0)
387F:4A00			loc_763:					;  xref 387F:49F7, 4A05
387F:4A00  F2/ AE				repne	scasb			; Rep zf=0+cx >0 Scan es:[di] for al
387F:4A02  47					inc	di
387F:4A03  47					inc	di
387F:4A04  4B					dec	bx
387F:4A05  75 F9				jnz	loc_763			; Jump if not zero
387F:4A07			loc_764:					;  xref 387F:49F5
387F:4A07  8B D7				mov	dx,di
387F:4A09  B4 09				mov	ah,9
387F:4A0B  CD 21				int	21h			; DOS Services  ah=function 09h
										;  display char string at ds:dx
387F:4A0D  B8 4CFF				mov	ax,4CFFh
387F:4A10  CD 21				int	21h			; DOS Services  ah=function 4Ch
										;  terminate with al=return code
387F:4A12			loc_765:
387F:4A12  5F					pop	di
387F:4A13  8C CB				mov	bx,cs
387F:4A15  8C C0				mov	ax,es
387F:4A17  2B D8				sub	bx,ax
387F:4A19  B1 04				mov	cl,4
387F:4A1B  F7 C3 F000				test	bx,0F000h
387F:4A1F  74 03				jz	loc_766			; Jump if zero
387F:4A21 ˙BB 1000				mov	bx,1000h		; (387F:1000=0A9h)
387F:4A24			loc_766:					;  xref 387F:4A1F
387F:4A24  D3 E3				shl	bx,cl			; Shift w/zeros fill
387F:4A26  4B					dec	bx
387F:4A27  4B					dec	bx
387F:4A28  FA					cli				; Disable interrupts
387F:4A29  8E D0				mov	ss,ax
387F:4A2B  8B E3				mov	sp,bx
387F:4A2D  FB					sti				; Enable interrupts
387F:4A2E  36: C7 07 0000			mov	word ptr ss:[bx],0
387F:4A33  06					push	es
387F:4A34  B8 0100				mov	ax,100h
387F:4A37  50					push	ax
387F:4A38  06					push	es
387F:4A39  1F					pop	ds
387F:4A3A  8B C5				mov	ax,bp
387F:4A3C  CB					retf				; Return far
387F:4A3D  00					db	0

				;ﬂﬂﬂﬂﬂﬂﬂﬂﬂﬂﬂﬂﬂﬂﬂﬂﬂﬂﬂﬂﬂﬂﬂﬂﬂﬂﬂﬂﬂﬂﬂﬂﬂﬂﬂﬂﬂﬂﬂﬂﬂﬂﬂﬂﬂﬂﬂﬂﬂﬂﬂﬂﬂﬂﬂﬂﬂﬂﬂﬂﬂﬂﬂﬂﬂﬂﬂﬂﬂﬂﬂﬂﬂﬂ
				;                              SUBROUTINE
				;
				;         Called from:   387F:3E6C
				;‹‹‹‹‹‹‹‹‹‹‹‹‹‹‹‹‹‹‹‹‹‹‹‹‹‹‹‹‹‹‹‹‹‹‹‹‹‹‹‹‹‹‹‹‹‹‹‹‹‹‹‹‹‹‹‹‹‹‹‹‹‹‹‹‹‹‹‹‹‹‹‹‹‹

387F:4A3E			sub_140		proc	near

				PARAMETER_1	=	4			; bp+4
				PARAMETER_2	=	6			; bp+6
				PARAMETER_3	=	8			; bp+8
           ml.lst          Copyright (C) 1986-1991 Phar Lap	Sourcer	v8.01   7-Sep-2022 10:02 am   Page 185

				LOCAL_3		=	-6			; bp+0FFFAh
				LOCAL_2		=	-4			; bp+0FFFCh
				LOCAL_1		=	-2			; bp+0FFFEh

387F:4A3E  55					push	bp
387F:4A3F  8B EC				mov	bp,sp
387F:4A41  83 EC 06				sub	sp,6
387F:4A44  57					push	di
387F:4A45  56					push	si
387F:4A46  C7 46 FC 0000			mov	word ptr [bp+LOCAL_2],0
387F:4A4B ˙FF 76 08				push	word ptr [bp+PARAMETER_3]	; PARAMETER_3
387F:4A4E  FF 76 06				push	word ptr [bp+PARAMETER_2]	; PARAMETER_2
387F:4A51  FF 76 04				push	word ptr [bp+PARAMETER_1]	; PARAMETER_1
387F:4A54  E8 F30B				call	sub_123			; (3D62)
387F:4A57  83 C4 06				add	sp,6
387F:4A5A  83 3E 0DF8 02			cmp	data_126,2		; (3D48:0DF8=0)
387F:4A5F  74 03				je	loc_767			; Jump if equal
387F:4A61  E9 0101				jmp	loc_779			; (4B65)
387F:4A64			loc_767:					;  xref 387F:4A5F
387F:4A64  B8 005C				mov	ax,5Ch
387F:4A67 ˙50					push	ax			; PARAMETER_2
387F:4A68  FF 76 04				push	word ptr [bp+PARAMETER_1]	; PARAMETER_1
387F:4A6B  E8 DE6A				call	sub_76			; (28D8)
387F:4A6E  83 C4 04				add	sp,4
387F:4A71  0B C0				or	ax,ax			; Zero ?
387F:4A73  74 03				jz	loc_768			; Jump if zero
387F:4A75  E9 00ED				jmp	loc_779			; (4B65)
387F:4A78			loc_768:					;  xref 387F:4A73
387F:4A78  B8 002F				mov	ax,2Fh
387F:4A7B ˙50					push	ax			; PARAMETER_2
387F:4A7C  FF 76 04				push	word ptr [bp+PARAMETER_1]	; PARAMETER_1
387F:4A7F  E8 DE56				call	sub_76			; (28D8)
387F:4A82  83 C4 04				add	sp,4
387F:4A85  0B C0				or	ax,ax			; Zero ?
387F:4A87  74 03				jz	loc_769			; Jump if zero
387F:4A89  E9 00D9				jmp	loc_779			; (4B65)
387F:4A8C			loc_769:					;  xref 387F:4A87
387F:4A8C  8B 5E 04				mov	bx,[bp+PARAMETER_1]
387F:4A8F  80 3F 00				cmp	byte ptr [bx],0
387F:4A92  74 09				je	loc_770			; Jump if equal
387F:4A94  80 7F 01 3A				cmp	byte ptr [bx+1],3Ah	; ':'
387F:4A98  75 03				jne	loc_770			; Jump if not equal
387F:4A9A  E9 00C8				jmp	loc_779			; (4B65)
387F:4A9D			loc_770:					;  xref 387F:4A92, 4A98
387F:4A9D  B8 11BE				mov	ax,11BEh
387F:4AA0 ˙50					push	ax			; PARAMETER_1
387F:4AA1  E8 DB98				call	sub_70			; (263C)
387F:4AA4  83 C4 02				add	sp,2
387F:4AA7  8B F0				mov	si,ax
387F:4AA9  0B F6				or	si,si			; Zero ?
387F:4AAB  75 03				jnz	loc_771			; Jump if not zero
387F:4AAD  E9 00B5				jmp	loc_779			; (4B65)
387F:4AB0			loc_771:					;  xref 387F:4AAB
387F:4AB0  B8 0104				mov	ax,104h
387F:4AB3  50					push	ax
387F:4AB4  E8 DAEF				call	sub_65			; (25A6)
387F:4AB7  83 C4 02				add	sp,2
           ml.lst          Copyright (C) 1986-1991 Phar Lap	Sourcer	v8.01   7-Sep-2022 10:02 am   Page 186

387F:4ABA  8B F8				mov	di,ax
387F:4ABC  89 7E FC				mov	[bp+LOCAL_2],di
387F:4ABF  0B FF				or	di,di			; Zero ?
387F:4AC1  75 03				jnz	loc_772			; Jump if not zero
387F:4AC3  E9 009F				jmp	loc_779			; (4B65)
387F:4AC6			loc_772:					;  xref 387F:4AC1
387F:4AC6  EB 15				jmp	short loc_774		; (4ADD)
387F:4AC8			loc_773:					;  xref 387F:4AE0
387F:4AC8  80 3C 3B				cmp	byte ptr [si],3Bh	; ';'
387F:4ACB  74 15				je	loc_775			; Jump if equal
387F:4ACD  8B 46 FC				mov	ax,[bp+LOCAL_2]
387F:4AD0  05 0102				add	ax,102h
387F:4AD3  3B C7				cmp	ax,di
387F:4AD5  76 0B				jbe	loc_775			; Jump if below or =
387F:4AD7  8A 04				mov	al,[si]
387F:4AD9  88 05				mov	[di],al
387F:4ADB  46					inc	si
387F:4ADC  47					inc	di
387F:4ADD			loc_774:					;  xref 387F:4AC6, 4B62
387F:4ADD ˙80 3C 00				cmp	byte ptr [si],0
387F:4AE0  75 E6				jne	loc_773			; Jump if not equal
387F:4AE2			loc_775:					;  xref 387F:4ACB, 4AD5
387F:4AE2  C6 05 00				mov	byte ptr [di],0
387F:4AE5  4F					dec	di
387F:4AE6  89 7E FE				mov	[bp+LOCAL_1],di
387F:4AE9  8B 7E FC				mov	di,[bp+LOCAL_2]
387F:4AEC  8B 5E FE				mov	bx,[bp+LOCAL_1]
387F:4AEF  80 3F 5C				cmp	byte ptr [bx],5Ch	; '\'
387F:4AF2  74 10				je	loc_776			; Jump if equal
387F:4AF4  80 3F 2F				cmp	byte ptr [bx],2Fh	; '/'
387F:4AF7  74 0B				je	loc_776			; Jump if equal
387F:4AF9  B8 11C3				mov	ax,11C3h
387F:4AFC ˙50					push	ax			; PARAMETER_2
387F:4AFD  57					push	di			; PARAMETER_1
387F:4AFE  E8 DAAD				call	sub_67			; (25AE)
387F:4B01  83 C4 04				add	sp,4
387F:4B04			loc_776:					;  xref 387F:4AF2, 4AF7
387F:4B04 ˙57					push	di			; PARAMETER_1
387F:4B05  E8 DB18				call	sub_69			; (2620)
387F:4B08  83 C4 02				add	sp,2
387F:4B0B ˙FF 76 04				push	word ptr [bp+PARAMETER_1]	; PARAMETER_1
387F:4B0E  89 46 FA				mov	[bp+LOCAL_3],ax
387F:4B11  E8 DB0C				call	sub_69			; (2620)
387F:4B14  83 C4 02				add	sp,2
387F:4B17  03 46 FA				add	ax,[bp+LOCAL_3]
387F:4B1A  3D 0104				cmp	ax,104h
387F:4B1D  73 46				jae	loc_779			; Jump if above or =
387F:4B1F ˙FF 76 04				push	word ptr [bp+PARAMETER_1]	; PARAMETER_2
387F:4B22  57					push	di			; PARAMETER_1
387F:4B23  E8 DA88				call	sub_67			; (25AE)
387F:4B26  83 C4 04				add	sp,4
387F:4B29 ˙FF 76 08				push	word ptr [bp+PARAMETER_3]	; PARAMETER_3
387F:4B2C  FF 76 06				push	word ptr [bp+PARAMETER_2]	; PARAMETER_2
387F:4B2F  57					push	di			; PARAMETER_1
387F:4B30  E8 F22F				call	sub_123			; (3D62)
387F:4B33  83 C4 06				add	sp,6
387F:4B36  83 3E 0DF8 02			cmp	data_126,2		; (3D48:0DF8=0)
           ml.lst          Copyright (C) 1986-1991 Phar Lap	Sourcer	v8.01   7-Sep-2022 10:02 am   Page 187

387F:4B3B  74 16				je	loc_778			; Jump if equal
387F:4B3D  80 3D 5C				cmp	byte ptr [di],5Ch	; '\'
387F:4B40  74 05				je	loc_777			; Jump if equal
387F:4B42  80 3D 2F				cmp	byte ptr [di],2Fh	; '/'
387F:4B45  75 1E				jne	loc_779			; Jump if not equal
387F:4B47			loc_777:					;  xref 387F:4B40
387F:4B47  80 7D 01 5C				cmp	byte ptr [di+1],5Ch	; '\'
387F:4B4B  74 06				je	loc_778			; Jump if equal
387F:4B4D  80 7D 01 2F				cmp	byte ptr [di+1],2Fh	; '/'
387F:4B51  75 12				jne	loc_779			; Jump if not equal
387F:4B53			loc_778:					;  xref 387F:4B3B, 4B4B
387F:4B53  80 3C 00				cmp	byte ptr [si],0
387F:4B56  74 0D				je	loc_779			; Jump if equal
387F:4B58  89 76 FA				mov	[bp+LOCAL_3],si
387F:4B5B  46					inc	si
387F:4B5C  83 7E FA 00				cmp	word ptr [bp+LOCAL_3],0
387F:4B60  74 03				je	loc_779			; Jump if equal
387F:4B62  E9 FF78				jmp	loc_774			; (4ADD)
387F:4B65			loc_779:					;  xref 387F:4A61, 4A75, 4A89, 4A9A
										;            4AAD, 4AC3, 4B1D, 4B45
										;            4B51, 4B56, 4B60
387F:4B65  83 7E FC 00				cmp	word ptr [bp+LOCAL_2],0
387F:4B69  74 09				je	loc_780			; Jump if equal
387F:4B6B  FF 76 FC				push	word ptr [bp+LOCAL_2]
387F:4B6E  E8 DA39				call	sub_66			; (25AA)
387F:4B71  83 C4 02				add	sp,2
387F:4B74			loc_780:					;  xref 387F:4B69
387F:4B74  B8 FFFF				mov	ax,0FFFFh
387F:4B77  5E					pop	si
387F:4B78  5F					pop	di
387F:4B79  8B E5				mov	sp,bp
387F:4B7B  5D					pop	bp
387F:4B7C  C3					retn
				sub_140		endp

387F:4B7D  90					db	90h

				;ﬂﬂﬂﬂﬂﬂﬂﬂﬂﬂﬂﬂﬂﬂﬂﬂﬂﬂﬂﬂﬂﬂﬂﬂﬂﬂﬂﬂﬂﬂﬂﬂﬂﬂﬂﬂﬂﬂﬂﬂﬂﬂﬂﬂﬂﬂﬂﬂﬂﬂﬂﬂﬂﬂﬂﬂﬂﬂﬂﬂﬂﬂﬂﬂﬂﬂﬂﬂﬂﬂﬂﬂﬂﬂ
				;                              SUBROUTINE
				;
				;         Called from:   387F:3E2D
				;‹‹‹‹‹‹‹‹‹‹‹‹‹‹‹‹‹‹‹‹‹‹‹‹‹‹‹‹‹‹‹‹‹‹‹‹‹‹‹‹‹‹‹‹‹‹‹‹‹‹‹‹‹‹‹‹‹‹‹‹‹‹‹‹‹‹‹‹‹‹‹‹‹‹

387F:4B7E			sub_141		proc	near
387F:4B7E ˙55					push	bp
387F:4B7F  8B EC				mov	bp,sp
387F:4B81  8B 56 04				mov	dx,[bp+4]
387F:4B84  B8 4300				mov	ax,4300h
387F:4B87  CD 21				int	21h			; DOS Services  ah=function 43h
										;  get attrb cx, filename @ds:dx
387F:4B89  72 0F				jc	loc_781			; Jump if carry Set
387F:4B8B  F6 46 06 02				test	byte ptr [bp+6],2
387F:4B8F  74 09				jz	loc_781			; Jump if zero
387F:4B91  F6 C1 01				test	cl,1
387F:4B94  74 04				jz	loc_781			; Jump if zero
387F:4B96  B8 0D00				mov	ax,0D00h
387F:4B99  F9					stc				; Set carry flag
           ml.lst          Copyright (C) 1986-1991 Phar Lap	Sourcer	v8.01   7-Sep-2022 10:02 am   Page 188

387F:4B9A			loc_781:					;  xref 387F:4B89, 4B8F, 4B94
387F:4B9A  E9 E323				jmp	loc_369			; (2EC0)
				sub_141		endp

387F:4B9D  00					db	0

				;ﬂﬂﬂﬂﬂﬂﬂﬂﬂﬂﬂﬂﬂﬂﬂﬂﬂﬂﬂﬂﬂﬂﬂﬂﬂﬂﬂﬂﬂﬂﬂﬂﬂﬂﬂﬂﬂﬂﬂﬂﬂﬂﬂﬂﬂﬂﬂﬂﬂﬂﬂﬂﬂﬂﬂﬂﬂﬂﬂﬂﬂﬂﬂﬂﬂﬂﬂﬂﬂﬂﬂﬂﬂﬂ
				;                              SUBROUTINE
				;
				;         Called from:   387F:4119
				;‹‹‹‹‹‹‹‹‹‹‹‹‹‹‹‹‹‹‹‹‹‹‹‹‹‹‹‹‹‹‹‹‹‹‹‹‹‹‹‹‹‹‹‹‹‹‹‹‹‹‹‹‹‹‹‹‹‹‹‹‹‹‹‹‹‹‹‹‹‹‹‹‹‹

387F:4B9E			sub_142		proc	near
387F:4B9E  59					pop	cx
387F:4B9F  A1 1196				mov	ax,data_165		; (3D48:1196=1880h)
387F:4BA2  3B C4				cmp	ax,sp
387F:4BA4  73 06				jae	loc_783			; Jump if above or =
387F:4BA6  2B C4				sub	ax,sp
387F:4BA8  F7 D8				neg	ax
387F:4BAA			loc_782:					;  xref 387F:4BAE
387F:4BAA ˙FF E1				jmp	cx			;*Register jump
387F:4BAC			loc_783:					;  xref 387F:4BA4
387F:4BAC  33 C0				xor	ax,ax			; Zero register
387F:4BAE  EB FA				jmp	short loc_782		; (4BAA)
				sub_142		endp


				;ﬂﬂﬂﬂﬂﬂﬂﬂﬂﬂﬂﬂﬂﬂﬂﬂﬂﬂﬂﬂﬂﬂﬂﬂﬂﬂﬂﬂﬂﬂﬂﬂﬂﬂﬂﬂﬂﬂﬂﬂﬂﬂﬂﬂﬂﬂﬂﬂﬂﬂﬂﬂﬂﬂﬂﬂﬂﬂﬂﬂﬂﬂﬂﬂﬂﬂﬂﬂﬂﬂﬂﬂﬂﬂ
				;                              SUBROUTINE
				;
				;         Called from:   387F:438C, 43BE
				;‹‹‹‹‹‹‹‹‹‹‹‹‹‹‹‹‹‹‹‹‹‹‹‹‹‹‹‹‹‹‹‹‹‹‹‹‹‹‹‹‹‹‹‹‹‹‹‹‹‹‹‹‹‹‹‹‹‹‹‹‹‹‹‹‹‹‹‹‹‹‹‹‹‹

387F:4BB0			sub_143		proc	near

				LOCAL_1		=	-2			; bp+0FFFEh

387F:4BB0  55					push	bp
387F:4BB1  8B EC				mov	bp,sp
387F:4BB3  83 EC 02				sub	sp,2
387F:4BB6  56					push	si
387F:4BB7  57					push	di
387F:4BB8  FC					cld				; Clear direction
387F:4BB9  C7 46 FE 0000			mov	word ptr [bp+LOCAL_1],0
387F:4BBE  41					inc	cx
387F:4BBF  74 05				jz	loc_784			; Jump if zero
387F:4BC1  80 E1 FE				and	cl,0FEh
387F:4BC4  EB 01				jmp	short loc_785		; (4BC7)
387F:4BC6			loc_784:					;  xref 387F:4BBF
387F:4BC6  49					dec	cx
387F:4BC7			loc_785:					;  xref 387F:4BC4
387F:4BC7  4E					dec	si
387F:4BC8  4E					dec	si
387F:4BC9  8B FE				mov	di,si
387F:4BCB  AD					lodsw				; String [si] to ax
387F:4BCC  50					push	ax
387F:4BCD  24 FE				and	al,0FEh
           ml.lst          Copyright (C) 1986-1991 Phar Lap	Sourcer	v8.01   7-Sep-2022 10:02 am   Page 189

387F:4BCF  89 05				mov	[di],ax
387F:4BD1  8B D0				mov	dx,ax
387F:4BD3			loc_786:					;  xref 387F:4BE6, 4C2C
387F:4BD3 ˙3B D1				cmp	dx,cx
387F:4BD5  73 68				jae	loc_794			; Jump if above or =
387F:4BD7  03 F0				add	si,ax
387F:4BD9  72 5A				jc	loc_792			; Jump if carry Set
387F:4BDB  AD					lodsw				; String [si] to ax
387F:4BDC  A8 01				test	al,1
387F:4BDE  74 08				jz	loc_787			; Jump if zero
387F:4BE0  03 D0				add	dx,ax
387F:4BE2  42					inc	dx
387F:4BE3  89 15				mov	[di],dx
387F:4BE5  48					dec	ax
387F:4BE6  EB EB				jmp	short loc_786		; (4BD3)
387F:4BE8			loc_787:					;  xref 387F:4BDE
387F:4BE8  3D FFFE				cmp	ax,0FFFEh
387F:4BEB  75 41				jne	loc_791			; Jump if not equal
387F:4BED  F6 47 02 01				test	byte ptr [bx+2],1
387F:4BF1  74 3B				jz	loc_791			; Jump if zero
387F:4BF3  8D 45 04				lea	ax,[di+4]		; Load effective addr
387F:4BF6  03 C1				add	ax,cx
387F:4BF8  73 07				jnc	loc_788			; Jump if carry=0
387F:4BFA  C7 46 FE 0001			mov	word ptr [bp+LOCAL_1],1
387F:4BFF  2B C8				sub	cx,ax
387F:4C01			loc_788:					;  xref 387F:4BF8
387F:4C01  FF 05				inc	word ptr [di]
387F:4C03  3B 7F 08				cmp	di,[bx+8]
387F:4C06  73 03				jae	loc_789			; Jump if above or =
387F:4C08  89 7F 08				mov	[bx+8],di
387F:4C0B			loc_789:					;  xref 387F:4C06, 4C23
387F:4C0B ˙52					push	dx
387F:4C0C  56					push	si
387F:4C0D  E8 F666				call	sub_134			; (4276)
387F:4C10  5E					pop	si
387F:4C11  5A					pop	dx
387F:4C12  73 11				jnc	loc_790			; Jump if carry=0
387F:4C14  C7 46 FE 0001			mov	word ptr [bp+LOCAL_1],1
387F:4C19  83 F9 10				cmp	cx,10h
387F:4C1C  72 10				jb	loc_791			; Jump if below
387F:4C1E  D1 E9				shr	cx,1			; Shift w/zeros fill
387F:4C20  83 D1 00				adc	cx,0
387F:4C23  EB E6				jmp	short loc_789		; (4C0B)
387F:4C25			loc_790:					;  xref 387F:4C12
387F:4C25  FF 0D				dec	word ptr [di]
387F:4C27  8D 75 02				lea	si,[di+2]		; Load effective addr
387F:4C2A  8B C2				mov	ax,dx
387F:4C2C  EB A5				jmp	short loc_786		; (4BD3)
387F:4C2E			loc_791:					;  xref 387F:4BEB, 4BF1, 4C1C
387F:4C2E  B8 0001				mov	ax,1
387F:4C31  4E					dec	si
387F:4C32  4E					dec	si
387F:4C33  EB 23				jmp	short loc_795		; (4C58)
387F:4C35			loc_792:					;  xref 387F:4BD9, 4C50
387F:4C35  5A					pop	dx
387F:4C36  F9					stc				; Set carry flag
387F:4C37  EB 39				jmp	short loc_797		; (4C72)
           ml.lst          Copyright (C) 1986-1991 Phar Lap	Sourcer	v8.01   7-Sep-2022 10:02 am   Page 190

387F:4C39			loc_793:					;  xref 387F:4C44
387F:4C39  46					inc	si
387F:4C3A  46					inc	si
387F:4C3B  03 F1				add	si,cx
387F:4C3D  EB 19				jmp	short loc_795		; (4C58)
387F:4C3F			loc_794:					;  xref 387F:4BD5
387F:4C3F  8B 46 FE				mov	ax,[bp+LOCAL_1]
387F:4C42  8B F7				mov	si,di
387F:4C44  74 F3				jz	loc_793			; Jump if zero
387F:4C46  0B C0				or	ax,ax			; Zero ?
387F:4C48  75 0E				jnz	loc_795			; Jump if not zero
387F:4C4A  89 0D				mov	[di],cx
387F:4C4C  46					inc	si
387F:4C4D  46					inc	si
387F:4C4E  03 F1				add	si,cx
387F:4C50  72 E3				jc	loc_792			; Jump if carry Set
387F:4C52  2B D1				sub	dx,cx
387F:4C54  4A					dec	dx
387F:4C55  89 14				mov	[si],dx
387F:4C57  4A					dec	dx
387F:4C58			loc_795:					;  xref 387F:4C33, 4C3D, 4C48
387F:4C58  59					pop	cx
387F:4C59  91					xchg	cx,ax
387F:4C5A  25 0001				and	ax,1
387F:4C5D  83 25 FE				and	word ptr [di],0FFFEh
387F:4C60  09 05				or	[di],ax
387F:4C62  8B 57 08				mov	dx,[bx+8]
387F:4C65  3B FA				cmp	di,dx
387F:4C67  73 07				jae	loc_796			; Jump if above or =
387F:4C69  3B F2				cmp	si,dx
387F:4C6B  76 03				jbe	loc_796			; Jump if below or =
387F:4C6D  89 7F 08				mov	[bx+8],di
387F:4C70			loc_796:					;  xref 387F:4C67, 4C6B
387F:4C70  F7 D9				neg	cx
387F:4C72			loc_797:					;  xref 387F:4C37
387F:4C72  5F					pop	di
387F:4C73  5E					pop	si
387F:4C74  8B E5				mov	sp,bp
387F:4C76  5D					pop	bp
387F:4C77  C3					retn
				sub_143		endp

387F:4C78  0008[00]				db	8 dup (0)

				seg_b		ends



				;------------------------------------------------------------  seg_c   ----

				seg_c		segment	byte public
						assume cs:seg_c  , ds:seg_d , ss:stack_seg_e

3D47:0000  48			data_23		db	48h			;  xref 387F:46EC
3D47:0001  003D			data_24		dw	3Dh			;  xref 387F:46D8
3D47:0003  0000			data_25		dw	0			;  xref 387F:46E6
3D47:0005  000B[00]				db	11 dup (0)
           ml.lst          Copyright (C) 1986-1991 Phar Lap	Sourcer	v8.01   7-Sep-2022 10:02 am   Page 191


				seg_c		ends



				;------------------------------------------------------------  seg_d   ----

				seg_d		segment	byte public
						assume cs:seg_d  , ds:seg_d , ss:stack_seg_e

3D48:0000  00					db	0
3D48:0001  00			data_27		db	0			;  xref 387F:2C8F
3D48:0002  0000			data_28		dw	0			;  xref 387F:2128, 387F:2183
										;       387F:48A3
3D48:0004  00 00 00 00				db	0, 0, 0, 0
3D48:0008  4D 53 20 52 75 6E			db	'MS Run-Time'
3D48:000E  2D 54 69 6D 65
3D48:0013  4C20			data_30		dw	4C20h			; Data table (indexed access)
3D48:0015  69 62 72 61 72 79			db	'ibrary - '
3D48:001B  20 2D 20
3D48:001E  43 6F 70 79 72 69	copyright	db	'Copyright (c) 1990, Microsoft Co'
3D48:0024  67 68 74 20 28 63
3D48:002A  29 20 31 39 39 30
3D48:0030  2C 20 4D 69 63 72
3D48:0036  6F 73 6F 66 74 20
3D48:003C  43 6F
3D48:003E  72 70				db	'rp'
3D48:0040  18 00				db	 18h, 00h
3D48:0042  0100			data_32		dw	100h			;  xref 387F:0647, 387F:0687
										;       387F:06AF
3D48:0044  387F			data_33		dw	seg_b			;  xref 387F:0650, 387F:0683
										;       387F:06AB
3D48:0046  0400			data_34		dw	400h			;  xref 387F:0E07
3D48:0048  54 4E 54 4E 41 4D	data_35		db	'TNTNAME', 0
3D48:004E  45 00
3D48:0050  2E 65 78 65 00			db	'.exe', 0
3D48:0055  54 68 69 73 20 70			db	'This program is the Phar Lap TNT'
3D48:005B  72 6F 67 72 61 6D
3D48:0061  20 69 73 20 74 68
3D48:0067  65 20 50 68 61 72
3D48:006D  20 4C 61 70 20 54
3D48:0073  4E 54
3D48:0075  20 44 4F 53 2D 45			db	' DOS-Extender stub loader.', 0Ah
3D48:007B  78 74 65 6E 64 65
3D48:0081  72 20 73 74 75 62
3D48:0087  20 6C 6F 61 64 65
3D48:008D  72 2E 0A
3D48:0090  00					db	0
3D48:0091  47 4F 54 4E 54 5F			db	'GOTNT_DEBUG', 0
3D48:0097  44 45 42 55 47 00
3D48:009D  54 4E 54 20 49 4E			db	'TNT INT 2FH, rc=%04X, sign1=%04X'
3D48:00A3  54 20 32 46 48 2C
3D48:00A9  20 72 63 3D 25 30
3D48:00AF  34 58 2C 20 73 69
3D48:00B5  67 6E 31 3D 25 30
3D48:00BB  34 58
3D48:00BD  2C 20 73 69 67 6E			db	', sign2=%04X', 0Ah, 0
           ml.lst          Copyright (C) 1986-1991 Phar Lap	Sourcer	v8.01   7-Sep-2022 10:02 am   Page 192

3D48:00C3  32 3D 25 30 34 58
3D48:00C9  0A 00
3D48:00CB  55 73 69 6E 67 20			db	'Using resident TNT to load and e'
3D48:00D1  72 65 73 69 64 65
3D48:00D7  6E 74 20 54 4E 54
3D48:00DD  20 74 6F 20 6C 6F
3D48:00E3  61 64 20 61 6E 64
3D48:00E9  20 65
3D48:00EB  78 65 63 75 74 65			db	'xecute %s', 0Ah, 0
3D48:00F1  20 25 73 0A 00
3D48:00F6  50 53 50 20 70 61			db	'PSP paragraph address = %04X', 0Ah
3D48:00FC  72 61 67 72 61 70
3D48:0102  68 20 61 64 64 72
3D48:0108  65 73 73 20 3D 20
3D48:010E  25 30 34 58 0A
3D48:0113  00					db	0
3D48:0114  53 68 72 69 6E 6B			db	'Shrink paragraph count = %04X', 0Ah
3D48:011A  20 70 61 72 61 67
3D48:0120  72 61 70 68 20 63
3D48:0126  6F 75 6E 74 20 3D
3D48:012C  20 25 30 34 58 0A
3D48:0132  00					db	0
3D48:0133  4E 65 77 20 73 74			db	'New stack pointer = %Fp', 0Ah
3D48:0139  61 63 6B 20 70 6F
3D48:013F  69 6E 74 65 72 20
3D48:0145  3D 20 25 46 70 0A
3D48:014B  00 00 02				db	0, 0, 2
3D48:014E  00			data_42		db	0			;  xref 387F:1CCB, 387F:1CD2
3D48:014F  01C5[00]				db	453 dup (0)
3D48:0314  0000			data_44		dw	0			;  xref 020A:068E
3D48:0316  0038[00]				db	56 dup (0)
3D48:034E  54			data_45		db	54h			;  xref 387F:07A8
3D48:034F  4E 54 00 B7 D3 B4			db	 4Eh, 54h, 00h,0B7h,0D3h,0B4h
3D48:0355  B0 BD BC 35 96 4D			db	0B0h,0BDh,0BCh, 35h, 96h, 4Dh
3D48:035B  53 00 DE F4 9A 4C			db	 53h, 00h,0DEh,0F4h, 9Ah, 4Ch
3D48:0361  75 A3 F8 DE 42 4D			db	 75h,0A3h,0F8h,0DEh, 42h, 4Dh
3D48:0367  53 4F 46 54 31 00			db	 53h, 4Fh, 46h, 54h, 31h, 00h
3D48:036D  007A[00]				db	122 dup (0)
3D48:03E7  01					db	1
3D48:03E8  64 6F 73 78 6E 74			db	'dosxnt.exe'
3D48:03EE  2E 65 78 65
3D48:03F2  00F6[00]				db	246 dup (0)
3D48:04E8  0D 0A 00				db	0Dh, 0Ah, 0
3D48:04EB  43 6F 70 79 72 69			db	'Copyright (C) 1986-92 Phar Lap S'
3D48:04F1  67 68 74 20 28 43
3D48:04F7  29 20 31 39 38 36
3D48:04FD  2D 39 32 20 50 68
3D48:0503  61 72 20 4C 61 70
3D48:0509  20 53
3D48:050B  6F 66 74 77 61 72			db	'oftware, Inc.', 0
3D48:0511  65 2C 20 49 6E 63
3D48:0517  2E 00
3D48:0519  20 2D 2D 20 00			db	' -- ', 0
3D48:051E  47 4F 54 4E 54 44			db	'GOTNTDX: ', 0
3D48:0524  58 3A 20 00
3D48:0528  2D 00				db	'-', 0
3D48:052A  53 65 72 69 61 6C			db	'Serial Number '
           ml.lst          Copyright (C) 1986-1991 Phar Lap	Sourcer	v8.01   7-Sep-2022 10:02 am   Page 193

3D48:0530  20 4E 75 6D 62 65
3D48:0536  72 20
3D48:0538  00 00				db	0, 0
3D48:053A  0000			data_49		dw	0			;  xref 387F:0782, 387F:0785
3D48:053C  2D					db	2Dh
3D48:053D  67 6F 74 6E 74 76			db	'gotntversion 0%04Xh ', 0
3D48:0543  65 72 73 69 6F 6E
3D48:0549  20 30 25 30 34 58
3D48:054F  68 20 00
3D48:0552  4F 75 74 20 6F 66			db	'Out of memory', 0Dh, 0Ah, 0
3D48:0558  20 6D 65 6D 6F 72
3D48:055E  79 0D 0A 00
3D48:0562  20 00				db	' ', 0
3D48:0564  47 4F 54 4E 54 3D			db	'GOTNT=-gotnt ', 0
3D48:056A  2D 67 6F 74 6E 74
3D48:0570  20 00
3D48:0572  4F 75 74 20 6F 66			db	'Out of memory', 0Dh, 0Ah, 0
3D48:0578  20 6D 65 6D 6F 72
3D48:057E  79 0D 0A 00
3D48:0582  20 74 6F 20 62 65			db	' to be in your path', 0Dh, 0Ah, 0
3D48:0588  20 69 6E 20 79 6F
3D48:058E  75 72 20 70 61 74
3D48:0594  68 0D 0A 00
3D48:0598  54 68 69 73 20 70			db	'This program requires ', 0
3D48:059E  72 6F 67 72 61 6D
3D48:05A4  20 72 65 71 75 69
3D48:05AA  72 65 73 20 00
3D48:05AF  55 6E 6B 6E 6F 77			db	'Unknown error', 0
3D48:05B5  6E 20 65 72 72 6F
3D48:05BB  72 00
3D48:05BD  20 2D 2D 20 00			db	' -- ', 0
3D48:05C2  43 61 6E 6E 6F 74			db	'Cannot execute ', 0
3D48:05C8  20 65 78 65 63 75
3D48:05CE  74 65 20 00
3D48:05D2  50 41 54 48 00			db	'PATH', 0
3D48:05D7  61 72 67 76 5B 30			db	'argv[0] = %s', 0Ah, 0
3D48:05DD  5D 20 3D 20 25 73
3D48:05E3  0A 00
3D48:05E5  50 61 74 68 20 65			db	'Path environment variable = %s', 0Ah
3D48:05EB  6E 76 69 72 6F 6E
3D48:05F1  6D 65 6E 74 20 76
3D48:05F7  61 72 69 61 62 6C
3D48:05FD  65 20 3D 20 25 73
3D48:0603  0A
3D48:0604  00					db	0
3D48:0605  41 70 70 6C 69 63			db	'Application parent directory = %'
3D48:060B  61 74 69 6F 6E 20
3D48:0611  70 61 72 65 6E 74
3D48:0617  20 64 69 72 65 63
3D48:061D  74 6F 72 79 20 3D
3D48:0623  20 25
3D48:0625  73 0A 00				db	's', 0Ah, 0
3D48:0628  2E 00				db	'.', 0
3D48:062A  54 72 79 20 23 25			db	'Try #%d - %s', 0Ah, 0
3D48:0630  64 20 2D 20 25 73
3D48:0636  0A 00
3D48:0638  4E 6F 74 20 65 6E			db	'Not enough memory to load %s', 0Ah
           ml.lst          Copyright (C) 1986-1991 Phar Lap	Sourcer	v8.01   7-Sep-2022 10:02 am   Page 194

3D48:063E  6F 75 67 68 20 6D
3D48:0644  65 6D 6F 72 79 20
3D48:064A  74 6F 20 6C 6F 61
3D48:0650  64 20 25 73 0A
3D48:0655  00					db	0
3D48:0656  2D 64 70 6D 69 63			db	'-dpmiclient -gotnt %s -memhand 0'
3D48:065C  6C 69 65 6E 74 20
3D48:0662  2D 67 6F 74 6E 74
3D48:0668  20 25 73 20 2D 6D
3D48:066E  65 6D 68 61 6E 64
3D48:0674  20 30
3D48:0676  25 30 38 6C 58 48			db	'%08lXH -realshrink 0%04XH 0%04XH'
3D48:067C  20 2D 72 65 61 6C
3D48:0682  73 68 72 69 6E 6B
3D48:0688  20 30 25 30 34 58
3D48:068E  48 20 30 25 30 34
3D48:0694  58 48
3D48:0696  20 2D 74 6E 74 6E			db	' -tntname %s -gotntversion 0%04X'
3D48:069C  61 6D 65 20 25 73
3D48:06A2  20 2D 67 6F 74 6E
3D48:06A8  74 76 65 72 73 69
3D48:06AE  6F 6E 20 30 25 30
3D48:06B4  34 58
3D48:06B6  68 20 25 73 00			db	'h %s', 0
3D48:06BB  4F 75 74 64 61 74			db	'Outdated version of %s.', 0Ah, 0
3D48:06C1  65 64 20 76 65 72
3D48:06C7  73 69 6F 6E 20 6F
3D48:06CD  66 20 25 73 2E 0A
3D48:06D3  00
3D48:06D4  43 53 3A 45 49 50			db	'CS:EIP=%04X:%08lX  SS:ESP=%04X:%'
3D48:06DA  3D 25 30 34 58 3A
3D48:06E0  25 30 38 6C 58 20
3D48:06E6  20 53 53 3A 45 53
3D48:06EC  50 3D 25 30 34 58
3D48:06F2  3A 25
3D48:06F4  30 38 6C 58 20 20			db	'08lX  ds=%04X es=%04X', 0Ah, 0
3D48:06FA  64 73 3D 25 30 34
3D48:0700  58 20 65 73 3D 25
3D48:0706  30 34 58 0A 00
3D48:070B  54 68 69 73 20 70			db	'This program requires %s to be i'
3D48:0711  72 6F 67 72 61 6D
3D48:0717  20 72 65 71 75 69
3D48:071D  72 65 73 20 25 73
3D48:0723  20 74 6F 20 62 65
3D48:0729  20 69
3D48:072B  6E 20 79 6F 75 72			db	'n your path', 0Ah, 0
3D48:0731  20 70 61 74 68 0A
3D48:0737  00
3D48:0738  47 4F 54 4E 54 00			db	'GOTNT', 0
3D48:073E  53 70 65 63 69 61			db	'Special command line = %s', 0Ah, 0
3D48:0744  6C 20 63 6F 6D 6D
3D48:074A  61 6E 64 20 6C 69
3D48:0750  6E 65 20 3D 20 25
3D48:0756  73 0A 00
3D48:0759  4F 66 66 73 65 74			db	'Offset of config block = %08lX', 0Ah
3D48:075F  20 6F 66 20 63 6F
3D48:0765  6E 66 69 67 20 62
           ml.lst          Copyright (C) 1986-1991 Phar Lap	Sourcer	v8.01   7-Sep-2022 10:02 am   Page 195

3D48:076B  6C 6F 63 6B 20 3D
3D48:0771  20 25 30 38 6C 58
3D48:0777  0A
3D48:0778  00					db	0
3D48:0779  43 6F 70 79 72 69			db	'Copyright message = %s', 0Ah, 0
3D48:077F  67 68 74 20 6D 65
3D48:0785  73 73 61 67 65 20
3D48:078B  3D 20 25 73 0A 00
3D48:0791  54 79 70 65 20 3D			db	'Type = %04X', 0Ah, 0
3D48:0797  20 25 30 34 58 0A
3D48:079D  00
3D48:079E  2E 45 58 45 20 66			db	'.EXE file signature = %04X', 0Ah
3D48:07A4  69 6C 65 20 73 69
3D48:07AA  67 6E 61 74 75 72
3D48:07B0  65 20 3D 20 25 30
3D48:07B6  34 58 0A
3D48:07B9  00					db	0
3D48:07BA  4F 66 66 73 65 74			db	'Offset of patch buffer = %08lX', 0Ah
3D48:07C0  20 6F 66 20 70 61
3D48:07C6  74 63 68 20 62 75
3D48:07CC  66 66 65 72 20 3D
3D48:07D2  20 25 30 38 6C 58
3D48:07D8  0A
3D48:07D9  00					db	0
3D48:07DA  44 50 4D 49 20 64			db	'DPMI data area paragraph address'
3D48:07E0  61 74 61 20 61 72
3D48:07E6  65 61 20 70 61 72
3D48:07EC  61 67 72 61 70 68
3D48:07F2  20 61 64 64 72 65
3D48:07F8  73 73
3D48:07FA  20 3D 20 25 30 34			db	' = %04X', 0Ah, 0
3D48:0800  58 0A 00
3D48:0803  44 50 4D 49 20 64			db	'DPMI data area size = %04X parag'
3D48:0809  61 74 61 20 61 72
3D48:080F  65 61 20 73 69 7A
3D48:0815  65 20 3D 20 25 30
3D48:081B  34 58 20 70 61 72
3D48:0821  61 67
3D48:0823  72 61 70 68 73 0A			db	'raphs', 0Ah, 0
3D48:0829  00
3D48:082A  50 53 50 20 70 61			db	'PSP paragraph address = %04X', 0Ah
3D48:0830  72 61 67 72 61 70
3D48:0836  68 20 61 64 64 72
3D48:083C  65 73 73 20 3D 20
3D48:0842  25 30 34 58 0A
3D48:0847  00					db	0
3D48:0848  52 65 61 6C 20 6D			db	'Real mode shrink amount = %04X p'
3D48:084E  6F 64 65 20 73 68
3D48:0854  72 69 6E 6B 20 61
3D48:085A  6D 6F 75 6E 74 20
3D48:0860  3D 20 25 30 34 58
3D48:0866  20 70
3D48:0868  61 72 61 67 72 61			db	'aragraphs', 0Ah, 0
3D48:086E  70 68 73 0A 00
3D48:0873  5B 25 64 2D 62 69			db	'[%d-bit DPMI host, version %d.%2'
3D48:0879  74 20 44 50 4D 49
3D48:087F  20 68 6F 73 74 2C
           ml.lst          Copyright (C) 1986-1991 Phar Lap	Sourcer	v8.01   7-Sep-2022 10:02 am   Page 196

3D48:0885  20 76 65 72 73 69
3D48:088B  6F 6E 20 25 64 2E
3D48:0891  25 32
3D48:0893  64 5D 0A 00				db	'd]', 0Ah, 0
3D48:0897  53 69 67 6E 61 74			db	'Signature = %04X', 0Ah, 0
3D48:089D  75 72 65 20 3D 20
3D48:08A3  25 30 34 58 0A 00
3D48:08A9  2E 45 58 50 20 62			db	'.EXP base = %08lX', 0Ah, 0
3D48:08AF  61 73 65 20 3D 20
3D48:08B5  25 30 38 6C 58 0A
3D48:08BB  00
3D48:08BC  2E 45 58 50 20 66			db	'.EXP file signature %04X', 0Ah, 0
3D48:08C2  69 6C 65 20 73 69
3D48:08C8  67 6E 61 74 75 72
3D48:08CE  65 20 25 30 34 58
3D48:08D4  0A 00
3D48:08D6  2E 45 58 50 20 66			db	'.EXP file header has been read i'
3D48:08DC  69 6C 65 20 68 65
3D48:08E2  61 64 65 72 20 68
3D48:08E8  61 73 20 62 65 65
3D48:08EE  6E 20 72 65 61 64
3D48:08F4  20 69
3D48:08F6  6E 0A 00				db	'n', 0Ah, 0
3D48:08F9  42 61 64 20 66 69			db	'Bad file signature.', 0Ah, 0
3D48:08FF  6C 65 20 73 69 67
3D48:0905  6E 61 74 75 72 65
3D48:090B  2E 0A 00
3D48:090E  43 6F 70 79 72 69			db	'Copyright = %s', 0Ah, 0
3D48:0914  67 68 74 20 3D 20
3D48:091A  25 73 0A 00
3D48:091E  43 6F 6E 66 69 67			db	'Config. block signature = %04X', 0Ah
3D48:0924  2E 20 62 6C 6F 63
3D48:092A  6B 20 73 69 67 6E
3D48:0930  61 74 75 72 65 20
3D48:0936  3D 20 25 30 34 58
3D48:093C  0A
3D48:093D  00					db	0
3D48:093E  45 78 70 65 63 74			db	'Expected value = %04X', 0Ah, 0
3D48:0944  65 64 20 76 61 6C
3D48:094A  75 65 20 3D 20 25
3D48:0950  30 34 58 0A 00
3D48:0955  56 4D 4D 44 52 56			db	'VMMDRVB.EXP header at %08lX', 0Ah
3D48:095B  42 2E 45 58 50 20
3D48:0961  68 65 61 64 65 72
3D48:0967  20 61 74 20 25 30
3D48:096D  38 6C 58 0A
3D48:0971  00					db	0
3D48:0972  41 50 50 4C 2E 45			db	'APPL.EXP header at %08lX', 0Ah, 0
3D48:0978  58 50 20 68 65 61
3D48:097E  64 65 72 20 61 74
3D48:0984  20 25 30 38 6C 58
3D48:098A  0A 00
3D48:098C  42 61 64 20 66 69			db	'Bad file signature.', 0Ah, 0
3D48:0992  6C 65 20 73 69 67
3D48:0998  6E 61 74 75 72 65
3D48:099E  2E 0A 00
3D48:09A1  4D 75 6C 74 69 2D			db	'Multi-seg .EXP files not support'
           ml.lst          Copyright (C) 1986-1991 Phar Lap	Sourcer	v8.01   7-Sep-2022 10:02 am   Page 197

3D48:09A7  73 65 67 20 2E 45
3D48:09AD  58 50 20 66 69 6C
3D48:09B3  65 73 20 6E 6F 74
3D48:09B9  20 73 75 70 70 6F
3D48:09BF  72 74
3D48:09C1  65 64 2E 0A 00			db	'ed.', 0Ah, 0
3D48:09C6  42 61 64 20 68 65			db	'Bad header size.', 0Ah, 0
3D48:09CC  61 64 65 72 20 73
3D48:09D2  69 7A 65 2E 0A 00
3D48:09D8  50 61 63 6B 65 64			db	'Packed files not supported.', 0Ah
3D48:09DE  20 66 69 6C 65 73
3D48:09E4  20 6E 6F 74 20 73
3D48:09EA  75 70 70 6F 72 74
3D48:09F0  65 64 2E 0A
3D48:09F4  00					db	0
3D48:09F5  42 61 73 65 20 6F			db	'Base offset=%08lX  Code size=%08'
3D48:09FB  66 66 73 65 74 3D
3D48:0A01  25 30 38 6C 58 20
3D48:0A07  20 43 6F 64 65 20
3D48:0A0D  73 69 7A 65 3D 25
3D48:0A13  30 38
3D48:0A15  6C 58 20 20 45 78			db	'lX  Extra data size=%08lX', 0Ah, 0
3D48:0A1B  74 72 61 20 64 61
3D48:0A21  74 61 20 73 69 7A
3D48:0A27  65 3D 25 30 38 6C
3D48:0A2D  58 0A 00
3D48:0A30  50 72 6F 67 72 61			db	'Program size=%08lX', 0Ah, 0
3D48:0A36  6D 20 73 69 7A 65
3D48:0A3C  3D 25 30 38 6C 58
3D48:0A42  0A 00
3D48:0A44  4C 69 6E 65 61 72			db	'Linear address of load image %08'
3D48:0A4A  20 61 64 64 72 65
3D48:0A50  73 73 20 6F 66 20
3D48:0A56  6C 6F 61 64 20 69
3D48:0A5C  6D 61 67 65 20 25
3D48:0A62  30 38
3D48:0A64  6C 58 0A 00				db	'lX', 0Ah, 0
3D48:0A68  43 6F 64 65 20 73			db	'Code selector=%04X, Data selecto'
3D48:0A6E  65 6C 65 63 74 6F
3D48:0A74  72 3D 25 30 34 58
3D48:0A7A  2C 20 44 61 74 61
3D48:0A80  20 73 65 6C 65 63
3D48:0A86  74 6F
3D48:0A88  72 3D 25 30 34 58			db	'r=%04X', 0Ah, 0
3D48:0A8E  0A 00
3D48:0A90  44 6F 6E 65 20 72			db	'Done registering memory handles '
3D48:0A96  65 67 69 73 74 65
3D48:0A9C  72 69 6E 67 20 6D
3D48:0AA2  65 6D 6F 72 79 20
3D48:0AA8  68 61 6E 64 6C 65
3D48:0AAE  73 20
3D48:0AB0  66 6F 72 20 63 6F			db	'for code and data selectors.', 0Ah
3D48:0AB6  64 65 20 61 6E 64
3D48:0ABC  20 64 61 74 61 20
3D48:0AC2  73 65 6C 65 63 74
3D48:0AC8  6F 72 73 2E 0A
3D48:0ACD  00					db	0
           ml.lst          Copyright (C) 1986-1991 Phar Lap	Sourcer	v8.01   7-Sep-2022 10:02 am   Page 198

3D48:0ACE  4E 6F 77 20 72 65			db	'Now reading in load image.', 0Ah
3D48:0AD4  61 64 69 6E 67 20
3D48:0ADA  69 6E 20 6C 6F 61
3D48:0AE0  64 20 69 6D 61 67
3D48:0AE6  65 2E 0A
3D48:0AE9  00					db	0
3D48:0AEA  44 6F 6E 65 20 72			db	'Done reading in the load image.', 0Ah
3D48:0AF0  65 61 64 69 6E 67
3D48:0AF6  20 69 6E 20 74 68
3D48:0AFC  65 20 6C 6F 61 64
3D48:0B02  20 69 6D 61 67 65
3D48:0B08  2E 0A
3D48:0B0A  00					db	0
3D48:0B0B  5A 65 72 6F 69 6E			db	'Zeroing bytes from %08lX to %08l'
3D48:0B11  67 20 62 79 74 65
3D48:0B17  73 20 66 72 6F 6D
3D48:0B1D  20 25 30 38 6C 58
3D48:0B23  20 74 6F 20 25 30
3D48:0B29  38 6C
3D48:0B2B  58 0A 00				db	'X', 0Ah, 0
3D48:0B2E  44 6F 6E 65 20 77			db	'Done with the load.', 0Ah
3D48:0B34  69 74 68 20 74 68
3D48:0B3A  65 20 6C 6F 61 64
3D48:0B40  2E 0A
3D48:0B42  00 00 72 62 00 00			db	 00h, 00h, 72h, 62h, 00h, 00h
3D48:0B48  47 4F 54 4E 54 3A			db	 47h, 4Fh, 54h, 4Eh, 54h, 3Ah
3D48:0B4E  20					db	 20h
3D48:0B4F  0007[00]				db	7 dup (0)
3D48:0B56  0000			data_52		dw	0			;  xref 387F:0F2C
3D48:0B58  0000			data_53		dw	0			;  xref 387F:0F28
3D48:0B5A  0000			data_54		dw	0			;  xref 387F:0DF9, 387F:0E0C
										;       387F:0E16, 387F:0E34
										;       387F:0E60
3D48:0B5C  0000			data_55		dw	0			;  xref 387F:0E9A
3D48:0B5E  0000			data_56		dw	0			;  xref 387F:0E96
3D48:0B60  0000			data_57		dw	0			;  xref 387F:0DDF, 387F:0E04
										;       387F:0E52, 387F:0E8E
3D48:0B62  0000			data_58		dw	0			;  xref 387F:0F30
3D48:0B64  0000			data_59		dw	0			;  xref 387F:0DC5, 387F:1D3A
3D48:0B66  0000			data_60		dw	0			;  xref 387F:0DCB, 387F:1D31
3D48:0B68  0000			data_61		dw	0			;  xref 387F:0EBB, 387F:0EE8
										;       387F:0F1E, 387F:11E6
										;       387F:19EF, 387F:1D18
3D48:0B6A  0000			data_62		dw	0			;  xref 387F:0EC1, 387F:0F00
										;       387F:0F14, 387F:1D0F
3D48:0B6C  0000			data_63		dw	0			;  xref 387F:0EF2
3D48:0B6E  0000			data_64		dw	0			;  xref 387F:0F0A
3D48:0B70  0000			data_65		dw	0			;  xref 387F:151B, 387F:155C
										;       387F:1584, 387F:159F
3D48:0B72  00 00				db	0, 0
3D48:0B74  0000			data_66		dw	0			;  xref 387F:1945, 387F:1AD5
3D48:0B76  0014[00]				db	20 dup (0)
3D48:0B8A  0000			data_67		dw	0			;  xref 387F:154E
3D48:0B8C  001C[00]				db	28 dup (0)
3D48:0BA8  0000			data_68		dw	0			;  xref 387F:0C0A, 387F:153B
3D48:0BAA  0000			data_69		dw	0			;  xref 387F:0C06, 387F:153E
3D48:0BAC  0000			data_70		dw	0			;  xref 387F:0C1A, 387F:150F
           ml.lst          Copyright (C) 1986-1991 Phar Lap	Sourcer	v8.01   7-Sep-2022 10:02 am   Page 199

3D48:0BAE  0000			data_71		dw	0			;  xref 387F:0C02, 387F:1515
3D48:0BB0  0000			data_72		dw	0			;  xref 387F:0C0E, 387F:1518
3D48:0BB2  0000			data_73		dw	0			;  xref 387F:0BFE, 387F:151F
3D48:0BB4  00 00				db	0, 0
3D48:0BB6  0000			data_74		dw	0			;  xref 387F:1523
3D48:0BB8  0000			data_75		dw	0			;  xref 387F:0C16, 387F:152D
3D48:0BBA  0000			data_76		dw	0			;  xref 387F:0C12, 387F:1530
3D48:0BBC  0000			data_77		dw	0			;  xref 387F:1542
3D48:0BBE  0000			data_78		dw	0			;  xref 387F:1548
3D48:0BC0  0144[00]				db	324 dup (0)
3D48:0D04  0000			data_79		dw	0			;  xref 387F:0DB2
3D48:0D06  0000			data_80		dw	0			;  xref 387F:1E2E
3D48:0D08  00 00				db	0, 0
3D48:0D0A  0000			data_81		dw	0			;  xref 387F:140F
3D48:0D0C  0000			data_82		dw	0			;  xref 387F:1413
3D48:0D0E  000A[00]				db	10 dup (0)
3D48:0D18  0000			data_83		dw	0			;  xref 387F:1C05, 387F:1C1C
										;       387F:1C30, 387F:1C56
										;       387F:1C60, 387F:1C76
										;       387F:1C7D, 387F:1C87
3D48:0D1A  0000			data_84		dw	0			;  xref 387F:10C9, 387F:119C
3D48:0D1C  0000			data_85		dw	0			;  xref 387F:11AA
3D48:0D1E  0000			data_86		dw	0			;  xref 387F:11B8
3D48:0D20  0000			data_87		dw	0			;  xref 387F:1159
3D48:0D22  0000			data_88		dw	0			;  xref 387F:115C
3D48:0D24  001C[00]				db	28 dup (0)
3D48:0D40  0000			data_89		dw	0			;  xref 387F:10E6, 387F:1408
3D48:0D42  0000			data_90		dw	0			;  xref 387F:10EA, 387F:140B
3D48:0D44  0000			data_91		dw	0			;  xref 387F:11FF
3D48:0D46  0000			data_92		dw	0			;  xref 387F:1202
3D48:0D48  0028[00]				db	40 dup (0)
3D48:0D70  0000			data_93		dw	0			;  xref 387F:120C, 387F:12C7
										;       387F:12CD, 387F:1562
3D48:0D72  0000			data_94		dw	0			;  xref 387F:120F, 387F:12BF
										;       387F:12D0, 387F:1565
3D48:0D74  0000			data_95		dw	0			;  xref 387F:1265, 387F:126B
3D48:0D76  0000			data_96		dw	0			;  xref 387F:125D, 387F:126E
3D48:0D78  0000			data_97		dw	0			;  xref 387F:0C71, 387F:0CB1
										;       387F:11F2
3D48:0D7A  0000			data_98		dw	0			;  xref 387F:0C74, 387F:0CAD
										;       387F:11F5
3D48:0D7C  0000			data_99		dw	0			;  xref 387F:14A2, 387F:14B6
										;       387F:14BF, 387F:14E4
										;       387F:1534
3D48:0D7E  0000			data_100	dw	0			;  xref 387F:149A, 387F:14AE
										;       387F:14C2, 387F:14E7
										;       387F:1537
3D48:0D80  00 00				db	0, 0
3D48:0D82  0000			data_101	dw	0			;  xref 387F:1526
3D48:0D84  0000			data_102	dw	0			;  xref 387F:1529
3D48:0D86  00 00 00 00 00 00			db	0, 0, 0, 0, 0, 0
3D48:0D8C  00			data_103	db	0			;  xref 387F:11C6
3D48:0D8D  000D[00]				db	13 dup (0)
3D48:0D9A  0000			data_104	dw	0			;  xref 387F:1354, 387F:135A
										;       387F:1364, 387F:1375
										;       387F:1387, 387F:13A0
										;       387F:13AA, 387F:1434
           ml.lst          Copyright (C) 1986-1991 Phar Lap	Sourcer	v8.01   7-Sep-2022 10:02 am   Page 200

										;       387F:150C
3D48:0D9C  0000			data_105	dw	0			;  xref 387F:0C7E, 387F:0D2A
										;       387F:0D6A, 387F:136E
										;       387F:1383, 387F:13B6
										;       387F:13D0, 387F:1429
										;       387F:1512
3D48:0D9E  0000			data_106	dw	0			;  xref 387F:0BCE, 387F:139C
										;       387F:13B2
3D48:0DA0  0000			data_107	dw	0			;  xref 387F:0BCA, 387F:1398
										;       387F:13AE
3D48:0DA2  0000			data_108	dw	0			;  xref 387F:0655, 387F:0675
										;       387F:06A1, 387F:0BC2
										;       387F:0DF6, 387F:0E1A
										;       387F:0E7C
3D48:0DA4  0000			data_109	dw	0			;  xref 387F:05BC, 387F:1C91
3D48:0DA6  0000			data_110	dw	0			;  xref 387F:0557, 387F:056B
										;       387F:09E2
3D48:0DA8  1D08 387F		data_111	dw	1D08h, seg_b		;  xref 387F:0F17
3D48:0DAC  1D0A 387F		data_112	dw	1D0Ah, seg_b		;  xref 387F:0F21
3D48:0DB0  0000					dw	0
3D48:0DB2  00 00 00 00 00 00			db	0, 0, 0, 0, 0, 0
3D48:0DB8  0000			data_114	dw	0			;  xref 387F:1FCC, 387F:1FE9
3D48:0DBA  0000			data_115	dw	0			;  xref 387F:1FD0, 387F:1FED
3D48:0DBC ˙0000			data_116	dw	0			; segment storage
										;  xref 387F:1FD4, 387F:1FF1
3D48:0DBE  0000			data_117	dw	0			;  xref 387F:217C
3D48:0DC0  22D7			data_118	dw	22D7h			;  xref 387F:21FB
3D48:0DC2  0000			data_119	dw	0			;  xref 387F:2158
3D48:0DC4  00			data_120	db	0			;  xref 387F:215C, 387F:39B3
3D48:0DC5  00 05 00 00				db	0, 5, 0, 0
3D48:0DC9  0013[00]				db	19 dup (0)
3D48:0DDC  435F			data_122	dw	435Fh			;  xref 387F:2E35, 387F:2E3F
3D48:0DDE  5F 46 49 4C 45 5F			db	'_FILE_INFO='
3D48:0DE4  49 4E 46 4F 3D
3D48:0DE9  00					db	0
3D48:0DEA  0000 0000		data_123	dw	0, 0			;  xref 387F:2207, 387F:235F
3D48:0DEE  000A[00]				db	10 dup (0)
3D48:0DF8  0000			data_126	dw	0			;  xref 387F:096B, 387F:099E
										;       387F:09AC, 387F:27E5
										;       387F:2F0D, 387F:3B26
										;       387F:3C18, 387F:3C9A
										;       387F:44FB, 387F:452B
										;       387F:4658, 387F:4A5A
										;       387F:4B36
3D48:0DFA  0000			data_127	dw	0			;  xref 387F:40AB
3D48:0DFC  00 00				db	0, 0
3D48:0DFE ˙0000			data_128	dw	0			; segment storage
										;  xref 387F:064C, 387F:0667
										;       387F:089B, 387F:0BC6
										;       387F:0DF2, 387F:0E12
										;       387F:0E6E, 387F:2191
										;       387F:2C66, 387F:2C95
										;       387F:2D42, 387F:2DE6
										;       387F:4330, 387F:46CC
										;       387F:480A, 387F:48F8
3D48:0E00  0000			data_129	dw	0			;  xref 387F:2C5C, 387F:2EEF
										;       387F:3F08, 387F:46FE
           ml.lst          Copyright (C) 1986-1991 Phar Lap	Sourcer	v8.01   7-Sep-2022 10:02 am   Page 201

										;       387F:479A, 387F:483D
3D48:0E02  00					db	0
3D48:0E03  0000			data_130	dw	0			;  xref 387F:2EE8, 387F:3CA0
										;       387F:4501, 387F:4531
										;       387F:465E
3D48:0E05  0014			data_131	dw	14h			;  xref 387F:382E, 387F:3851
										;       387F:38CB, 387F:4087
										;       387F:40C5, 387F:44AA
3D48:0E07  81			data_133	db	81h			; Data table (indexed access)
										;  xref 387F:2F82, 387F:3006
										;       387F:306C, 387F:3227
										;       387F:3840, 387F:38BA
										;       387F:38DE, 387F:3901
										;       387F:3908, 387F:391F
										;       387F:392D, 387F:394E
										;       387F:3AF5, 387F:3B54
										;       387F:3BBC, 387F:409D
										;       387F:40DE, 387F:40F0
										;       387F:419F, 387F:41E2
										;       387F:45A6
3D48:0E08  81 81 01 01 00 00			db	 81h, 81h, 01h, 01h, 00h, 00h
3D48:0E0E  000D[00]				db	13 dup (0)
3D48:0E1B  0000			data_135	dw	0			;  xref 387F:21C4, 387F:2D17
3D48:0E1D  0000			data_136	dw	0			;  xref 387F:21C0, 387F:2D2A
3D48:0E1F  0000			data_137	dw	0			;  xref 387F:21BC, 387F:2641
										;       387F:26CF, 387F:275A
										;       387F:276E, 387F:27A5
										;       387F:27BD, 387F:2B91
										;       387F:2E22, 387F:3E62
										;       387F:4473
3D48:0E21  0E25 3D48		data_138	dw	0E25h, seg_d		;  xref 387F:2C82, 387F:2D38
3D48:0E25  00 00 00				db	0, 0, 0
3D48:0E28  00			data_141	db	0			;  xref 387F:2369
3D48:0E29  00			data_142	db	0			;  xref 387F:2371
3D48:0E2A  0000 0000		data_143	dd	00000h			;  xref 387F:2374
3D48:0E2E  5C 00 5C 00 45 72			db	 5Ch, 00h, 5Ch, 00h, 45h, 72h
3D48:0E34  72 6F 72 20 30 00			db	 72h, 6Fh, 72h, 20h, 30h, 00h
3D48:0E3A  00					db	 00h
3D48:0E3B  4E 6F 20 73 75 63			db	'No such file or directory'
3D48:0E41  68 20 66 69 6C 65
3D48:0E47  20 6F 72 20 64 69
3D48:0E4D  72 65 63 74 6F 72
3D48:0E53  79
3D48:0E54  00 00 00 00 00 41			db	 00h, 00h, 00h, 00h, 00h, 41h
3D48:0E5A  72					db	 72h
3D48:0E5B  67 20 6C 69 73 74			db	'g list too long', 0
3D48:0E61  20 74 6F 6F 20 6C
3D48:0E67  6F 6E 67 00
3D48:0E6B  45 78 65 63 20 66			db	'Exec format error', 0
3D48:0E71  6F 72 6D 61 74 20
3D48:0E77  65 72 72 6F 72 00
3D48:0E7D  42 61 64 20 66 69			db	'Bad file number'
3D48:0E83  6C 65 20 6E 75 6D
3D48:0E89  62 65 72
3D48:0E8C  00 00 00				db	0, 0, 0
3D48:0E8F  4E 6F 74 20 65 6E			db	'Not enough core'
3D48:0E95  6F 75 67 68 20 63
           ml.lst          Copyright (C) 1986-1991 Phar Lap	Sourcer	v8.01   7-Sep-2022 10:02 am   Page 202

3D48:0E9B  6F 72 65
3D48:0E9E  00					db	0
3D48:0E9F  50 65 72 6D 69 73			db	'Permission denied'
3D48:0EA5  73 69 6F 6E 20 64
3D48:0EAB  65 6E 69 65 64
3D48:0EB0  00 00 00 00				db	0, 0, 0, 0
3D48:0EB4  46 69 6C 65 20 65			db	'File exists'
3D48:0EBA  78 69 73 74 73
3D48:0EBF  00					db	0
3D48:0EC0  43 72 6F 73 73 2D			db	'Cross-device link'
3D48:0EC6  64 65 76 69 63 65
3D48:0ECC  20 6C 69 6E 6B
3D48:0ED1  00 00 00 00				db	0, 0, 0, 0
3D48:0ED5  49 6E 76 61 6C 69			db	'Invalid argument'
3D48:0EDB  64 20 61 72 67 75
3D48:0EE1  6D 65 6E 74
3D48:0EE5  00 00				db	0, 0
3D48:0EE7  54 6F 6F 20 6D 61			db	'Too many open files'
3D48:0EED  6E 79 20 6F 70 65
3D48:0EF3  6E 20 66 69 6C 65
3D48:0EF9  73
3D48:0EFA  00 00 00 00				db	0, 0, 0, 0
3D48:0EFE  4E 6F 20 73 70 61			db	'No space left on device'
3D48:0F04  63 65 20 6C 65 66
3D48:0F0A  74 20 6F 6E 20 64
3D48:0F10  65 76 69 63 65
3D48:0F15  00					db	0
3D48:0F16  00			data_145	db	0
3D48:0F17  00 00 00				db	0, 0, 0
3D48:0F1A  4D 61 74 68 20 61			db	'Math argument'
3D48:0F20  72 67 75 6D 65 6E
3D48:0F26  74
3D48:0F27  00					db	0
3D48:0F28  52 65 73 75 6C 74			db	'Result too large'
3D48:0F2E  20 74 6F 6F 20 6C
3D48:0F34  61 72 67 65
3D48:0F38  00 00				db	0, 0
3D48:0F3A  52 65 73 6F 75 72			db	'Resource deadlock wou'
3D48:0F40  63 65 20 64 65 61
3D48:0F46  64 6C 6F 63 6B 20
3D48:0F4C  77 6F 75
3D48:0F4F  6C 64 20 6F 63 63			db	'ld occur'
3D48:0F55  75 72
3D48:0F57  00					db	0
3D48:0F58  55 6E 6B 6E 6F 77			db	'Unknown error'
3D48:0F5E  6E 20 65 72 72 6F
3D48:0F64  72
3D48:0F65  00					db	0
3D48:0F66  0E32			data_147	dw	0E32h			; Data table (indexed access)
										;  xref 387F:09B2
3D48:0F68  3A 0E 3B 0E 55 0E			db	 3Ah, 0Eh, 3Bh, 0Eh, 55h, 0Eh
3D48:0F6E  56 0E 57 0E 58 0E			db	 56h, 0Eh, 57h, 0Eh, 58h, 0Eh
3D48:0F74  59 0E 6B 0E 7D 0E			db	 59h, 0Eh, 6Bh, 0Eh, 7Dh, 0Eh
3D48:0F7A  8D 0E 8E 0E 8F 0E			db	 8Dh, 0Eh, 8Eh, 0Eh, 8Fh, 0Eh
3D48:0F80  9F 0E B1 0E B2 0E			db	 9Fh, 0Eh,0B1h, 0Eh,0B2h, 0Eh
3D48:0F86  B3 0E B4 0E C0 0E			db	0B3h, 0Eh,0B4h, 0Eh,0C0h, 0Eh
3D48:0F8C  D2 0E D3 0E D4 0E			db	0D2h, 0Eh,0D3h, 0Eh,0D4h, 0Eh
           ml.lst          Copyright (C) 1986-1991 Phar Lap	Sourcer	v8.01   7-Sep-2022 10:02 am   Page 203

3D48:0F92  D5 0E E6 0E E7 0E			db	0D5h, 0Eh,0E6h, 0Eh,0E7h, 0Eh
3D48:0F98  FB 0E FC 0E FD 0E			db	0FBh, 0Eh,0FCh, 0Eh,0FDh, 0Eh
3D48:0F9E  FE 0E 16 0F 17 0F			db	0FEh, 0Eh, 16h, 0Fh, 17h, 0Fh
3D48:0FA4  18 0F 19 0F 1A 0F			db	 18h, 0Fh, 19h, 0Fh, 1Ah, 0Fh
3D48:0FAA  28 0F 39 0F 3A 0F			db	 28h, 0Fh, 39h, 0Fh, 3Ah, 0Fh
3D48:0FB0  58 0F				db	 58h, 0Fh
3D48:0FB2  0025			data_148	dw	25h			;  xref 387F:09A1
3D48:0FB4  0000			data_149	dw	0			;  xref 387F:2C16, 387F:2C1D
3D48:0FB6  0000			data_150	dw	0			;  xref 387F:2C54, 387F:2DDE
3D48:0FB8  00			data_151	db	0			;  xref 387F:2F08
3D48:0FB9  16 02 02 18 0D 09			db	 16h, 02h, 02h, 18h, 0Dh, 09h
3D48:0FBF  0C 0C 0C 07 08 16			db	 0Ch, 0Ch, 0Ch, 07h, 08h, 16h
3D48:0FC5  16 FF 02 0D 12 02			db	 16h,0FFh, 02h, 0Dh, 12h, 02h
3D48:0FCB  FF					db	0FFh
3D48:0FCC  80			data_152	db	80h			;  xref 387F:32CC, 387F:37F6
3D48:0FCD  13 00 00 80 13 01			db	 13h, 00h, 00h, 80h, 13h, 01h
3D48:0FD3  0007[00]				db	7 dup (0)
3D48:0FDA  02 01 00 00 00 00			db	 02h, 01h, 00h, 00h, 00h, 00h
3D48:0FE0  00 00 02 02 00 00			db	 00h, 00h, 02h, 02h, 00h, 00h
3D48:0FE6  00 00 00 00 84 03			db	 00h, 00h, 00h, 00h, 84h, 03h
3D48:0FEC  00			data_154	db	0			;  xref 387F:31B7
3D48:0FED  00 00 00 00 00 02			db	0, 0, 0, 0, 0, 2
3D48:0FF3  04 00				db	4, 0
3D48:0FF5  0077[00]				db	119 dup (0)
3D48:106C  01			data_156	db	1			; Data table (indexed access)
										;  xref 387F:24A5, 387F:2F38
										;       387F:2FDE, 387F:31C3
										;       387F:3219, 387F:327B
										;       387F:3ED3
3D48:106D  00 00 02				db	0, 0, 2
3D48:1070  0000			data_157	dw	0			; Data table (indexed access)
										;  xref 387F:23CF
3D48:1072  009A[00]				db	154 dup (0)
3D48:110C  1064			data_159	dw	1064h			;  xref 387F:32DE, 387F:3801
3D48:110E  00 00 00 00				db	0, 0, 0, 0
3D48:1112  00			data_160	db	0			;  xref 387F:31B4
3D48:1113  00					db	0
3D48:1114  06			data_161	db	6			;  xref 387F:334B
3D48:1115  00 00 06 00 01 00			db	 00h, 00h, 06h, 00h, 01h, 00h
3D48:111B  00 10 00 03 06 00			db	 00h, 10h, 00h, 03h, 06h, 00h
3D48:1121  06 02 10 04 45 45			db	 06h, 02h, 10h, 04h, 45h, 45h
3D48:1127  45 05 05 05 05 05			db	 45h, 05h, 05h, 05h, 05h, 05h
3D48:112D  35 30 00 50 00 00			db	 35h, 30h, 00h, 50h, 00h, 00h
3D48:1133  00 00 20 20 30 50			db	 00h, 00h, 20h, 20h, 30h, 50h
3D48:1139  58 07 08 00 30 30			db	 58h, 07h, 08h, 00h, 30h, 30h
3D48:113F  30 57 50 07 00 00			db	 30h, 57h, 50h, 07h, 00h, 00h
3D48:1145  20 20 00 00 00 00			db	 20h, 20h, 00h, 00h, 00h, 00h
3D48:114B  00 08 60 60 60 60			db	 00h, 08h, 60h, 60h, 60h, 60h
3D48:1151  60 60 00 00 70 70			db	 60h, 60h, 00h, 00h, 70h, 70h
3D48:1157  78 78 78 78 08 07			db	 78h, 78h, 78h, 78h, 08h, 07h
3D48:115D  08 00 00 07 00 08			db	 08h, 00h, 00h, 07h, 00h, 08h
3D48:1163  08 08 00 00 08 00			db	 08h, 08h, 00h, 00h, 08h, 00h
3D48:1169  08 00 00				db	 08h, 00h, 00h
3D48:116C  08					db	8
3D48:116D  28			data_162	db	28h			;  xref 387F:34C1
3D48:116E  6E 75 6C 6C 29			db	 6Eh, 75h, 6Ch, 6Ch, 29h
3D48:1173  0006			data_163	dw	6			;  xref 387F:34C4
           ml.lst          Copyright (C) 1986-1991 Phar Lap	Sourcer	v8.01   7-Sep-2022 10:02 am   Page 204

3D48:1175  00 43 4F 4D 53 50			db	 00h, 43h, 4Fh, 4Dh, 53h, 50h
3D48:117B  45 43 00 2E 62 61			db	 45h, 43h, 00h, 2Eh, 62h, 61h
3D48:1181  74 00 2E 65 78 65			db	 74h, 00h, 2Eh, 65h, 78h, 65h
3D48:1187  00 2E 63 6F 6D 00			db	 00h, 2Eh, 63h, 6Fh, 6Dh, 00h
3D48:118D  00					db	 00h
3D48:118E  117E			data_164	dw	117Eh			; Data table (indexed access)
										;  xref 387F:3DB0, 387F:3E1C
3D48:1190  83 11 88 11 FF FF			db	 83h, 11h, 88h, 11h,0FFh,0FFh
3D48:1196  1880			data_165	dw	1880h			;  xref 387F:3E89, 387F:4B9F
3D48:1198  0000			data_166	dw	0			;  xref 387F:3161
3D48:119A  2000			data_167	dw	2000h			;  xref 387F:3EA0, 387F:3EAA
										;       387F:450E, 387F:4512
										;       387F:4537, 387F:453E
3D48:119C  2C2C			data_168	dw	2C2Ch			;  xref 387F:359D
3D48:119E  2C2C			data_170	dw	2C2Ch			;  xref 387F:35C9
3D48:11A0  2C 2C				db	 2Ch, 2Ch
3D48:11A2  2C2C			data_171	dw	2C2Ch			;  xref 387F:35B5
3D48:11A4  2C 2C				db	 2Ch, 2Ch
3D48:11A6  2C2C			data_172	dw	2C2Ch			;  xref 387F:3593
3D48:11A8  0000			data_173	dw	0			;  xref 387F:4824, 387F:4830
3D48:11AA  0000			data_174	dw	0			;  xref 387F:482C
3D48:11AC  00 00 2F 63 20 00			db	 00h, 00h, 2Fh, 63h, 20h, 00h
3D48:11B2  02 00				db	 02h, 00h
3D48:11B4  0000			data_175	dw	0			;  xref 387F:46FA, 387F:47C7
3D48:11B6  0000			data_176	dw	0			;  xref 387F:471A, 387F:4892
										;       387F:48CE
3D48:11B8  0000			data_177	dw	0			;  xref 387F:4732, 387F:48D2
3D48:11BA  0000 0000		data_178	dw	0, 0			;  xref 387F:496E
3D48:11BE  50 41 54 48 00 5C			db	 50h, 41h, 54h, 48h, 00h, 5Ch
3D48:11C4  00					db	 00h
3D48:11C5  00 00				db	0, 0
3D48:11C7  00			data_181	db	0			;  xref 387F:3F38
3D48:11C8  0000			data_182	dw	0			;  xref 387F:44A3
3D48:11CA  0000			data_183	dw	0			;  xref 387F:21A7
3D48:11CC  0000			data_184	dw	0			;  xref 387F:2308, 387F:2BE0
										;       387F:2EA9, 387F:38E5
										;       387F:40D2
3D48:11CE  21CF			data_185	dw	21CFh			;  xref 387F:2BE8, 387F:2EB1
										;       387F:38ED, 387F:40DA
3D48:11D0  CF 21				db	0CFh, 21h
3D48:11D2  21CF			data_186	dw	21CFh			;  xref 387F:2310
3D48:11D4  00 00 00 00				db	0, 0, 0, 0
3D48:11D8  3D47					dw	seg_c
3D48:11DA  00 00				db	0, 0
3D48:11DC  0000 0000		data_188	dw	0, 0			;  xref 387F:235A
3D48:11E0  0008[00]				db	8 dup (0)
3D48:11E8  BC 32				db	0BCh, 32h
3D48:11EA  62 3D 3C 3C 4E 4D	data_190	db	'b=<<NMSG>>'
3D48:11F0  53 47 3E 3E
3D48:11F4  00			data_191	db	0			;  xref 387F:2E6A
3D48:11F5  00					db	0
3D48:11F6  52 36 30 30 30 0D			db	'R6000', 0Dh, 0Ah, '- stack overf'
3D48:11FC  0A 2D 20 73 74 61
3D48:1202  63 6B 20 6F 76 65
3D48:1208  72 66
3D48:120A  6C 6F 77 0D 0A			db	'low', 0Dh, 0Ah
3D48:120F  00 03 00				db	0, 3, 0
           ml.lst          Copyright (C) 1986-1991 Phar Lap	Sourcer	v8.01   7-Sep-2022 10:02 am   Page 205

3D48:1212  52 36 30 30 33 0D			db	'R6003', 0Dh, 0Ah, '- '
3D48:1218  0A 2D 20
3D48:121B  69 6E 74 65 67 65			db	'integer divide by 0', 0Dh, 0Ah, 0
3D48:1221  72 20 64 69 76 69
3D48:1227  64 65 20 62 79 20
3D48:122D  30 0D 0A 00
3D48:1231  09 00				db	9, 0
3D48:1233  52 36 30 30 39 0D			db	'R6009', 0Dh, 0Ah, '- not enough '
3D48:1239  0A 2D 20 6E 6F 74
3D48:123F  20 65 6E 6F 75 67
3D48:1245  68 20
3D48:1247  73 70 61 63 65 20			db	'space for environment', 0Dh, 0Ah
3D48:124D  66 6F 72 20 65 6E
3D48:1253  76 69 72 6F 6E 6D
3D48:1259  65 6E 74 0D 0A
3D48:125E  00					db	0
3D48:125F  FC 00 0D 0A 00 FF			db	0FCh, 00h, 0Dh, 0Ah, 00h,0FFh
3D48:1265  00					db	 00h
3D48:1266  72 75 6E 2D 74 69			db	'run-time error '
3D48:126C  6D 65 20 65 72 72
3D48:1272  6F 72 20
3D48:1275  00 02 00 52 36			db	 00h, 02h, 00h, 52h, 36h
3D48:127A  30 30 32 0D 0A 2D			db	'002', 0Dh, 0Ah, '- floating-poin'
3D48:1280  20 66 6C 6F 61 74
3D48:1286  69 6E 67 2D 70 6F
3D48:128C  69 6E
3D48:128E  74 20 73 75 70 70			db	't suppo'
3D48:1294  6F
3D48:1295  72 74 20 6E 6F 74			db	'rt not loaded', 0Dh, 0Ah
3D48:129B  20 6C 6F 61 64 65
3D48:12A1  64 0D 0A
3D48:12A4  00 01 00				db	0, 1, 0
3D48:12A7  52 36 30 30 31 0D			db	'R6001', 0Dh, 0Ah, '- null pointe'
3D48:12AD  0A 2D 20 6E 75 6C
3D48:12B3  6C 20 70 6F 69 6E
3D48:12B9  74 65
3D48:12BB  72					db	'r'
3D48:12BC  20 61 73 73 69 67			db	' assignment', 0Dh, 0Ah
3D48:12C2  6E 6D 65 6E 74 0D
3D48:12C8  0A
3D48:12C9  00 05 00 0D				db	 00h, 05h, 00h, 0Dh
3D48:12CD  0A 72 75 6E 2D 74			db	0Ah, 'run-tim'
3D48:12D3  69 6D
3D48:12D5  65 20 65 72 72 6F			db	'e error '
3D48:12DB  72 20
3D48:12DD  52 36 30 30 35			db	'R6005'
3D48:12E2  0D 0A 2D 20 6E 6F			db	0Dh, 0Ah, '- not enough memory on'
3D48:12E8  74 20 65 6E 6F 75
3D48:12EE  67 68 20 6D 65 6D
3D48:12F4  6F 72 79 20 6F 6E
3D48:12FA  20 65 78 65 63 0D			db	' exec', 0Dh, 0Ah, '$'
3D48:1300  0A 24
3D48:1302  00					db	0
3D48:1303  06 00 0D				db	 06h, 00h, 0Dh
3D48:1306  0A 72 75 6E 2D			db	0Ah, 'run-'
3D48:130B  74 69 6D 65 20 65			db	'time error R6006', 0Dh, 0Ah, '- '
3D48:1311  72 72 6F 72 20 52
           ml.lst          Copyright (C) 1986-1991 Phar Lap	Sourcer	v8.01   7-Sep-2022 10:02 am   Page 206

3D48:1317  36 30 30 36 0D 0A
3D48:131D  2D 20
3D48:131F  69 6E 76 61 6C 69			db	'invalid for'
3D48:1325  64 20 66 6F 72
3D48:132A  6D 61 74 20 6F 6E			db	'mat on exec', 0Dh, 0Ah, '$'
3D48:1330  20 65 78 65 63 0D
3D48:1336  0A 24
3D48:1338  00 07 00 0D				db	 00h, 07h, 00h, 0Dh
3D48:133C  0A 72 75 6E 2D 74			db	0Ah, 'run-time error R6'
3D48:1342  69 6D 65 20 65 72
3D48:1348  72 6F 72 20 52 36
3D48:134E  30 30 37 0D 0A 2D			db	'007', 0Dh, 0Ah, '- invalid envir'
3D48:1354  20 69 6E 76 61 6C
3D48:135A  69 64 20 65 6E 76
3D48:1360  69 72
3D48:1362  6F 6E 6D 65 6E 74			db	'onment on exec', 0Dh, 0Ah, '$'
3D48:1368  20 6F 6E 20 65 78
3D48:136E  65 63 0D 0A 24
3D48:1373  00					db	0
3D48:1374  FF FF FF 00				db	0FFh,0FFh,0FFh, 00h
3D48:1378  0000			data_204	dw	0			;  xref 387F:2199, 387F:2859
										;       387F:287C, 387F:2880
3D48:137A  0000			data_205	dw	0			;  xref 387F:285E, 387F:2876
3D48:137C  0000			data_206	dw	0			;  xref 387F:2856
3D48:137E  00			data_207	db	0			;  xref 387F:284E
3D48:137F  00					db	0
3D48:1380  00			data_209	db	0
3D48:1381  01EF[00]				db	495 dup (0)
3D48:1570  44 4C 4C 44 10 00			db	 44h, 4Ch, 4Ch, 44h, 10h, 00h
3D48:1576  00 00 A6 E0				db	 00h, 00h,0A6h,0E0h
3D48:157A  6E 27				db	 6Eh, 27h
3D48:157C  0204[00]				db	516 dup (0)

				seg_d		ends



				;------------------------------------------------------  stack_seg_e   ----

				stack_seg_e	segment	word stack 'STACK'

3EC0:0000  00 00 00 00				db	0, 0, 0, 0
3EC0:0004  00			data_217	db	0			;  xref 387F:22A1
3EC0:0005  0DBB[00]				db	3515 dup (0)
3EC0:0DC0  0000			data_218	dw	0			;  xref 387F:21D9
3EC0:0DC2  001A[00]				db	26 dup (0)
3EC0:0DDC  00			data_219	db	0			;  xref 387F:2270
3EC0:0DDD  0021[00]				db	33 dup (0)
3EC0:0DFE  0000			data_220	dw	0			;  xref 387F:222A, 387F:2258
3EC0:0E00  00 00 00 00 00 00			db	0, 0, 0, 0, 0, 0
3EC0:0E06  00					db	0
3EC0:0E07  00			data_221	db	0			; Data table (indexed access)
										;  xref 387F:2288, 387F:22A4
										;       387F:22B5
3EC0:0E08  0392[00]				db	914 dup (0)
3EC0:119A  0000			data_222	dw	0			;  xref 387F:42A4
3EC0:119C  0030[00]				db	48 dup (0)
           ml.lst          Copyright (C) 1986-1991 Phar Lap	Sourcer	v8.01   7-Sep-2022 10:02 am   Page 207

3EC0:11CC  0000			data_223	dw	0			;  xref 387F:21E7
3EC0:11CE  00 00				db	0, 0
3EC0:11D0  0000			data_224	dw	0			;  xref 387F:21F2
3EC0:11D2  00 00 00 00 00 00			db	0, 0, 0, 0, 0, 0
3EC0:11D8  0000 0000				dw	0, 0
3EC0:11DC  0000 0000		data_225	dw	0, 0			;  xref 387F:221B, 387F:223B
										;       387F:2251
3EC0:11E0  0000 0000		data_227	dw	0, 0			;  xref 387F:2233
3EC0:11E4  0000 0000		data_228	dd	00000h			;  xref 387F:2247
3EC0:11E8  00			data_230	db	0
3EC0:11E9  0E17[00]				db	3607 dup (0)

				stack_seg_e	ends



						end	start
           ml.lst          Copyright (C) 1986-1991 Phar Lap	Sourcer	v8.01   7-Sep-2022 10:02 am   Page 208


				±±±±±±±±±±±±±±±±±±±± CROSS REFERENCE - KEY ENTRY POINTS ±±±±±±±±±±±±±±±±±±±

				    seg:off    type	   label
				   ---- ----   ----   --------------------------------
				   387F:2118   far    start
				   387F:21D0   far    int_00h_entry

				 ±±±±±±±±±±±±±±±±±± Interrupt Usage Synopsis ±±±±±±±±±±±±±±±±±±

				        Interrupt 21h : DOS Services  ah=function xxh
				        Interrupt 21h :  ah=00h	 terminate, cs=progm seg prefx
				        Interrupt 21h :  ah=09h	 display char string at ds:dx
				        Interrupt 21h :  ah=1Ah	 set DTA(disk xfer area) ds:dx
				        Interrupt 21h :  ah=25h	 set intrpt vector al to ds:dx
				        Interrupt 21h :  ah=29h	 parse filenam @ds:si FCBes:di
				        Interrupt 21h :  ah=30h	 get DOS version number ax
				        Interrupt 21h :  ah=3Ch	 create/truncate file @ ds:dx
				        Interrupt 21h :  ah=3Dh	 open file, al=mode,name@ds:dx
				        Interrupt 21h :  ah=3Eh	 close file, bx=file handle
				        Interrupt 21h :  ah=3Fh	 read file, bx=file handle
				        Interrupt 21h :  ah=40h	 write file  bx=file handle
				        Interrupt 21h :  ah=41h	 delete	file, name @ ds:dx
				        Interrupt 21h :  ah=42h	 move file ptr, bx=file handle
				        Interrupt 21h :  ax=4300h  get attrb cx, filename @ds:dx
				        Interrupt 21h :  ax=4301h  set attrb cx, filename @ds:dx
				        Interrupt 21h :  ax=4400h  IOctl-0 get info dx, bx=handl
				        Interrupt 21h :  ah=48h	 allocate memory, bx=bytes/16
				        Interrupt 21h :  ah=49h	 release memory block, es=seg
				        Interrupt 21h :  ah=4Ah	 change	memory allocation
				        Interrupt 21h :  ah=4Ch	 terminate with al=return code
				        Interrupt 21h :  ah=52h	 get DOS data table ptr es:bx
				        Interrupt 21h :  ax=5800h  get allocation strategy ax
				        Interrupt 21h :  ax=5801h  set allocation strategy bx
				        Interrupt 21h :  ah=67h	 set maximum handles bx
				        Interrupt 2Fh : Enhanced Windows install check
				           13 Ocurrences of non-standard interrupts used (search for ??).

				 ±±±±±±±±±±±±±±±±±± I/O Port Usage Synopsis  ±±±±±±±±±±±±±±±±±±

				        No I/O ports used.

